(lp0
(iSample
Sample
p1
(dp2
S'timeStamp'
p3
F1440416718.544228
sS'moteData'
p4
(dp5
(S'8031'
p6
I6
tp7
(I10794
I10292
tp8
s(S'85d2'
p9
I3
tp10
(I10664
I10557
tp11
s(S'8054'
p12
I5
tp13
(I10811
I10615
tp14
s(g9
I4
tp15
(I10774
I10633
tp16
s(g6
I2
tp17
(I10785
I10300
tp18
s(g12
I8
tp19
(I10800
I10599
tp20
ssba(iSample
Sample
p21
(dp22
g3
F1440416721.594423
sg4
(dp23
(g6
I6
tp24
(I10816
I10314
tp25
s(g9
I3
tp26
(I10687
I10580
tp27
s(g12
I5
tp28
(I10833
I10637
tp29
s(g9
I4
tp30
(I10797
I10656
tp31
s(g6
I2
tp32
(I10807
I10321
tp33
s(g12
I8
tp34
(I10822
I10621
tp35
ssba(iSample
Sample
p36
(dp37
g3
F1440416724.618091
sg4
(dp38
(g6
I6
tp39
(I10839
I10337
tp40
s(g9
I3
tp41
(I10709
I10601
tp42
s(g12
I5
tp43
(I10856
I10659
tp44
s(g9
I4
tp45
(I10819
I10678
tp46
s(g6
I2
tp47
(I10830
I10343
tp48
s(g12
I8
tp49
(I10845
I10643
tp50
ssba(iSample
Sample
p51
(dp52
g3
F1440416727.579184
sg4
(dp53
(g6
I6
tp54
(I10861
I10359
tp55
s(g9
I3
tp56
(I10731
I10623
tp57
s(g12
I5
tp58
(I10878
I10681
tp59
s(g9
I4
tp60
(I10841
I10700
tp61
s(g6
I2
tp62
(I10852
I10365
tp63
s(g12
I8
tp64
(I10867
I10665
tp65
ssba(iSample
Sample
p66
(dp67
g3
F1440416730.533427
sg4
(dp68
(g6
I6
tp69
(I10891
I10388
tp70
s(g9
I3
tp71
(I10761
I10653
tp72
s(g12
I5
tp73
(I10907
I10710
tp74
s(g9
I4
tp75
(I10871
I10730
tp76
s(g6
I2
tp77
(I10882
I10395
tp78
s(g12
I8
tp79
(I10896
I10694
tp80
ssba(iSample
Sample
p81
(dp82
g3
F1440416734.588259
sg4
(dp83
(g6
I6
tp84
(I10914
I10411
tp85
s(g9
I3
tp86
(I10784
I10676
tp87
s(g12
I5
tp88
(I10931
I10734
tp89
s(g9
I4
tp90
(I10894
I10753
tp91
s(g6
I2
tp92
(I10905
I10418
tp93
s(g12
I8
tp94
(I10920
I10717
tp95
ssba(iSample
Sample
p96
(dp97
g3
F1440416737.700776
sg4
(dp98
(g6
I6
tp99
(I10939
I10435
tp100
s(g9
I3
tp101
(I10810
I10702
tp102
s(g12
I5
tp103
(I10955
I10758
tp104
s(g9
I4
tp105
(I10920
I10779
tp106
s(g6
I2
tp107
(I10930
I10443
tp108
s(g12
I8
tp109
(I10944
I10741
tp110
ssba(iSample
Sample
p111
(dp112
g3
F1440416741.204815
sg4
(dp113
(g6
I6
tp114
(I10963
I10459
tp115
s(g9
I3
tp116
(I10833
I10725
tp117
s(g12
I5
tp118
(I10979
I10782
tp119
s(g9
I4
tp120
(I10943
I10802
tp121
s(g6
I2
tp122
(I10954
I10466
tp123
s(g12
I8
tp124
(I10968
I10765
tp125
ssba(iSample
Sample
p126
(dp127
g3
F1440416744.311048
sg4
(dp128
(g6
I6
tp129
(I10986
I10481
tp130
s(g9
I3
tp131
(I10856
I10748
tp132
s(g12
I5
tp133
(I11002
I10805
tp134
s(g9
I4
tp135
(I10966
I10825
tp136
s(g6
I2
tp137
(I10977
I10489
tp138
s(g12
I8
tp139
(I10991
I10788
tp140
ssba(iSample
Sample
p141
(dp142
g3
F1440416747.470179
sg4
(dp143
(g6
I6
tp144
(I11009
I10501
tp145
s(g9
I3
tp146
(I10880
I10772
tp147
s(g12
I5
tp148
(I11025
I10828
tp149
s(g9
I4
tp150
(I10990
I10849
tp151
s(g6
I2
tp152
(I11000
I10511
tp153
s(g12
I8
tp154
(I11014
I10810
tp155
ssba(iSample
Sample
p156
(dp157
g3
F1440416750.682023
sg4
(dp158
(g6
I6
tp159
(I11036
I10527
tp160
s(g9
I3
tp161
(I10906
I10798
tp162
s(g12
I5
tp163
(I11053
I10856
tp164
s(g9
I4
tp165
(I11016
I10875
tp166
s(g6
I2
tp167
(I11027
I10537
tp168
s(g12
I8
tp169
(I11042
I10838
tp170
ssba(iSample
Sample
p171
(dp172
g3
F1440416754.190099
sg4
(dp173
(g6
I6
tp174
(I11058
I10548
tp175
s(g9
I3
tp176
(I10928
I10820
tp177
s(g12
I5
tp178
(I11075
I10878
tp179
s(g9
I4
tp180
(I11038
I10897
tp181
s(g6
I2
tp182
(I11049
I10558
tp183
s(g12
I8
tp184
(I11064
I10860
tp185
ssba(iSample
Sample
p186
(dp187
g3
F1440416757.154221
sg4
(dp188
(g6
I6
tp189
(I11080
I10570
tp190
s(g9
I3
tp191
(I10950
I10842
tp192
s(g12
I5
tp193
(I11097
I10900
tp194
s(g9
I4
tp195
(I11060
I10918
tp196
s(g6
I2
tp197
(I11071
I10579
tp198
s(g12
I8
tp199
(I11086
I10882
tp200
ssba(iSample
Sample
p201
(dp202
g3
F1440416760.192029
sg4
(dp203
(g6
I6
tp204
(I11102
I10592
tp205
s(g9
I3
tp206
(I10972
I10864
tp207
s(g12
I5
tp208
(I11119
I10922
tp209
s(g9
I4
tp210
(I11082
I10940
tp211
s(g6
I2
tp212
(I11093
I10601
tp213
s(g12
I8
tp214
(I11108
I10903
tp215
ssba(iSample
Sample
p216
(dp217
g3
F1440416763.114298
sg4
(dp218
(g6
I6
tp219
(I11124
I10612
tp220
s(g9
I3
tp221
(I10994
I10886
tp222
s(g12
I5
tp223
(I11141
I10944
tp224
s(g9
I4
tp225
(I11104
I10961
tp226
s(g6
I2
tp227
(I11115
I10623
tp228
s(g12
I8
tp229
(I11130
I10925
tp230
ssba(iSample
Sample
p231
(dp232
g3
F1440416766.078099
sg4
(dp233
(g6
I6
tp234
(I11146
I10634
tp235
s(g9
I3
tp236
(I11016
I10908
tp237
s(g12
I5
tp238
(I11163
I10966
tp239
s(g9
I4
tp240
(I11126
I10983
tp241
s(g6
I2
tp242
(I11137
I10645
tp243
s(g12
I8
tp244
(I11152
I10947
tp245
ssba(iSample
Sample
p246
(dp247
g3
F1440416769.041971
sg4
(dp248
(g6
I6
tp249
(I11168
I10656
tp250
s(g9
I3
tp251
(I11038
I10930
tp252
s(g12
I5
tp253
(I11185
I10988
tp254
s(g9
I4
tp255
(I11148
I11005
tp256
s(g6
I2
tp257
(I11159
I10667
tp258
s(g12
I8
tp259
(I11174
I10969
tp260
ssba(iSample
Sample
p261
(dp262
g3
F1440416771.995414
sg4
(dp263
(g6
I6
tp264
(I11191
I10679
tp265
s(g9
I3
tp266
(I11061
I10953
tp267
s(g12
I5
tp268
(I11208
I11011
tp269
s(g9
I4
tp270
(I11171
I11028
tp271
s(g6
I2
tp272
(I11182
I10690
tp273
s(g12
I8
tp274
(I11197
I10992
tp275
ssba(iSample
Sample
p276
(dp277
g3
F1440416775.149366
sg4
(dp278
(g6
I6
tp279
(I11214
I10700
tp280
s(g9
I3
tp281
(I11085
I10977
tp282
s(g12
I5
tp283
(I11230
I11033
tp284
s(g9
I4
tp285
(I11195
I11052
tp286
s(g6
I2
tp287
(I11205
I10712
tp288
s(g12
I8
tp289
(I11219
I11014
tp290
ssba(iSample
Sample
p291
(dp292
g3
F1440416778.429445
sg4
(dp293
(g6
I6
tp294
(I11237
I10722
tp295
s(g9
I3
tp296
(I11108
I11000
tp297
s(g12
I5
tp298
(I11254
I11057
tp299
s(g9
I4
tp300
(I11218
I11075
tp301
s(g6
I2
tp302
(I11228
I10733
tp303
s(g12
I8
tp304
(I11243
I11038
tp305
ssba(iSample
Sample
p306
(dp307
g3
F1440416781.487755
sg4
(dp308
(g6
I6
tp309
(I11260
I10743
tp310
s(g9
I3
tp311
(I11130
I11021
tp312
s(g12
I5
tp313
(I11277
I11077
tp314
s(g9
I4
tp315
(I11240
I11097
tp316
s(g6
I2
tp317
(I11251
I10754
tp318
s(g12
I8
tp319
(I11266
I11059
tp320
ssba(iSample
Sample
p321
(dp322
g3
F1440416784.455086
sg4
(dp323
(g6
I6
tp324
(I11282
I10764
tp325
s(g9
I3
tp326
(I11153
I11044
tp327
s(g12
I5
tp328
(I11299
I11099
tp329
s(g9
I4
tp330
(I11263
I11119
tp331
s(g6
I2
tp332
(I11273
I10775
tp333
s(g12
I8
tp334
(I11288
I11081
tp335
ssba(iSample
Sample
p336
(dp337
g3
F1440416787.560836
sg4
(dp338
(g6
I6
tp339
(I11305
I10785
tp340
s(g9
I3
tp341
(I11175
I11066
tp342
s(g12
I5
tp343
(I11322
I11122
tp344
s(g9
I4
tp345
(I11285
I11141
tp346
s(g6
I2
tp347
(I11296
I10798
tp348
s(g12
I8
tp349
(I11311
I11104
tp350
ssba(iSample
Sample
p351
(dp352
g3
F1440416790.521786
sg4
(dp353
(g6
I6
tp354
(I11327
I10806
tp355
s(g9
I3
tp356
(I11197
I11088
tp357
s(g12
I5
tp358
(I11344
I11144
tp359
s(g9
I4
tp360
(I11307
I11163
tp361
s(g6
I2
tp362
(I11318
I10819
tp363
s(g12
I8
tp364
(I11333
I11126
tp365
ssba(iSample
Sample
p366
(dp367
g3
F1440416793.476579
sg4
(dp368
(g6
I6
tp369
(I11349
I10828
tp370
s(g9
I3
tp371
(I11220
I11111
tp372
s(g12
I5
tp373
(I11366
I11165
tp374
s(g9
I4
tp375
(I11330
I11186
tp376
s(g6
I2
tp377
(I11340
I10840
tp378
s(g12
I8
tp379
(I11355
I11148
tp380
ssba(iSample
Sample
p381
(dp382
g3
F1440416796.57869
sg4
(dp383
(g6
I6
tp384
(I11373
I10851
tp385
s(g9
I3
tp386
(I11243
I11134
tp387
s(g12
I5
tp388
(I11389
I11188
tp389
s(g9
I4
tp390
(I11353
I11209
tp391
s(g6
I2
tp392
(I11364
I10864
tp393
s(g12
I8
tp394
(I11378
I11169
tp395
ssba(iSample
Sample
p396
(dp397
g3
F1440416799.687464
sg4
(dp398
(g6
I6
tp399
(I11397
I10875
tp400
s(g9
I3
tp401
(I11267
I11158
tp402
s(g12
I5
tp403
(I11412
I11211
tp404
s(g9
I4
tp405
(I11377
I11233
tp406
s(g6
I2
tp407
(I11388
I10888
tp408
s(g12
I8
tp409
(I11401
I11191
tp410
ssba(iSample
Sample
p411
(dp412
g3
F1440416802.948674
sg4
(dp413
(g6
I6
tp414
(I11419
I10897
tp415
s(g9
I3
tp416
(I11289
I11178
tp417
s(g12
I5
tp418
(I11436
I11235
tp419
s(g9
I4
tp420
(I11399
I11255
tp421
s(g6
I2
tp422
(I11410
I10910
tp423
s(g12
I8
tp424
(I11425
I11215
tp425
ssba(iSample
Sample
p426
(dp427
g3
F1440416805.906401
sg4
(dp428
(g6
I6
tp429
(I11441
I10918
tp430
s(g9
I3
tp431
(I11311
I11200
tp432
s(g12
I5
tp433
(I11458
I11257
tp434
s(g9
I4
tp435
(I11421
I11277
tp436
s(g6
I2
tp437
(I11432
I10932
tp438
s(g12
I8
tp439
(I11447
I11237
tp440
ssba(iSample
Sample
p441
(dp442
g3
F1440416808.926402
sg4
(dp443
(g6
I6
tp444
(I11464
I10940
tp445
s(g9
I3
tp446
(I11334
I11222
tp447
s(g12
I5
tp448
(I11481
I11279
tp449
s(g9
I4
tp450
(I11444
I11298
tp451
s(g6
I2
tp452
(I11455
I10954
tp453
s(g12
I8
tp454
(I11470
I11260
tp455
ssba(iSample
Sample
p456
(dp457
g3
F1440416812.015825
sg4
(dp458
(g6
I6
tp459
(I11487
I10963
tp460
s(g9
I3
tp461
(I11357
I11245
tp462
s(g12
I5
tp463
(I11503
I11301
tp464
s(g9
I4
tp465
(I11467
I11321
tp466
s(g6
I2
tp467
(I11478
I10976
tp468
s(g12
I8
tp469
(I11492
I11282
tp470
ssba(iSample
Sample
p471
(dp472
g3
F1440416815.117766
sg4
(dp473
(g6
I6
tp474
(I11510
I10986
tp475
s(g9
I3
tp476
(I11381
I11269
tp477
s(g12
I5
tp478
(I11526
I11324
tp479
s(g9
I4
tp480
(I11491
I11345
tp481
s(g6
I2
tp482
(I11501
I10999
tp483
s(g12
I8
tp484
(I11515
I11305
tp485
ssba(iSample
Sample
p486
(dp487
g3
F1440416818.326243
sg4
(dp488
(g6
I6
tp489
(I11535
I11010
tp490
s(g9
I3
tp491
(I11405
I11293
tp492
s(g12
I5
tp493
(I11550
I11348
tp494
s(g9
I4
tp495
(I11515
I11369
tp496
s(g6
I2
tp497
(I11526
I11023
tp498
s(g12
I8
tp499
(I11539
I11329
tp500
ssba(iSample
Sample
p501
(dp502
g3
F1440416821.577923
sg4
(dp503
(g6
I6
tp504
(I11558
I11033
tp505
s(g9
I3
tp506
(I11428
I11316
tp507
s(g12
I5
tp508
(I11574
I11372
tp509
s(g9
I4
tp510
(I11538
I11392
tp511
s(g6
I2
tp512
(I11549
I11045
tp513
s(g12
I8
tp514
(I11563
I11353
tp515
ssba(iSample
Sample
p516
(dp517
g3
F1440416824.753646
sg4
(dp518
(g6
I6
tp519
(I11580
I11054
tp520
s(g9
I3
tp521
(I11453
I11341
tp522
s(g12
I5
tp523
(I11597
I11395
tp524
s(g9
I4
tp525
(I11563
I11417
tp526
s(g6
I2
tp527
(I11571
I11066
tp528
s(g12
I8
tp529
(I11586
I11376
tp530
ssba(iSample
Sample
p531
(dp532
g3
F1440416828.104875
sg4
(dp533
(g6
I6
tp534
(I11605
I11079
tp535
s(g9
I3
tp536
(I11475
I11363
tp537
s(g12
I5
tp538
(I11622
I11420
tp539
s(g9
I4
tp540
(I11585
I11439
tp541
s(g6
I2
tp542
(I11596
I11090
tp543
s(g12
I8
tp544
(I11611
I11401
tp545
ssba(iSample
Sample
p546
(dp547
g3
F1440416831.056895
sg4
(dp548
(g6
I6
tp549
(I11628
I11101
tp550
s(g9
I3
tp551
(I11499
I11387
tp552
s(g12
I5
tp553
(I11644
I11442
tp554
s(g9
I4
tp555
(I11609
I11463
tp556
s(g6
I2
tp557
(I11619
I11113
tp558
s(g12
I8
tp559
(I11633
I11423
tp560
ssba(iSample
Sample
p561
(dp562
g3
F1440416834.277732
sg4
(dp563
(g6
I6
tp564
(I11651
I11123
tp565
s(g9
I3
tp566
(I11521
I11409
tp567
s(g12
I5
tp568
(I11668
I11466
tp569
s(g9
I4
tp570
(I11631
I11485
tp571
s(g6
I2
tp572
(I11642
I11136
tp573
s(g12
I8
tp574
(I11657
I11447
tp575
ssba(iSample
Sample
p576
(dp577
g3
F1440416837.290661
sg4
(dp578
(g6
I6
tp579
(I11673
I11144
tp580
s(g9
I3
tp581
(I11543
I11431
tp582
s(g12
I5
tp583
(I11690
I11488
tp584
s(g9
I4
tp585
(I11653
I11507
tp586
s(g6
I2
tp587
(I11664
I11158
tp588
s(g12
I8
tp589
(I11679
I11469
tp590
ssba(iSample
Sample
p591
(dp592
g3
F1440416840.244589
sg4
(dp593
(g6
I6
tp594
(I11696
I11166
tp595
s(g9
I3
tp596
(I11566
I11454
tp597
s(g12
I5
tp598
(I11712
I11510
tp599
s(g9
I4
tp600
(I11676
I11530
tp601
s(g6
I2
tp602
(I11687
I11179
tp603
s(g12
I8
tp604
(I11701
I11491
tp605
ssba(iSample
Sample
p606
(dp607
g3
F1440416843.361415
sg4
(dp608
(g6
I6
tp609
(I11719
I11188
tp610
s(g9
I3
tp611
(I11589
I11476
tp612
s(g12
I5
tp613
(I11735
I11531
tp614
s(g9
I4
tp615
(I11699
I11553
tp616
s(g6
I2
tp617
(I11710
I11202
tp618
s(g12
I8
tp619
(I11724
I11514
tp620
ssba(iSample
Sample
p621
(dp622
g3
F1440416846.446907
sg4
(dp623
(g6
I6
tp624
(I11743
I11211
tp625
s(g9
I3
tp626
(I11613
I11500
tp627
s(g12
I5
tp628
(I11760
I11556
tp629
s(g9
I4
tp630
(I11723
I11576
tp631
s(g6
I2
tp632
(I11734
I11225
tp633
s(g12
I8
tp634
(I11749
I11538
tp635
ssba(iSample
Sample
p636
(dp637
g3
F1440416849.656858
sg4
(dp638
(g6
I6
tp639
(I11766
I11234
tp640
s(g9
I3
tp641
(I11636
I11523
tp642
s(g12
I5
tp643
(I11782
I11578
tp644
s(g9
I4
tp645
(I11746
I11599
tp646
s(g6
I2
tp647
(I11757
I11248
tp648
s(g12
I8
tp649
(I11771
I11560
tp650
ssba(iSample
Sample
p651
(dp652
g3
F1440416852.830282
sg4
(dp653
(g6
I6
tp654
(I11788
I11255
tp655
s(g9
I3
tp656
(I11658
I11545
tp657
s(g12
I5
tp658
(I11805
I11601
tp659
s(g9
I4
tp660
(I11768
I11621
tp661
s(g6
I2
tp662
(I11779
I11269
tp663
s(g12
I8
tp664
(I11794
I11583
tp665
ssba(iSample
Sample
p666
(dp667
g3
F1440416855.732741
sg4
(dp668
(g6
I6
tp669
(I11811
I11277
tp670
s(g9
I3
tp671
(I11684
I11571
tp672
s(g12
I5
tp673
(I11827
I11623
tp674
s(g9
I4
tp675
(I11794
I11647
tp676
s(g6
I2
tp677
(I11802
I11288
tp678
s(g12
I8
tp679
(I11816
I11605
tp680
ssba(iSample
Sample
p681
(dp682
g3
F1440416859.327842
sg4
(dp683
(g6
I6
tp684
(I11836
I11301
tp685
s(g9
I3
tp686
(I11706
I11592
tp687
s(g12
I5
tp688
(I11853
I11649
tp689
s(g9
I4
tp690
(I11816
I11669
tp691
s(g6
I2
tp692
(I11827
I11311
tp693
s(g12
I8
tp694
(I11842
I11631
tp695
ssba(iSample
Sample
p696
(dp697
g3
F1440416862.259798
sg4
(dp698
(g6
I6
tp699
(I11860
I11325
tp700
s(g9
I3
tp701
(I11730
I11616
tp702
s(g12
I5
tp703
(I11875
I11671
tp704
s(g9
I4
tp705
(I11840
I11693
tp706
s(g6
I2
tp707
(I11851
I11333
tp708
s(g12
I8
tp709
(I11864
I11653
tp710
ssba(iSample
Sample
p711
(dp712
g3
F1440416865.468686
sg4
(dp713
(g6
I6
tp714
(I11882
I11346
tp715
s(g9
I3
tp716
(I11752
I11638
tp717
s(g12
I5
tp718
(I11899
I11695
tp719
s(g9
I4
tp720
(I11862
I11714
tp721
s(g6
I2
tp722
(I11873
I11355
tp723
s(g12
I8
tp724
(I11888
I11677
tp725
ssba(iSample
Sample
p726
(dp727
g3
F1440416868.431516
sg4
(dp728
(g6
I6
tp729
(I11904
I11366
tp730
s(g9
I3
tp731
(I11775
I11660
tp732
s(g12
I5
tp733
(I11921
I11716
tp734
s(g9
I4
tp735
(I11885
I11737
tp736
s(g6
I2
tp737
(I11895
I11377
tp738
s(g12
I8
tp739
(I11910
I11699
tp740
ssba(iSample
Sample
p741
(dp742
g3
F1440416871.546812
sg4
(dp743
(g6
I6
tp744
(I11928
I11388
tp745
s(g9
I3
tp746
(I11799
I11684
tp747
s(g12
I5
tp748
(I11945
I11740
tp749
s(g9
I4
tp750
(I11909
I11761
tp751
s(g6
I2
tp752
(I11919
I11399
tp753
s(g12
I8
tp754
(I11934
I11723
tp755
ssba(iSample
Sample
p756
(dp757
g3
F1440416874.865073
sg4
(dp758
(g6
I6
tp759
(I11952
I11410
tp760
s(g9
I3
tp761
(I11823
I11708
tp762
s(g12
I5
tp763
(I11968
I11763
tp764
s(g9
I4
tp765
(I11933
I11785
tp766
s(g6
I2
tp767
(I11943
I11423
tp768
s(g12
I8
tp769
(I11957
I11745
tp770
ssba(iSample
Sample
p771
(dp772
g3
F1440416878.025407
sg4
(dp773
(g6
I6
tp774
(I11975
I11433
tp775
s(g9
I3
tp776
(I11845
I11730
tp777
s(g12
I5
tp778
(I11992
I11787
tp779
s(g9
I4
tp780
(I11955
I11807
tp781
s(g6
I2
tp782
(I11966
I11446
tp783
s(g12
I8
tp784
(I11981
I11769
tp785
ssba(iSample
Sample
p786
(dp787
g3
F1440416881.047314
sg4
(dp788
(g6
I6
tp789
(I11997
I11455
tp790
s(g9
I3
tp791
(I11867
I11752
tp792
s(g12
I5
tp793
(I12014
I11808
tp794
s(g9
I4
tp795
(I11977
I11829
tp796
s(g6
I2
tp797
(I11988
I11466
tp798
s(g12
I8
tp799
(I12003
I11791
tp800
ssba(iSample
Sample
p801
(dp802
g3
F1440416884.05513
sg4
(dp803
(g6
I6
tp804
(I12020
I11476
tp805
s(g9
I3
tp806
(I11890
I11775
tp807
s(g12
I5
tp808
(I12036
I11830
tp809
s(g9
I4
tp810
(I12000
I11852
tp811
s(g6
I2
tp812
(I12011
I11488
tp813
s(g12
I8
tp814
(I12025
I11813
tp815
ssba(iSample
Sample
p816
(dp817
g3
F1440416887.172488
sg4
(dp818
(g6
I6
tp819
(I12047
I11502
tp820
s(g9
I3
tp821
(I11917
I11802
tp822
s(g12
I5
tp823
(I12062
I11856
tp824
s(g9
I4
tp825
(I12027
I11879
tp826
s(g6
I2
tp827
(I12038
I11515
tp828
s(g12
I8
tp829
(I12051
I11839
tp830
ssba(iSample
Sample
p831
(dp832
g3
F1440416890.733162
sg4
(dp833
(g6
I6
tp834
(I12069
I11524
tp835
s(g9
I3
tp836
(I11939
I11824
tp837
s(g12
I5
tp838
(I12086
I11879
tp839
s(g9
I4
tp840
(I12049
I11901
tp841
s(g6
I2
tp842
(I12060
I11535
tp843
s(g12
I8
tp844
(I12075
I11863
tp845
ssba(iSample
Sample
p846
(dp847
g3
F1440416893.690273
sg4
(dp848
(g6
I6
tp849
(I12091
I11546
tp850
s(g9
I3
tp851
(I11961
I11846
tp852
s(g12
I5
tp853
(I12108
I11900
tp854
s(g9
I4
tp855
(I12071
I11923
tp856
s(g6
I2
tp857
(I12082
I11557
tp858
s(g12
I8
tp859
(I12097
I11885
tp860
ssba(iSample
Sample
p861
(dp862
g3
F1440416896.70763
sg4
(dp863
(g6
I6
tp864
(I12113
I11567
tp865
s(g9
I3
tp866
(I11984
I11868
tp867
s(g12
I5
tp868
(I12130
I11922
tp869
s(g9
I4
tp870
(I12094
I11946
tp871
s(g6
I2
tp872
(I12104
I11579
tp873
s(g12
I8
tp874
(I12119
I11905
tp875
ssba(iSample
Sample
p876
(dp877
g3
F1440416899.764317
sg4
(dp878
(g6
I6
tp879
(I12136
I11590
tp880
s(g9
I3
tp881
(I12007
I11891
tp882
s(g12
I5
tp883
(I12153
I11945
tp884
s(g9
I4
tp885
(I12117
I11969
tp886
s(g6
I2
tp887
(I12127
I11601
tp888
s(g12
I8
tp889
(I12142
I11928
tp890
ssba(iSample
Sample
p891
(dp892
g3
F1440416902.903292
sg4
(dp893
(g6
I6
tp894
(I12160
I11614
tp895
s(g9
I3
tp896
(I12031
I11915
tp897
s(g12
I5
tp898
(I12176
I11968
tp899
s(g9
I4
tp900
(I12141
I11992
tp901
s(g6
I2
tp902
(I12151
I11625
tp903
s(g12
I8
tp904
(I12165
I11951
tp905
ssba.