(lp0
(iSample
Sample
p1
(dp2
S'timeStamp'
p3
F1440430698.573529
sS'moteData'
p4
(dp5
(S'8031'
p6
I5
tp7
(I31446
I29988
tp8
s(S'8054'
p9
I7
tp10
(I31406
I30820
tp11
s(g9
I4
tp12
(I31417
I30861
tp13
s(S'85d2'
p14
I6
tp15
(I31370
I30842
tp16
s(g14
I8
tp17
(I31308
I30785
tp18
s(g6
I2
tp19
(I31431
I29994
tp20
ssba(iSample
Sample
p21
(dp22
g3
F1440430702.073414
sg4
(dp23
(g6
I5
tp24
(I31470
I30012
tp25
s(g9
I7
tp26
(I31430
I30844
tp27
s(g9
I4
tp28
(I31441
I30885
tp29
s(g14
I6
tp30
(I31394
I30866
tp31
s(g14
I8
tp32
(I31332
I30809
tp33
s(g6
I2
tp34
(I31455
I30018
tp35
ssba(iSample
Sample
p36
(dp37
g3
F1440430705.238749
sg4
(dp38
(g6
I5
tp39
(I31495
I30036
tp40
s(g9
I7
tp41
(I31453
I30866
tp42
s(g9
I4
tp43
(I31464
I30908
tp44
s(g14
I6
tp45
(I31419
I30890
tp46
s(g14
I8
tp47
(I31357
I30834
tp48
s(g6
I2
tp49
(I31480
I30043
tp50
ssba(iSample
Sample
p51
(dp52
g3
F1440430708.655729
sg4
(dp53
(g6
I5
tp54
(I31519
I30060
tp55
s(g9
I7
tp56
(I31479
I30892
tp57
s(g9
I4
tp58
(I31490
I30934
tp59
s(g14
I6
tp60
(I31443
I30914
tp61
s(g14
I8
tp62
(I31381
I30857
tp63
s(g6
I2
tp64
(I31504
I30067
tp65
ssba(iSample
Sample
p66
(dp67
g3
F1440430711.8669
sg4
(dp68
(g6
I5
tp69
(I31545
I30086
tp70
s(g9
I7
tp71
(I31505
I30918
tp72
s(g9
I4
tp73
(I31516
I30960
tp74
s(g14
I6
tp75
(I31469
I30940
tp76
s(g14
I8
tp77
(I31407
I30882
tp78
s(g6
I2
tp79
(I31530
I30092
tp80
ssba(iSample
Sample
p81
(dp82
g3
F1440430715.369375
sg4
(dp83
(g6
I5
tp84
(I31568
I30108
tp85
s(g9
I7
tp86
(I31528
I30941
tp87
s(g9
I4
tp88
(I31539
I30983
tp89
s(g14
I6
tp90
(I31495
I30966
tp91
s(g14
I8
tp92
(I31433
I30908
tp93
s(g6
I2
tp94
(I31553
I30114
tp95
ssba(iSample
Sample
p96
(dp97
g3
F1440430718.920156
sg4
(dp98
(g6
I5
tp99
(I31595
I30135
tp100
s(g9
I7
tp101
(I31555
I30968
tp102
s(g9
I4
tp103
(I31566
I31010
tp104
s(g14
I6
tp105
(I31519
I30990
tp106
s(g14
I8
tp107
(I31457
I30932
tp108
s(g6
I2
tp109
(I31580
I30141
tp110
ssba(iSample
Sample
p111
(dp112
g3
F1440430722.120999
sg4
(dp113
(g6
I5
tp114
(I31618
I30158
tp115
s(g9
I7
tp116
(I31578
I30991
tp117
s(g9
I4
tp118
(I31589
I31033
tp119
s(g14
I6
tp120
(I31542
I31012
tp121
s(g14
I8
tp122
(I31480
I30955
tp123
s(g6
I2
tp124
(I31603
I30164
tp125
ssba(iSample
Sample
p126
(dp127
g3
F1440430725.230884
sg4
(dp128
(g6
I5
tp129
(I31641
I30180
tp130
s(g9
I7
tp131
(I31601
I31014
tp132
s(g9
I4
tp133
(I31612
I31056
tp134
s(g14
I6
tp135
(I31565
I31035
tp136
s(g14
I8
tp137
(I31503
I30977
tp138
s(g6
I2
tp139
(I31626
I30186
tp140
ssba(iSample
Sample
p141
(dp142
g3
F1440430728.338559
sg4
(dp143
(g6
I5
tp144
(I31664
I30202
tp145
s(g9
I7
tp146
(I31624
I31037
tp147
s(g9
I4
tp148
(I31635
I31079
tp149
s(g14
I6
tp150
(I31588
I31057
tp151
s(g14
I8
tp152
(I31526
I30999
tp153
s(g6
I2
tp154
(I31649
I30209
tp155
ssba(iSample
Sample
p156
(dp157
g3
F1440430731.437337
sg4
(dp158
(g6
I5
tp159
(I31688
I30226
tp160
s(g9
I7
tp161
(I31648
I31061
tp162
s(g9
I4
tp163
(I31659
I31103
tp164
s(g14
I6
tp165
(I31612
I31081
tp166
s(g14
I8
tp167
(I31550
I31023
tp168
s(g6
I2
tp169
(I31673
I30233
tp170
ssba(iSample
Sample
p171
(dp172
g3
F1440430734.690493
sg4
(dp173
(g6
I5
tp174
(I31711
I30249
tp175
s(g9
I7
tp176
(I31671
I31084
tp177
s(g9
I4
tp178
(I31682
I31126
tp179
s(g14
I6
tp180
(I31635
I31103
tp181
s(g14
I8
tp182
(I31573
I31045
tp183
s(g6
I2
tp184
(I31696
I30255
tp185
ssba(iSample
Sample
p186
(dp187
g3
F1440430737.79887
sg4
(dp188
(g6
I5
tp189
(I31734
I30271
tp190
s(g9
I7
tp191
(I31694
I31106
tp192
s(g9
I4
tp193
(I31705
I31149
tp194
s(g14
I6
tp195
(I31662
I31130
tp196
s(g14
I8
tp197
(I31600
I31070
tp198
s(g6
I2
tp199
(I31719
I30277
tp200
ssba(iSample
Sample
p201
(dp202
g3
F1440430741.4602
sg4
(dp203
(g6
I5
tp204
(I31761
I30296
tp205
s(g9
I7
tp206
(I31721
I31133
tp207
s(g9
I4
tp208
(I31732
I31176
tp209
s(g14
I6
tp210
(I31685
I31153
tp211
s(g14
I8
tp212
(I31623
I31093
tp213
s(g6
I2
tp214
(I31746
I30303
tp215
ssba(iSample
Sample
p216
(dp217
g3
F1440430744.571851
sg4
(dp218
(g6
I5
tp219
(I31784
I30317
tp220
s(g9
I7
tp221
(I31744
I31156
tp222
s(g9
I4
tp223
(I31755
I31199
tp224
s(g14
I6
tp225
(I31708
I31174
tp226
s(g14
I8
tp227
(I31646
I31116
tp228
s(g6
I2
tp229
(I31769
I30324
tp230
ssba(iSample
Sample
p231
(dp232
g3
F1440430747.672144
sg4
(dp233
(g6
I5
tp234
(I31807
I30340
tp235
s(g9
I7
tp236
(I31767
I31179
tp237
s(g9
I4
tp238
(I31778
I31222
tp239
s(g14
I6
tp240
(I31731
I31197
tp241
s(g14
I8
tp242
(I31669
I31138
tp243
s(g6
I2
tp244
(I31792
I30346
tp245
ssba(iSample
Sample
p246
(dp247
g3
F1440430750.770099
sg4
(dp248
(g6
I5
tp249
(I31830
I30363
tp250
s(g9
I7
tp251
(I31790
I31202
tp252
s(g9
I4
tp253
(I31801
I31245
tp254
s(g14
I6
tp255
(I31754
I31220
tp256
s(g14
I8
tp257
(I31692
I31161
tp258
s(g6
I2
tp259
(I31815
I30367
tp260
ssba(iSample
Sample
p261
(dp262
g3
F1440430753.87028
sg4
(dp263
(g6
I5
tp264
(I31855
I30388
tp265
s(g9
I7
tp266
(I31815
I31227
tp267
s(g9
I4
tp268
(I31826
I31270
tp269
s(g14
I6
tp270
(I31779
I31245
tp271
s(g14
I8
tp272
(I31717
I31186
tp273
s(g6
I2
tp274
(I31840
I30391
tp275
ssba(iSample
Sample
p276
(dp277
g3
F1440430757.219833
sg4
(dp278
(g6
I5
tp279
(I31878
I30411
tp280
s(g9
I7
tp281
(I31838
I31250
tp282
s(g9
I4
tp283
(I31849
I31293
tp284
s(g14
I6
tp285
(I31802
I31268
tp286
s(g14
I8
tp287
(I31740
I31209
tp288
s(g6
I2
tp289
(I31863
I30413
tp290
ssba(iSample
Sample
p291
(dp292
g3
F1440430760.322685
sg4
(dp293
(g6
I5
tp294
(I31901
I30434
tp295
s(g9
I7
tp296
(I31861
I31273
tp297
s(g9
I4
tp298
(I31872
I31316
tp299
s(g14
I6
tp300
(I31825
I31291
tp301
s(g14
I8
tp302
(I31763
I31232
tp303
s(g6
I2
tp304
(I31886
I30436
tp305
ssba(iSample
Sample
p306
(dp307
g3
F1440430763.474884
sg4
(dp308
(g6
I5
tp309
(I31928
I30460
tp310
s(g9
I7
tp311
(I31886
I31298
tp312
s(g9
I4
tp313
(I31897
I31341
tp314
s(g14
I6
tp315
(I31852
I31317
tp316
s(g14
I8
tp317
(I31790
I31259
tp318
s(g6
I2
tp319
(I31913
I30462
tp320
ssba(iSample
Sample
p321
(dp322
g3
F1440430767.090105
sg4
(dp323
(g6
I5
tp324
(I31951
I30481
tp325
s(g9
I7
tp326
(I31911
I31322
tp327
s(g9
I4
tp328
(I31922
I31366
tp329
s(g14
I6
tp330
(I31875
I31339
tp331
s(g14
I8
tp332
(I31813
I31280
tp333
s(g6
I2
tp334
(I31936
I30483
tp335
ssba(iSample
Sample
p336
(dp337
g3
F1440430770.201065
sg4
(dp338
(g6
I5
tp339
(I31974
I30504
tp340
s(g9
I7
tp341
(I31934
I31344
tp342
s(g9
I4
tp343
(I31945
I31389
tp344
s(g14
I6
tp345
(I31898
I31362
tp346
s(g14
I8
tp347
(I31836
I31301
tp348
s(g6
I2
tp349
(I31959
I30505
tp350
ssba(iSample
Sample
p351
(dp352
g3
F1440430773.327252
sg4
(dp353
(g6
I5
tp354
(I31998
I30528
tp355
s(g9
I7
tp356
(I31957
I31367
tp357
s(g9
I4
tp358
(I31968
I31412
tp359
s(g14
I6
tp360
(I31922
I31385
tp361
s(g14
I8
tp362
(I31860
I31324
tp363
s(g6
I2
tp364
(I31983
I30529
tp365
ssba(iSample
Sample
p366
(dp367
g3
F1440430776.54991
sg4
(dp368
(g6
I5
tp369
(I32021
I30549
tp370
s(g9
I7
tp371
(I31981
I31391
tp372
s(g9
I4
tp373
(I31992
I31435
tp374
s(g14
I6
tp375
(I31946
I31409
tp376
s(g14
I8
tp377
(I31884
I31348
tp378
s(g6
I2
tp379
(I32006
I30552
tp380
ssba(iSample
Sample
p381
(dp382
g3
F1440430779.802235
sg4
(dp383
(g6
I5
tp384
(I32045
I30572
tp385
s(g9
I7
tp386
(I32005
I31414
tp387
s(g9
I4
tp388
(I32016
I31458
tp389
s(g14
I6
tp390
(I31969
I31432
tp391
s(g14
I8
tp392
(I31907
I31369
tp393
s(g6
I2
tp394
(I32030
I30575
tp395
ssba(iSample
Sample
p396
(dp397
g3
F1440430782.940361
sg4
(dp398
(g6
I5
tp399
(I32070
I30595
tp400
s(g9
I7
tp401
(I32029
I31438
tp402
s(g9
I4
tp403
(I32040
I31482
tp404
s(g14
I6
tp405
(I31996
I31458
tp406
s(g14
I8
tp407
(I31934
I31396
tp408
s(g6
I2
tp409
(I32055
I30600
tp410
ssba(iSample
Sample
p411
(dp412
g3
F1440430786.62996
sg4
(dp413
(g6
I5
tp414
(I32096
I30620
tp415
s(g9
I7
tp416
(I32056
I31465
tp417
s(g9
I4
tp418
(I32067
I31509
tp419
s(g14
I6
tp420
(I32020
I31482
tp421
s(g14
I8
tp422
(I31958
I31420
tp423
s(g6
I2
tp424
(I32081
I30625
tp425
ssba(iSample
Sample
p426
(dp427
g3
F1440430789.790307
sg4
(dp428
(g6
I5
tp429
(I32119
I30643
tp430
s(g9
I7
tp431
(I32079
I31487
tp432
s(g9
I4
tp433
(I32090
I31532
tp434
s(g14
I6
tp435
(I32043
I31505
tp436
s(g14
I8
tp437
(I31981
I31443
tp438
s(g6
I2
tp439
(I32104
I30647
tp440
ssba(iSample
Sample
p441
(dp442
g3
F1440430792.916939
sg4
(dp443
(g6
I5
tp444
(I32143
I30666
tp445
s(g9
I7
tp446
(I32103
I31511
tp447
s(g9
I4
tp448
(I32114
I31556
tp449
s(g14
I6
tp450
(I32068
I31530
tp451
s(g14
I8
tp452
(I32006
I31468
tp453
s(g6
I2
tp454
(I32128
I30670
tp455
ssba(iSample
Sample
p456
(dp457
g3
F1440430796.295468
sg4
(dp458
(g6
I5
tp459
(I32169
I30692
tp460
s(g9
I7
tp461
(I32129
I31537
tp462
s(g9
I4
tp463
(I32140
I31582
tp464
s(g14
I6
tp465
(I32093
I31555
tp466
s(g14
I8
tp467
(I32031
I31492
tp468
s(g6
I2
tp469
(I32154
I30696
tp470
ssba(iSample
Sample
p471
(dp472
g3
F1440430799.686723
sg4
(dp473
(g6
I5
tp474
(I32193
I30716
tp475
s(g9
I7
tp476
(I32153
I31561
tp477
s(g9
I4
tp478
(I32164
I31606
tp479
s(g14
I6
tp480
(I32282
I31740
tp481
s(g14
I8
tp482
(I32220
I31676
tp483
s(g6
I2
tp484
(I32178
I30720
tp485
ssba(iSample
Sample
p486
(dp487
g3
F1440430825.22316
sg4
(dp488
(g6
I5
tp489
(I32382
I30901
tp490
s(g9
I7
tp491
(I32342
I31750
tp492
s(g9
I4
tp493
(I32353
I31793
tp494
s(g14
I6
tp495
(I32306
I31764
tp496
s(g14
I8
tp497
(I32244
I31699
tp498
s(g6
I2
tp499
(I32367
I30905
tp500
ssba(iSample
Sample
p501
(dp502
g3
F1440430828.432113
sg4
(dp503
(g6
I5
tp504
(I32405
I30924
tp505
s(g9
I7
tp506
(I32365
I31773
tp507
s(g9
I4
tp508
(I32376
I31816
tp509
s(g14
I6
tp510
(I32329
I31787
tp511
s(g14
I8
tp512
(I32267
I31722
tp513
s(g6
I2
tp514
(I32390
I30926
tp515
ssba(iSample
Sample
p516
(dp517
g3
F1440430831.583927
sg4
(dp518
(g6
I5
tp519
(I32429
I30948
tp520
s(g9
I7
tp521
(I32389
I31795
tp522
s(g9
I4
tp523
(I32400
I31840
tp524
s(g14
I6
tp525
(I32353
I31810
tp526
s(g14
I8
tp527
(I32291
I31744
tp528
s(g6
I2
tp529
(I32414
I30950
tp530
ssba(iSample
Sample
p531
(dp532
g3
F1440430834.773647
sg4
(dp533
(g6
I5
tp534
(I32452
I30971
tp535
s(g9
I7
tp536
(I32412
I31817
tp537
s(g9
I4
tp538
(I32423
I31863
tp539
s(g14
I6
tp540
(I32376
I31833
tp541
s(g14
I8
tp542
(I32314
I31767
tp543
s(g6
I2
tp544
(I32437
I30973
tp545
ssba(iSample
Sample
p546
(dp547
g3
F1440430837.918055
sg4
(dp548
(g6
I5
tp549
(I32476
I30995
tp550
s(g9
I7
tp551
(I32436
I31841
tp552
s(g9
I4
tp553
(I32447
I31887
tp554
s(g14
I6
tp555
(I32400
I31857
tp556
s(g14
I8
tp557
(I32338
I31791
tp558
s(g6
I2
tp559
(I32461
I30997
tp560
ssba(iSample
Sample
p561
(dp562
g3
F1440430841.168009
sg4
(dp563
(g6
I5
tp564
(I32500
I31019
tp565
s(g9
I7
tp566
(I32460
I31865
tp567
s(g9
I4
tp568
(I32471
I31911
tp569
s(g14
I6
tp570
(I32425
I31881
tp571
s(g14
I8
tp572
(I32363
I31816
tp573
s(g6
I2
tp574
(I32485
I31020
tp575
ssba(iSample
Sample
p576
(dp577
g3
F1440430844.479315
sg4
(dp578
(g6
I5
tp579
(I32524
I31042
tp580
s(g9
I7
tp581
(I32484
I31889
tp582
s(g9
I4
tp583
(I32495
I31935
tp584
s(g14
I6
tp585
(I32448
I31904
tp586
s(g14
I8
tp587
(I32386
I31839
tp588
s(g6
I2
tp589
(I32509
I31044
tp590
ssba(iSample
Sample
p591
(dp592
g3
F1440430847.648233
sg4
(dp593
(g6
I5
tp594
(I32548
I31066
tp595
s(g9
I7
tp596
(I32508
I31913
tp597
s(g9
I4
tp598
(I32519
I31959
tp599
s(g14
I6
tp600
(I32472
I31928
tp601
s(g14
I8
tp602
(I32410
I31862
tp603
s(g6
I2
tp604
(I32533
I31068
tp605
ssba(iSample
Sample
p606
(dp607
g3
F1440430850.851799
sg4
(dp608
(g6
I5
tp609
(I32571
I31087
tp610
s(g9
I7
tp611
(I32531
I31935
tp612
s(g9
I4
tp613
(I32542
I31981
tp614
s(g14
I6
tp615
(I32495
I31950
tp616
s(g14
I8
tp617
(I32433
I31881
tp618
s(g6
I2
tp619
(I32556
I31090
tp620
ssba(iSample
Sample
p621
(dp622
g3
F1440430854.01708
sg4
(dp623
(g6
I5
tp624
(I32597
I31110
tp625
s(g9
I7
tp626
(I32555
I31958
tp627
s(g9
I4
tp628
(I32566
I32004
tp629
s(g14
I6
tp630
(I32521
I31973
tp631
s(g14
I8
tp632
(I32459
I31906
tp633
s(g6
I2
tp634
(I32582
I31114
tp635
ssba(iSample
Sample
p636
(dp637
g3
F1440430857.541267
sg4
(dp638
(g6
I5
tp639
(I32621
I31134
tp640
s(g9
I7
tp641
(I32581
I31984
tp642
s(g9
I4
tp643
(I32592
I32030
tp644
s(g14
I6
tp645
(I32545
I31997
tp646
s(g14
I8
tp647
(I32483
I31930
tp648
s(g6
I2
tp649
(I32606
I31137
tp650
ssba(iSample
Sample
p651
(dp652
g3
F1440430860.699388
sg4
(dp653
(g6
I5
tp654
(I32849
I31360
tp655
s(g9
I7
tp656
(I32604
I32007
tp657
s(g9
I4
tp658
(I32615
I32053
tp659
s(g14
I6
tp660
(I32773
I32218
tp661
s(g14
I8
tp662
(I32711
I32154
tp663
s(g6
I2
tp664
(I32834
I31363
tp665
ssba(iSample
Sample
p666
(dp667
g3
F1440430891.518508
sg4
(dp668
(g6
I5
tp669
(I32873
I31384
tp670
s(g9
I7
tp671
(I32833
I32234
tp672
s(g9
I4
tp673
(I32844
I32279
tp674
s(g14
I6
tp675
(I32797
I32242
tp676
s(g14
I8
tp677
(I32735
I32177
tp678
s(g6
I2
tp679
(I32858
I31387
tp680
ssba(iSample
Sample
p681
(dp682
g3
F1440430894.727082
sg4
(dp683
(g6
I5
tp684
(I32896
I31407
tp685
s(g9
I7
tp686
(I32856
I32257
tp687
s(g9
I4
tp688
(I32867
I32302
tp689
s(g14
I6
tp690
(I32823
I32268
tp691
s(g14
I8
tp692
(I32761
I32203
tp693
s(g6
I2
tp694
(I32881
I31410
tp695
ssba(iSample
Sample
p696
(dp697
g3
F1440430898.269363
sg4
(dp698
(g6
I5
tp699
(I32923
I31434
tp700
s(g9
I7
tp701
(I32883
I32284
tp702
s(g9
I4
tp703
(I32894
I32329
tp704
s(g14
I6
tp705
(I32847
I32292
tp706
s(g14
I8
tp707
(I32785
I32227
tp708
s(g6
I2
tp709
(I32908
I31436
tp710
ssba(iSample
Sample
p711
(dp712
g3
F1440430901.496083
sg4
(dp713
(g6
I5
tp714
(I32946
I31457
tp715
s(g9
I7
tp716
(I32906
I32306
tp717
s(g9
I4
tp718
(I32917
I32352
tp719
s(g14
I6
tp720
(I32870
I32315
tp721
s(g14
I8
tp722
(I32808
I32250
tp723
s(g6
I2
tp724
(I32931
I31458
tp725
ssba(iSample
Sample
p726
(dp727
g3
F1440430904.653848
sg4
(dp728
(g6
I5
tp729
(I32986
I31495
tp730
s(g9
I7
tp731
(I32933
I32332
tp732
s(g9
I4
tp733
(I32944
I32379
tp734
s(g14
I6
tp735
(I32910
I32353
tp736
s(g14
I8
tp737
(I32848
I32290
tp738
s(g6
I2
tp739
(I32971
I31497
tp740
ssba(iSample
Sample
p741
(dp742
g3
F1440430910.010638
sg4
(dp743
(g6
I5
tp744
(I33009
I31518
tp745
s(g9
I7
tp746
(I32969
I32367
tp747
s(g9
I4
tp748
(I32980
I32415
tp749
s(g14
I6
tp750
(I32933
I32375
tp751
s(g14
I8
tp752
(I32871
I32312
tp753
s(g6
I2
tp754
(I32994
I31520
tp755
ssba(iSample
Sample
p756
(dp757
g3
F1440430913.097574
sg4
(dp758
(g6
I5
tp759
(I33032
I31541
tp760
s(g9
I7
tp761
(I32992
I32390
tp762
s(g9
I4
tp763
(I33003
I32437
tp764
s(g14
I6
tp765
(I32956
I32398
tp766
s(g14
I8
tp767
(I32894
I32334
tp768
s(g6
I2
tp769
(I33017
I31543
tp770
ssba(iSample
Sample
p771
(dp772
g3
F1440430916.234814
sg4
(dp773
(g6
I5
tp774
(I33056
I31565
tp775
s(g9
I7
tp776
(I33016
I32414
tp777
s(g9
I4
tp778
(I33027
I32461
tp779
s(g14
I6
tp780
(I32983
I32425
tp781
s(g14
I8
tp782
(I32921
I32361
tp783
s(g6
I2
tp784
(I33041
I31567
tp785
ssba(iSample
Sample
p786
(dp787
g3
F1440430919.838878
sg4
(dp788
(g6
I5
tp789
(I33082
I31591
tp790
s(g9
I7
tp791
(I33042
I32440
tp792
s(g9
I4
tp793
(I33053
I32487
tp794
s(g14
I6
tp795
(I33006
I32447
tp796
s(g14
I8
tp797
(I32944
I32383
tp798
s(g6
I2
tp799
(I33067
I31591
tp800
ssba(iSample
Sample
p801
(dp802
g3
F1440430922.964258
sg4
(dp803
(g6
I5
tp804
(I33105
I31614
tp805
s(g9
I7
tp806
(I33065
I32463
tp807
s(g9
I4
tp808
(I33076
I32510
tp809
s(g14
I6
tp810
(I33029
I32469
tp811
s(g14
I8
tp812
(I32967
I32406
tp813
s(g6
I2
tp814
(I33090
I31614
tp815
ssba(iSample
Sample
p816
(dp817
g3
F1440430926.090349
sg4
(dp818
(g6
I5
tp819
(I33128
I31637
tp820
s(g9
I7
tp821
(I33088
I32486
tp822
s(g9
I4
tp823
(I33099
I32533
tp824
s(g14
I6
tp825
(I33052
I32492
tp826
s(g14
I8
tp827
(I32990
I32429
tp828
s(g6
I2
tp829
(I33113
I31636
tp830
ssba(iSample
Sample
p831
(dp832
g3
F1440430929.166237
sg4
(dp833
(g6
I5
tp834
(I33151
I31660
tp835
s(g9
I7
tp836
(I33111
I32509
tp837
s(g9
I4
tp838
(I33122
I32556
tp839
s(g14
I6
tp840
(I33075
I32514
tp841
s(g14
I8
tp842
(I33013
I32452
tp843
s(g6
I2
tp844
(I33136
I31659
tp845
ssba(iSample
Sample
p846
(dp847
g3
F1440430932.319889
sg4
(dp848
(g6
I5
tp849
(I33177
I31684
tp850
s(g9
I7
tp851
(I33137
I32535
tp852
s(g9
I4
tp853
(I33148
I32582
tp854
s(g14
I6
tp855
(I33101
I32540
tp856
s(g14
I8
tp857
(I33039
I32478
tp858
s(g6
I2
tp859
(I33162
I31685
tp860
ssba(iSample
Sample
p861
(dp862
g3
F1440430935.783715
sg4
(dp863
(g6
I5
tp864
(I33203
I31709
tp865
s(g9
I7
tp866
(I33163
I32561
tp867
s(g9
I4
tp868
(I33174
I32608
tp869
s(g14
I6
tp870
(I33128
I32567
tp871
s(g14
I8
tp872
(I33066
I32505
tp873
s(g6
I2
tp874
(I33188
I31710
tp875
ssba(iSample
Sample
p876
(dp877
g3
F1440430939.501112
sg4
(dp878
(g6
I5
tp879
(I33229
I31733
tp880
s(g9
I7
tp881
(I33189
I32587
tp882
s(g9
I4
tp883
(I33200
I32634
tp884
s(g14
I6
tp885
(I33153
I32592
tp886
s(g14
I8
tp887
(I33091
I32530
tp888
s(g6
I2
tp889
(I33214
I31735
tp890
ssba(iSample
Sample
p891
(dp892
g3
F1440430942.854787
sg4
(dp893
(g6
I5
tp894
(I33253
I31756
tp895
s(g9
I7
tp896
(I33213
I32611
tp897
s(g9
I4
tp898
(I33224
I32658
tp899
s(g14
I6
tp900
(I33180
I32618
tp901
s(g14
I8
tp902
(I33118
I32557
tp903
s(g6
I2
tp904
(I33238
I31759
tp905
ssba.