(lp0
(iSample
Sample
p1
(dp2
S'timeStamp'
p3
F1440592254.486856
sS'moteSignal'
p4
(dp5
S'f53b'
p6
(I-59
I107
tp7
sS'8031'
p8
(I-52
I107
tp9
sS'8054'
p10
(I-63
I107
tp11
ssS'moteData'
p12
(dp13
(g8
I8
tp14
(I19792
I19372
tp15
s(g6
I2
tp16
(I19660
I19267
tp17
s(g10
I6
tp18
(I19818
I19478
tp19
s(g10
I4
tp20
(I19804
I19456
tp21
s(g6
I7
tp22
(I19736
I19322
tp23
s(g8
I3
tp24
(I19781
I19334
tp25
ssba(iSample
Sample
p26
(dp27
g3
F1440592257.80733
sg4
(dp28
g6
(I-55
I107
tp29
sg8
(I-55
I107
tp30
sg10
(I-67
I107
tp31
ssg12
(dp32
(g8
I8
tp33
(I19815
I19395
tp34
s(g6
I2
tp35
(I19683
I19289
tp36
s(g10
I6
tp37
(I19841
I19500
tp38
s(g10
I4
tp39
(I19827
I19479
tp40
s(g6
I7
tp41
(I19759
I19345
tp42
s(g8
I3
tp43
(I19804
I19357
tp44
ssba(iSample
Sample
p45
(dp46
g3
F1440592260.723741
sg4
(dp47
g6
(I-57
I107
tp48
sg8
(I-53
I107
tp49
sg10
(I-61
I107
tp50
ssg12
(dp51
(g8
I8
tp52
(I19990
I19566
tp53
s(g6
I2
tp54
(I19858
I19460
tp55
s(g10
I6
tp56
(I20016
I19674
tp57
s(g10
I4
tp58
(I20002
I19652
tp59
s(g6
I7
tp60
(I19934
I19514
tp61
s(g8
I3
tp62
(I19979
I19530
tp63
ssba(iSample
Sample
p64
(dp65
g3
F1440592284.358208
sg4
(dp66
g6
(I-57
I107
tp67
sg8
(I-59
I107
tp68
sg10
(I-64
I107
tp69
ssg12
(dp70
(g8
I8
tp71
(I20012
I19588
tp72
s(g6
I2
tp73
(I19881
I19482
tp74
s(g10
I6
tp75
(I20038
I19696
tp76
s(g10
I4
tp77
(I20024
I19674
tp78
s(g6
I7
tp79
(I19957
I19535
tp80
s(g8
I3
tp81
(I20001
I19552
tp82
ssba(iSample
Sample
p83
(dp84
g3
F1440592287.468761
sg4
(dp85
g6
(I-62
I107
tp86
sg8
(I-55
I107
tp87
sg10
(I-58
I107
tp88
ssg12
(dp89
(g8
I8
tp90
(I20245
I19819
tp91
s(g6
I2
tp92
(I20113
I19701
tp93
s(g10
I6
tp94
(I20061
I19719
tp95
s(g10
I4
tp96
(I20047
I19697
tp97
s(g6
I7
tp98
(I20189
I19761
tp99
s(g8
I3
tp100
(I20234
I19782
tp101
ssba(iSample
Sample
p102
(dp103
g3
F1440592318.836057
sg4
(dp104
g6
(I-60
I107
tp105
sg8
(I-59
I107
tp106
sg10
(I-59
I106
tp107
ssg12
(dp108
(g8
I8
tp109
(I20267
I19841
tp110
s(g6
I2
tp111
(I20135
I19723
tp112
s(g10
I6
tp113
(I20293
I19941
tp114
s(g10
I4
tp115
(I20279
I19921
tp116
s(g6
I7
tp117
(I20211
I19783
tp118
s(g8
I3
tp119
(I20256
I19804
tp120
ssba(iSample
Sample
p121
(dp122
g3
F1440592321.803766
sg4
(dp123
g6
(I-53
I107
tp124
sg8
(I-57
I107
tp125
sg10
(I-56
I107
tp126
ssg12
(dp127
(g8
I8
tp128
(I20289
I19863
tp129
s(g6
I2
tp130
(I20157
I19745
tp131
s(g10
I6
tp132
(I20315
I19963
tp133
s(g10
I4
tp134
(I20301
I19943
tp135
s(g6
I7
tp136
(I20233
I19804
tp137
s(g8
I3
tp138
(I20278
I19825
tp139
ssba(iSample
Sample
p140
(dp141
g3
F1440592324.765056
sg4
(dp142
g6
(I-58
I107
tp143
sg8
(I-52
I107
tp144
sg10
(I-57
I107
tp145
ssg12
(dp146
(g8
I8
tp147
(I20312
I19886
tp148
s(g6
I2
tp149
(I20180
I19768
tp150
s(g10
I6
tp151
(I20338
I19986
tp152
s(g10
I4
tp153
(I20324
I19966
tp154
s(g6
I7
tp155
(I20256
I19826
tp156
s(g8
I3
tp157
(I20301
I19847
tp158
ssba(iSample
Sample
p159
(dp160
g3
F1440592327.887553
sg4
(dp161
g6
(I-59
I107
tp162
sg8
(I-58
I107
tp163
sg10
(I-58
I107
tp164
ssg12
(dp165
(g8
I8
tp166
(I20335
I19909
tp167
s(g6
I2
tp168
(I20203
I19791
tp169
s(g10
I6
tp170
(I20361
I20008
tp171
s(g10
I4
tp172
(I20347
I19989
tp173
s(g6
I7
tp174
(I20279
I19849
tp175
s(g8
I3
tp176
(I20324
I19870
tp177
ssba(iSample
Sample
p178
(dp179
g3
F1440592330.957182
sg4
(dp180
g6
(I-60
I107
tp181
sg8
(I-57
I107
tp182
sg10
(I-58
I107
tp183
ssg12
(dp184
(g8
I8
tp185
(I20357
I19931
tp186
s(g6
I2
tp187
(I20225
I19813
tp188
s(g10
I6
tp189
(I20383
I20030
tp190
s(g10
I4
tp191
(I20369
I20011
tp192
s(g6
I7
tp193
(I20301
I19871
tp194
s(g8
I3
tp195
(I20346
I19892
tp196
ssba(iSample
Sample
p197
(dp198
g3
F1440592333.936181
sg4
(dp199
g6
(I-58
I106
tp200
sg8
(I-59
I107
tp201
sg10
(I-62
I107
tp202
ssg12
(dp203
(g8
I8
tp204
(I20383
I19957
tp205
s(g6
I2
tp206
(I20252
I19839
tp207
s(g10
I6
tp208
(I20406
I20053
tp209
s(g10
I4
tp210
(I20392
I20033
tp211
s(g6
I7
tp212
(I20328
I19898
tp213
s(g8
I3
tp214
(I20372
I19917
tp215
ssba(iSample
Sample
p216
(dp217
g3
F1440592337.612642
sg4
(dp218
g6
(I-56
I107
tp219
sg8
(I-52
I107
tp220
sg10
(I-58
I107
tp221
ssg12
(dp222
(g8
I8
tp223
(I20406
I19980
tp224
s(g6
I2
tp225
(I20274
I19860
tp226
s(g10
I6
tp227
(I20432
I20079
tp228
s(g10
I4
tp229
(I20418
I20058
tp230
s(g6
I7
tp231
(I20350
I19920
tp232
s(g8
I3
tp233
(I20395
I19939
tp234
ssba(iSample
Sample
p235
(dp236
g3
F1440592340.59434
sg4
(dp237
g6
(I-56
I107
tp238
sg8
(I-54
I107
tp239
sg10
(I-59
I107
tp240
ssg12
(dp241
(g8
I8
tp242
(I20429
I20003
tp243
s(g6
I2
tp244
(I20297
I19883
tp245
s(g10
I6
tp246
(I20455
I20101
tp247
s(g10
I4
tp248
(I20441
I20081
tp249
s(g6
I7
tp250
(I20373
I19943
tp251
s(g8
I3
tp252
(I20418
I19961
tp253
ssba(iSample
Sample
p254
(dp255
g3
F1440592343.703484
sg4
(dp256
g6
(I-56
I107
tp257
sg8
(I-55
I107
tp258
sg10
(I-57
I107
tp259
ssg12
(dp260
(g8
I8
tp261
(I20451
I20025
tp262
s(g6
I2
tp263
(I20319
I19905
tp264
s(g10
I6
tp265
(I20477
I20123
tp266
s(g10
I4
tp267
(I20463
I20103
tp268
s(g6
I7
tp269
(I20395
I19965
tp270
s(g8
I3
tp271
(I20440
I19983
tp272
ssba(iSample
Sample
p273
(dp274
g3
F1440592346.620891
sg4
(dp275
g6
(I-59
I107
tp276
sg8
(I-56
I107
tp277
sg10
(I-61
I107
tp278
ssg12
(dp279
(g8
I8
tp280
(I20473
I20047
tp281
s(g6
I2
tp282
(I20341
I19927
tp283
s(g10
I6
tp284
(I20499
I20145
tp285
s(g10
I4
tp286
(I20485
I20124
tp287
s(g6
I7
tp288
(I20417
I19987
tp289
s(g8
I3
tp290
(I20462
I20004
tp291
ssba(iSample
Sample
p292
(dp293
g3
F1440592349.592867
sg4
(dp294
g6
(I-60
I107
tp295
sg8
(I-58
I107
tp296
sg10
(I-58
I107
tp297
ssg12
(dp298
(g8
I8
tp299
(I20495
I20068
tp300
s(g6
I2
tp301
(I20363
I19949
tp302
s(g10
I6
tp303
(I20521
I20167
tp304
s(g10
I4
tp305
(I20507
I20146
tp306
s(g6
I7
tp307
(I20439
I20009
tp308
s(g8
I3
tp309
(I20484
I20025
tp310
ssba(iSample
Sample
p311
(dp312
g3
F1440592352.58555
sg4
(dp313
g6
(I-59
I107
tp314
sg8
(I-58
I107
tp315
sg10
(I-58
I107
tp316
ssg12
(dp317
(g8
I8
tp318
(I20517
I20090
tp319
s(g6
I2
tp320
(I20385
I19971
tp321
s(g10
I6
tp322
(I20543
I20189
tp323
s(g10
I4
tp324
(I20529
I20168
tp325
s(g6
I7
tp326
(I20461
I20031
tp327
s(g8
I3
tp328
(I20506
I20047
tp329
ssba(iSample
Sample
p330
(dp331
g3
F1440592355.545201
sg4
(dp332
g6
(I-57
I107
tp333
sg8
(I-57
I107
tp334
sg10
(I-59
I107
tp335
ssg12
(dp336
(g8
I8
tp337
(I20539
I20110
tp338
s(g6
I2
tp339
(I20408
I19994
tp340
s(g10
I6
tp341
(I20565
I20211
tp342
s(g10
I4
tp343
(I20551
I20190
tp344
s(g6
I7
tp345
(I20484
I20054
tp346
s(g8
I3
tp347
(I20528
I20069
tp348
ssba(iSample
Sample
p349
(dp350
g3
F1440592358.70464
sg4
(dp351
g6
(I-57
I106
tp352
sg8
(I-62
I107
tp353
sg10
(I-58
I106
tp354
ssg12
(dp355
(g8
I8
tp356
(I20562
I20133
tp357
s(g6
I2
tp358
(I20430
I20016
tp359
s(g10
I6
tp360
(I20588
I20234
tp361
s(g10
I4
tp362
(I20574
I20213
tp363
s(g6
I7
tp364
(I20506
I20075
tp365
s(g8
I3
tp366
(I20551
I20092
tp367
ssba(iSample
Sample
p368
(dp369
g3
F1440592361.616679
sg4
(dp370
g6
(I-55
I107
tp371
sg8
(I-60
I107
tp372
sg10
(I-61
I107
tp373
ssg12
(dp374
(g8
I8
tp375
(I20588
I20159
tp376
s(g6
I2
tp377
(I20458
I20044
tp378
s(g10
I6
tp379
(I20611
I20257
tp380
s(g10
I4
tp381
(I20597
I20236
tp382
s(g6
I7
tp383
(I20534
I20102
tp384
s(g8
I3
tp385
(I20577
I20117
tp386
ssba(iSample
Sample
p387
(dp388
g3
F1440592365.39826
sg4
(dp389
g6
(I-53
I107
tp390
sg8
(I-57
I107
tp391
sg10
(I-60
I107
tp392
ssg12
(dp393
(g8
I8
tp394
(I20612
I20183
tp395
s(g6
I2
tp396
(I20480
I20065
tp397
s(g10
I6
tp398
(I20638
I20283
tp399
s(g10
I4
tp400
(I20624
I20263
tp401
s(g6
I7
tp402
(I20556
I20124
tp403
s(g8
I3
tp404
(I20601
I20141
tp405
ssba(iSample
Sample
p406
(dp407
g3
F1440592368.358997
sg4
(dp408
g6
(I-56
I106
tp409
sg8
(I-51
I107
tp410
sg10
(I-61
I107
tp411
ssg12
(dp412
(g8
I8
tp413
(I20634
I20205
tp414
s(g6
I2
tp415
(I20502
I20087
tp416
s(g10
I6
tp417
(I20660
I20305
tp418
s(g10
I4
tp419
(I20646
I20285
tp420
s(g6
I7
tp421
(I20578
I20145
tp422
s(g8
I3
tp423
(I20623
I20163
tp424
ssba(iSample
Sample
p425
(dp426
g3
F1440592371.368538
sg4
(dp427
g6
(I-54
I107
tp428
sg8
(I-52
I107
tp429
sg10
(I-58
I107
tp430
ssg12
(dp431
(g8
I8
tp432
(I20656
I20226
tp433
s(g6
I2
tp434
(I20525
I20109
tp435
s(g10
I6
tp436
(I20682
I20327
tp437
s(g10
I4
tp438
(I20668
I20307
tp439
s(g6
I7
tp440
(I20601
I20168
tp441
s(g8
I3
tp442
(I20645
I20185
tp443
ssba(iSample
Sample
p444
(dp445
g3
F1440592374.42485
sg4
(dp446
g6
(I-57
I107
tp447
sg8
(I-58
I107
tp448
sg10
(I-58
I107
tp449
ssg12
(dp450
(g8
I8
tp451
(I20681
I20251
tp452
s(g6
I2
tp453
(I20549
I20133
tp454
s(g10
I6
tp455
(I20707
I20352
tp456
s(g10
I4
tp457
(I20693
I20332
tp458
s(g6
I7
tp459
(I20625
I20191
tp460
s(g8
I3
tp461
(I20670
I20210
tp462
ssba(iSample
Sample
p463
(dp464
g3
F1440592377.689165
sg4
(dp465
g6
(I-55
I107
tp466
sg8
(I-61
I107
tp467
sg10
(I-59
I107
tp468
ssg12
(dp469
(g8
I8
tp470
(I20703
I20273
tp471
s(g6
I2
tp472
(I20571
I20155
tp473
s(g10
I6
tp474
(I20729
I20374
tp475
s(g10
I4
tp476
(I20715
I20354
tp477
s(g6
I7
tp478
(I20647
I20212
tp479
s(g8
I3
tp480
(I20692
I20232
tp481
ssba(iSample
Sample
p482
(dp483
g3
F1440592380.652145
sg4
(dp484
g6
(I-62
I107
tp485
sg8
(I-56
I107
tp486
sg10
(I-59
I107
tp487
ssg12
(dp488
(g8
I8
tp489
(I20725
I20295
tp490
s(g6
I2
tp491
(I20593
I20176
tp492
s(g10
I6
tp493
(I20751
I20396
tp494
s(g10
I4
tp495
(I20737
I20376
tp496
s(g6
I7
tp497
(I20669
I20233
tp498
s(g8
I3
tp499
(I20714
I20254
tp500
ssba(iSample
Sample
p501
(dp502
g3
F1440592383.611987
sg4
(dp503
g6
(I-63
I107
tp504
sg8
(I-56
I107
tp505
sg10
(I-59
I107
tp506
ssg12
(dp507
(g8
I8
tp508
(I20747
I20317
tp509
s(g6
I2
tp510
(I20615
I20198
tp511
s(g10
I6
tp512
(I20773
I20418
tp513
s(g10
I4
tp514
(I20759
I20397
tp515
s(g6
I7
tp516
(I20691
I20255
tp517
s(g8
I3
tp518
(I20736
I20276
tp519
ssba(iSample
Sample
p520
(dp521
g3
F1440592386.633187
sg4
(dp522
g6
(I-57
I107
tp523
sg8
(I-53
I107
tp524
sg10
(I-58
I107
tp525
ssg12
(dp526
(g8
I8
tp527
(I20769
I20339
tp528
s(g6
I2
tp529
(I20637
I20219
tp530
s(g10
I6
tp531
(I20795
I20440
tp532
s(g10
I4
tp533
(I20781
I20419
tp534
s(g6
I7
tp535
(I20713
I20277
tp536
s(g8
I3
tp537
(I20758
I20298
tp538
ssba(iSample
Sample
p539
(dp540
g3
F1440592389.621141
sg4
(dp541
g6
(I-57
I107
tp542
sg8
(I-55
I107
tp543
sg10
(I-59
I107
tp544
ssg12
(dp545
(g8
I8
tp546
(I20791
I20361
tp547
s(g6
I2
tp548
(I20659
I20241
tp549
s(g10
I6
tp550
(I20817
I20462
tp551
s(g10
I4
tp552
(I20803
I20440
tp553
s(g6
I7
tp554
(I20735
I20299
tp555
s(g8
I3
tp556
(I20780
I20320
tp557
ssba(iSample
Sample
p558
(dp559
g3
F1440592392.597065
sg4
(dp560
g6
(I-65
I107
tp561
sg8
(I-58
I107
tp562
sg10
(I-60
I107
tp563
ssg12
(dp564
(g8
I8
tp565
(I20818
I20388
tp566
s(g6
I2
tp567
(I20686
I20267
tp568
s(g10
I6
tp569
(I20839
I20483
tp570
s(g10
I4
tp571
(I20825
I20460
tp572
s(g6
I7
tp573
(I20762
I20326
tp574
s(g8
I3
tp575
(I20807
I20347
tp576
ssba(iSample
Sample
p577
(dp578
g3
F1440592396.220746
sg4
(dp579
g6
(I-63
I107
tp580
sg8
(I-51
I107
tp581
sg10
(I-57
I107
tp582
ssg12
(dp583
(g8
I8
tp584
(I20840
I20410
tp585
s(g6
I2
tp586
(I20708
I20289
tp587
s(g10
I6
tp588
(I20866
I20510
tp589
s(g10
I4
tp590
(I20852
I20486
tp591
s(g6
I7
tp592
(I20784
I20348
tp593
s(g8
I3
tp594
(I20829
I20369
tp595
ssba(iSample
Sample
p596
(dp597
g3
F1440592399.210299
sg4
(dp598
g6
(I-55
I107
tp599
sg8
(I-54
I107
tp600
sg10
(I-59
I107
tp601
ssg12
(dp602
(g8
I8
tp603
(I20862
I20431
tp604
s(g6
I2
tp605
(I20730
I20311
tp606
s(g10
I6
tp607
(I20888
I20530
tp608
s(g10
I4
tp609
(I20874
I20508
tp610
s(g6
I7
tp611
(I20806
I20369
tp612
s(g8
I3
tp613
(I20851
I20391
tp614
ssba(iSample
Sample
p615
(dp616
g3
F1440592402.205956
sg4
(dp617
g6
(I-57
I107
tp618
sg8
(I-55
I107
tp619
sg10
(I-57
I107
tp620
ssg12
(dp621
(g8
I8
tp622
(I20884
I20453
tp623
s(g6
I2
tp624
(I20752
I20333
tp625
s(g10
I6
tp626
(I20910
I20552
tp627
s(g10
I4
tp628
(I20896
I20529
tp629
s(g6
I7
tp630
(I20828
I20390
tp631
s(g8
I3
tp632
(I20873
I20413
tp633
ssba(iSample
Sample
p634
(dp635
g3
F1440592405.167562
sg4
(dp636
g6
(I-60
I107
tp637
sg8
(I-51
I107
tp638
sg10
(I-60
I107
tp639
ssg12
(dp640
(g8
I8
tp641
(I20906
I20475
tp642
s(g6
I2
tp643
(I20774
I20355
tp644
s(g10
I6
tp645
(I20932
I20574
tp646
s(g10
I4
tp647
(I20918
I20551
tp648
s(g6
I7
tp649
(I20850
I20412
tp650
s(g8
I3
tp651
(I20895
I20435
tp652
ssba(iSample
Sample
p653
(dp654
g3
F1440592408.239065
sg4
(dp655
g6
(I-59
I107
tp656
sg8
(I-56
I107
tp657
sg10
(I-58
I107
tp658
ssg12
(dp659
(g8
I8
tp660
(I21086
I20654
tp661
s(g6
I2
tp662
(I20954
I20526
tp663
s(g10
I6
tp664
(I20955
I20596
tp665
s(g10
I4
tp666
(I20941
I20574
tp667
s(g6
I7
tp668
(I21030
I20583
tp669
s(g8
I3
tp670
(I21075
I20615
tp671
ssba(iSample
Sample
p672
(dp673
g3
F1440592432.399994
sg4
(dp674
g6
(I-59
I107
tp675
sg8
(I-55
I107
tp676
sg10
(I-66
I107
tp677
ssg12
(dp678
(g8
I8
tp679
(I21108
I20676
tp680
s(g6
I2
tp681
(I20976
I20548
tp682
s(g10
I6
tp683
(I21134
I20770
tp684
s(g10
I4
tp685
(I21120
I20744
tp686
s(g6
I7
tp687
(I21052
I20603
tp688
s(g8
I3
tp689
(I21097
I20637
tp690
ssba(iSample
Sample
p691
(dp692
g3
F1440592435.377073
sg4
(dp693
g6
(I-59
I107
tp694
sg8
(I-58
I107
tp695
sg10
(I-66
I106
tp696
ssg12
(dp697
(g8
I8
tp698
(I21131
I20699
tp699
s(g6
I2
tp700
(I20999
I20570
tp701
s(g10
I6
tp702
(I21157
I20792
tp703
s(g10
I4
tp704
(I21143
I20765
tp705
s(g6
I7
tp706
(I21075
I20626
tp707
s(g8
I3
tp708
(I21120
I20660
tp709
ssba(iSample
Sample
p710
(dp711
g3
F1440592438.477866
sg4
(dp712
g6
(I-66
I107
tp713
sg8
(I-53
I107
tp714
sg10
(I-63
I107
tp715
ssg12
(dp716
(g8
I8
tp717
(I21153
I20721
tp718
s(g6
I2
tp719
(I21022
I20592
tp720
s(g10
I6
tp721
(I21179
I20814
tp722
s(g10
I4
tp723
(I21165
I20786
tp724
s(g6
I7
tp725
(I21098
I20648
tp726
s(g8
I3
tp727
(I21142
I20682
tp728
ssba(iSample
Sample
p729
(dp730
g3
F1440592441.604294
sg4
(dp731
g6
(I-61
I107
tp732
sg8
(I-51
I107
tp733
sg10
(I-62
I106
tp734
ssg12
(dp735
(g8
I8
tp736
(I21176
I20744
tp737
s(g6
I2
tp738
(I21044
I20613
tp739
s(g10
I6
tp740
(I21202
I20835
tp741
s(g10
I4
tp742
(I21188
I20806
tp743
s(g6
I7
tp744
(I21120
I20669
tp745
s(g8
I3
tp746
(I21165
I20705
tp747
ssba(iSample
Sample
p748
(dp749
g3
F1440592444.654579
sg4
(dp750
g6
(I-60
I106
tp751
sg8
(I-59
I107
tp752
sg10
(I-64
I107
tp753
ssg12
(dp754
(g8
I8
tp755
(I21199
I20767
tp756
s(g6
I2
tp757
(I21067
I20633
tp758
s(g10
I6
tp759
(I21225
I20857
tp760
s(g10
I4
tp761
(I21211
I20826
tp762
s(g6
I7
tp763
(I21143
I20689
tp764
s(g8
I3
tp765
(I21188
I20728
tp766
ssba(iSample
Sample
p767
(dp768
g3
F1440592447.651058
sg4
(dp769
g6
(I-66
I107
tp770
sg8
(I-53
I107
tp771
sg10
(I-68
I107
tp772
ssg12
(dp773
(g8
I8
tp774
(I21221
I20789
tp775
s(g6
I2
tp776
(I21089
I20655
tp777
s(g10
I6
tp778
(I21247
I20878
tp779
s(g10
I4
tp780
(I21233
I20847
tp781
s(g6
I7
tp782
(I21165
I20711
tp783
s(g8
I3
tp784
(I21210
I20750
tp785
ssba(iSample
Sample
p786
(dp787
g3
F1440592450.603998
sg4
(dp788
g6
(I-59
I107
tp789
sg8
(I-58
I107
tp790
sg10
(I-66
I107
tp791
ssg12
(dp792
(g8
I8
tp793
(I21243
I20811
tp794
s(g6
I2
tp795
(I21111
I20675
tp796
s(g10
I6
tp797
(I21269
I20898
tp798
s(g10
I4
tp799
(I21255
I20868
tp800
s(g6
I7
tp801
(I21187
I20732
tp802
s(g8
I3
tp803
(I21232
I20772
tp804
ssba(iSample
Sample
p805
(dp806
g3
F1440592453.602797
sg4
(dp807
g6
(I-61
I107
tp808
sg8
(I-52
I107
tp809
sg10
(I-63
I107
tp810
ssg12
(dp811
(g8
I8
tp812
(I21265
I20833
tp813
s(g6
I2
tp814
(I21135
I20698
tp815
s(g10
I6
tp816
(I21291
I20919
tp817
s(g10
I4
tp818
(I21277
I20889
tp819
s(g6
I7
tp820
(I21211
I20755
tp821
s(g8
I3
tp822
(I21254
I20794
tp823
ssba(iSample
Sample
p824
(dp825
g3
F1440592456.810563
sg4
(dp826
g6
(I-62
I101
tp827
sg8
(I-55
I107
tp828
sg10
(I-63
I107
tp829
ssg12
(dp830
(g8
I8
tp831
(I21289
I20857
tp832
s(g6
I2
tp833
(I21157
I20719
tp834
s(g10
I6
tp835
(I21315
I20940
tp836
s(g10
I4
tp837
(I21301
I20911
tp838
s(g6
I7
tp839
(I21233
I20777
tp840
s(g8
I3
tp841
(I21278
I20818
tp842
ssba(iSample
Sample
p843
(dp844
g3
F1440592459.827087
sg4
(dp845
g6
(I-59
I107
tp846
sg8
(I-56
I107
tp847
sg10
(I-61
I107
tp848
ssg12
(dp849
(g8
I8
tp850
(I21311
I20878
tp851
s(g6
I2
tp852
(I21179
I20741
tp853
s(g10
I6
tp854
(I21337
I20961
tp855
s(g10
I4
tp856
(I21323
I20931
tp857
s(g6
I7
tp858
(I21255
I20798
tp859
s(g8
I3
tp860
(I21300
I20840
tp861
ssba(iSample
Sample
p862
(dp863
g3
F1440592462.781619
sg4
(dp864
g6
(I-60
I107
tp865
sg8
(I-51
I107
tp866
sg10
(I-67
I107
tp867
ssg12
(dp868
(g8
I8
tp869
(I21336
I20902
tp870
s(g6
I2
tp871
(I21207
I20767
tp872
s(g10
I6
tp873
(I21359
I20982
tp874
s(g10
I4
tp875
(I21345
I20952
tp876
s(g6
I7
tp877
(I21283
I20825
tp878
s(g8
I3
tp879
(I21325
I20863
tp880
ssba(iSample
Sample
p881
(dp882
g3
F1440592466.600273
sg4
(dp883
g6
(I-55
I107
tp884
sg8
(I-52
I107
tp885
sg10
(I-61
I107
tp886
ssg12
(dp887
(g8
I8
tp888
(I21361
I20927
tp889
s(g6
I2
tp890
(I21229
I20788
tp891
s(g10
I6
tp892
(I21387
I21006
tp893
s(g10
I4
tp894
(I21373
I20976
tp895
s(g6
I7
tp896
(I21305
I20842
tp897
s(g8
I3
tp898
(I21350
I20887
tp899
ssba(iSample
Sample
p900
(dp901
g3
F1440592469.654258
sg4
(dp902
g6
(I-58
I107
tp903
sg8
(I-52
I107
tp904
sg10
(I-61
I107
tp905
ssg12
(dp906
(g8
I8
tp907
(I21384
I20950
tp908
s(g6
I2
tp909
(I21252
I20807
tp910
s(g10
I6
tp911
(I21410
I21029
tp912
s(g10
I4
tp913
(I21396
I20998
tp914
s(g6
I7
tp915
(I21328
I20863
tp916
s(g8
I3
tp917
(I21373
I20909
tp918
ssba(iSample
Sample
p919
(dp920
g3
F1440592472.611559
sg4
(dp921
g6
(I-54
I106
tp922
sg8
(I-56
I107
tp923
sg10
(I-67
I107
tp924
ssg12
(dp925
(g8
I8
tp926
(I21406
I20972
tp927
s(g6
I2
tp928
(I21274
I20826
tp929
s(g10
I6
tp930
(I21432
I21048
tp931
s(g10
I4
tp932
(I21418
I21018
tp933
s(g6
I7
tp934
(I21350
I20882
tp935
s(g8
I3
tp936
(I21395
I20931
tp937
ssba(iSample
Sample
p938
(dp939
g3
F1440592475.629106
sg4
(dp940
g6
(I-58
I107
tp941
sg8
(I-53
I107
tp942
sg10
(I-63
I107
tp943
ssg12
(dp944
(g8
I8
tp945
(I21429
I20995
tp946
s(g6
I2
tp947
(I21298
I20849
tp948
s(g10
I6
tp949
(I21454
I21069
tp950
s(g10
I4
tp951
(I21440
I21039
tp952
s(g6
I7
tp953
(I21374
I20904
tp954
s(g8
I3
tp955
(I21418
I20954
tp956
ssba(iSample
Sample
p957
(dp958
g3
F1440592478.835344
sg4
(dp959
g6
(I-63
I107
tp960
sg8
(I-62
I107
tp961
sg10
(I-68
I107
tp962
ssg12
(dp963
(g8
I8
tp964
(I21452
I21018
tp965
s(g6
I2
tp966
(I21320
I20869
tp967
s(g10
I6
tp968
(I21478
I21090
tp969
s(g10
I4
tp970
(I21464
I21060
tp971
s(g6
I7
tp972
(I21396
I20925
tp973
s(g8
I3
tp974
(I21441
I20977
tp975
ssba(iSample
Sample
p976
(dp977
g3
F1440592481.791652
sg4
(dp978
g6
(I-60
I107
tp979
sg8
(I-59
I106
tp980
sg10
(I-64
I107
tp981
ssg12
(dp982
(g8
I8
tp983
(I21474
I21040
tp984
s(g6
I2
tp985
(I21342
I20891
tp986
s(g10
I6
tp987
(I21500
I21112
tp988
s(g10
I4
tp989
(I21486
I21082
tp990
s(g6
I7
tp991
(I21418
I20945
tp992
s(g8
I3
tp993
(I21463
I20999
tp994
ssba(iSample
Sample
p995
(dp996
g3
F1440592484.793409
sg4
(dp997
g6
(I-61
I107
tp998
sg8
(I-52
I107
tp999
sg10
(I-59
I107
tp1000
ssg12
(dp1001
(g8
I8
tp1002
(I21496
I21061
tp1003
s(g6
I2
tp1004
(I21364
I20911
tp1005
s(g10
I6
tp1006
(I21522
I21133
tp1007
s(g10
I4
tp1008
(I21508
I21104
tp1009
s(g6
I7
tp1010
(I21440
I20966
tp1011
s(g8
I3
tp1012
(I21485
I21021
tp1013
ssba(iSample
Sample
p1014
(dp1015
g3
F1440592487.752405
sg4
(dp1016
g6
(I-56
I107
tp1017
sg8
(I-56
I107
tp1018
sg10
(I-65
I107
tp1019
ssg12
(dp1020
(g8
I8
tp1021
(I21518
I21083
tp1022
s(g6
I2
tp1023
(I21386
I20931
tp1024
s(g10
I6
tp1025
(I21544
I21155
tp1026
s(g10
I4
tp1027
(I21530
I21126
tp1028
s(g6
I7
tp1029
(I21462
I20985
tp1030
s(g8
I3
tp1031
(I21507
I21043
tp1032
ssba(iSample
Sample
p1033
(dp1034
g3
F1440592490.715433
sg4
(dp1035
g6
(I-73
I106
tp1036
sg8
(I-53
I107
tp1037
sg10
(I-66
I107
tp1038
ssg12
(dp1039
(g8
I8
tp1040
(I21541
I21105
tp1041
s(g6
I2
tp1042
(I21409
I20953
tp1043
s(g10
I6
tp1044
(I21566
I21177
tp1045
s(g10
I4
tp1046
(I21552
I21147
tp1047
s(g6
I7
tp1048
(I21485
I21007
tp1049
s(g8
I3
tp1050
(I21530
I21066
tp1051
ssba(iSample
Sample
p1052
(dp1053
g3
F1440592493.831434
sg4
(dp1054
g6
(I-61
I96
tp1055
sg8
(I-54
I107
tp1056
sg10
(I-63
I107
tp1057
ssg12
(dp1058
(g8
I8
tp1059
(I21563
I21126
tp1060
s(g6
I2
tp1061
(I21432
I20973
tp1062
s(g10
I6
tp1063
(I21589
I21199
tp1064
s(g10
I4
tp1065
(I21575
I21167
tp1066
s(g6
I7
tp1067
(I21508
I21030
tp1068
s(g8
I3
tp1069
(I21552
I21088
tp1070
ssba(iSample
Sample
p1071
(dp1072
g3
F1440592496.95291
sg4
(dp1073
g6
(I-59
I107
tp1074
sg8
(I-58
I107
tp1075
sg10
(I-68
I107
tp1076
ssg12
(dp1077
(g8
I8
tp1078
(I21586
I21148
tp1079
s(g6
I2
tp1080
(I21454
I20994
tp1081
s(g10
I6
tp1082
(I21612
I21219
tp1083
s(g10
I4
tp1084
(I21598
I21190
tp1085
s(g6
I7
tp1086
(I21530
I21050
tp1087
s(g8
I3
tp1088
(I21575
I21111
tp1089
ssba(iSample
Sample
p1090
(dp1091
g3
F1440592499.913408
sg4
(dp1092
g6
(I-69
I100
tp1093
sg8
(I-51
I107
tp1094
sg10
(I-65
I107
tp1095
ssg12
(dp1096
(g8
I8
tp1097
(I21608
I21170
tp1098
s(g6
I2
tp1099
(I21476
I21015
tp1100
s(g10
I6
tp1101
(I21634
I21239
tp1102
s(g10
I4
tp1103
(I21620
I21210
tp1104
s(g6
I7
tp1105
(I21552
I21071
tp1106
s(g8
I3
tp1107
(I21597
I21133
tp1108
ssba(iSample
Sample
p1109
(dp1110
g3
F1440592502.871385
sg4
(dp1111
g6
(I-58
I107
tp1112
sg8
(I-50
I107
tp1113
sg10
(I-64
I107
tp1114
ssg12
(dp1115
(g8
I8
tp1116
(I21633
I21195
tp1117
s(g6
I2
tp1118
(I21501
I21039
tp1119
s(g10
I6
tp1120
(I21656
I21259
tp1121
s(g10
I4
tp1122
(I21642
I21229
tp1123
s(g6
I7
tp1124
(I21577
I21094
tp1125
s(g8
I3
tp1126
(I21622
I21158
tp1127
ssba(iSample
Sample
p1128
(dp1129
g3
F1440592506.280209
sg4
(dp1130
g6
(I-58
I107
tp1131
sg8
(I-52
I106
tp1132
sg10
(I-63
I107
tp1133
ssg12
(dp1134
(g8
I8
tp1135
(I21655
I21217
tp1136
s(g6
I2
tp1137
(I21523
I21061
tp1138
s(g10
I6
tp1139
(I21681
I21283
tp1140
s(g10
I4
tp1141
(I21667
I21252
tp1142
s(g6
I7
tp1143
(I21599
I21116
tp1144
s(g8
I3
tp1145
(I21644
I21180
tp1146
ssba.