(lp0
(iSample
Sample
p1
(dp2
S'moteRSSI'
p3
(dp4
S'85d2'
p5
I-47
ssS'timeStamp'
p6
F1440509660.351977
sS'moteData'
p7
(dp8
(g5
I4
tp9
(I2666
I2645
tp10
s(g5
I5
tp11
(I2679
I2647
tp12
ssba(iSample
Sample
p13
(dp14
g3
(dp15
g5
I-67
ssg6
F1440509663.083004
sg7
(dp16
(g5
I4
tp17
(I2685
I2663
tp18
s(g5
I5
tp19
(I2698
I2664
tp20
ssba(iSample
Sample
p21
(dp22
g3
(dp23
g5
I-48
ssg6
F1440509665.504443
sg7
(dp24
(g5
I4
tp25
(I2703
I2681
tp26
s(g5
I5
tp27
(I2716
I2679
tp28
ssba(iSample
Sample
p29
(dp30
g3
(dp31
g5
I-73
ssg6
F1440509667.920177
sg7
(dp32
(g5
I4
tp33
(I2721
I2699
tp34
s(g5
I5
tp35
(I2734
I2695
tp36
ssba(iSample
Sample
p37
(dp38
g3
(dp39
g5
I-52
ssg6
F1440509670.365392
sg7
(dp40
(g5
I4
tp41
(I2739
I2716
tp42
s(g5
I5
tp43
(I2752
I2712
tp44
ssba(iSample
Sample
p45
(dp46
g3
(dp47
g5
I-74
ssg6
F1440509672.758113
sg7
(dp48
(g5
I4
tp49
(I2757
I2733
tp50
s(g5
I5
tp51
(I2770
I2730
tp52
ssba(iSample
Sample
p53
(dp54
g3
(dp55
g5
I-77
ssg6
F1440509675.210156
sg7
(dp56
(g5
I4
tp57
(I2775
I2749
tp58
s(g5
I5
tp59
(I2788
I2746
tp60
ssba(iSample
Sample
p61
(dp62
g3
(dp63
g5
I-81
ssg6
F1440509677.643574
sg7
(dp64
(g5
I4
tp65
(I2793
I2765
tp66
s(g5
I5
tp67
(I2806
I2762
tp68
ssba(iSample
Sample
p69
(dp70
g3
(dp71
g5
I-50
ssg6
F1440509680.061262
sg7
(dp72
(g5
I4
tp73
(I2811
I2782
tp74
s(g5
I5
tp75
(I2824
I2779
tp76
ssba(iSample
Sample
p77
(dp78
g3
(dp79
g5
I-64
ssg6
F1440509682.511563
sg7
(dp80
(g5
I4
tp81
(I2829
I2800
tp82
s(g5
I5
tp83
(I2842
I2797
tp84
ssba(iSample
Sample
p85
(dp86
g3
(dp87
g5
I-44
ssg6
F1440509684.918184
sg7
(dp88
(g5
I4
tp89
(I2847
I2818
tp90
s(g5
I5
tp91
(I2860
I2814
tp92
ssba(iSample
Sample
p93
(dp94
g3
(dp95
g5
I-60
ssg6
F1440509687.366444
sg7
(dp96
(g5
I4
tp97
(I2865
I2836
tp98
s(g5
I5
tp99
(I2878
I2831
tp100
ssba(iSample
Sample
p101
(dp102
g3
(dp103
g5
I-48
ssg6
F1440509689.806685
sg7
(dp104
(g5
I4
tp105
(I2883
I2854
tp106
s(g5
I5
tp107
(I2896
I2849
tp108
ssba(iSample
Sample
p109
(dp110
g3
(dp111
g5
I-70
ssg6
F1440509692.233424
sg7
(dp112
(g5
I4
tp113
(I2901
I2872
tp114
s(g5
I5
tp115
(I2914
I2867
tp116
ssba(iSample
Sample
p117
(dp118
g3
(dp119
g5
I-56
ssg6
F1440509694.694111
sg7
(dp120
(g5
I4
tp121
(I2919
I2889
tp122
s(g5
I5
tp123
(I2932
I2885
tp124
ssba(iSample
Sample
p125
(dp126
g3
(dp127
g5
I-53
ssg6
F1440509697.097166
sg7
(dp128
(g5
I4
tp129
(I2937
I2907
tp130
s(g5
I5
tp131
(I2950
I2903
tp132
ssba(iSample
Sample
p133
(dp134
g3
(dp135
g5
I-50
ssg6
F1440509699.531628
sg7
(dp136
(g5
I4
tp137
(I2955
I2925
tp138
s(g5
I5
tp139
(I2968
I2921
tp140
ssba(iSample
Sample
p141
(dp142
g3
(dp143
g5
I-46
ssg6
F1440509701.939504
sg7
(dp144
(g5
I4
tp145
(I2973
I2943
tp146
s(g5
I5
tp147
(I2986
I2939
tp148
ssba(iSample
Sample
p149
(dp150
g3
(dp151
g5
I-45
ssg6
F1440509704.397236
sg7
(dp152
(g5
I4
tp153
(I2991
I2961
tp154
s(g5
I5
tp155
(I3004
I2957
tp156
ssba(iSample
Sample
p157
(dp158
g3
(dp159
g5
I-49
ssg6
F1440509706.815469
sg7
(dp160
(g5
I4
tp161
(I3011
I2981
tp162
s(g5
I5
tp163
(I3024
I2977
tp164
ssba(iSample
Sample
p165
(dp166
g3
(dp167
g5
I-46
ssg6
F1440509709.509945
sg7
(dp168
(g5
I4
tp169
(I3029
I2999
tp170
s(g5
I5
tp171
(I3042
I2995
tp172
ssba(iSample
Sample
p173
(dp174
g3
(dp175
g5
I-51
ssg6
F1440509711.930356
sg7
(dp176
(g5
I4
tp177
(I3047
I3017
tp178
s(g5
I5
tp179
(I3060
I3013
tp180
ssba(iSample
Sample
p181
(dp182
g3
(dp183
g5
I-45
ssg6
F1440509714.382155
sg7
(dp184
(g5
I4
tp185
(I3065
I3035
tp186
s(g5
I5
tp187
(I3078
I3031
tp188
ssba(iSample
Sample
p189
(dp190
g3
(dp191
g5
I-48
ssg6
F1440509716.774484
sg7
(dp192
(g5
I4
tp193
(I3083
I3053
tp194
s(g5
I5
tp195
(I3096
I3049
tp196
ssba(iSample
Sample
p197
(dp198
g3
(dp199
g5
I-46
ssg6
F1440509719.231339
sg7
(dp200
(g5
I4
tp201
(I3101
I3071
tp202
s(g5
I5
tp203
(I3114
I3067
tp204
ssba(iSample
Sample
p205
(dp206
g3
(dp207
g5
I-46
ssg6
F1440509721.727768
sg7
(dp208
(g5
I4
tp209
(I3119
I3089
tp210
s(g5
I5
tp211
(I3132
I3085
tp212
ssba(iSample
Sample
p213
(dp214
g3
(dp215
g5
I-47
ssg6
F1440509724.094489
sg7
(dp216
(g5
I4
tp217
(I3137
I3107
tp218
s(g5
I5
tp219
(I3150
I3103
tp220
ssba(iSample
Sample
p221
(dp222
g3
(dp223
g5
I-50
ssg6
F1440509726.554791
sg7
(dp224
(g5
I4
tp225
(I3155
I3124
tp226
s(g5
I5
tp227
(I3168
I3121
tp228
ssba(iSample
Sample
p229
(dp230
g3
(dp231
g5
I-45
ssg6
F1440509728.980581
sg7
(dp232
(g5
I4
tp233
(I3173
I3142
tp234
s(g5
I5
tp235
(I3186
I3139
tp236
ssba(iSample
Sample
p237
(dp238
g3
(dp239
g5
I-50
ssg6
F1440509731.4187
sg7
(dp240
(g5
I4
tp241
(I3191
I3160
tp242
s(g5
I5
tp243
(I3204
I3157
tp244
ssba(iSample
Sample
p245
(dp246
g3
(dp247
g5
I-44
ssg6
F1440509733.834608
sg7
(dp248
(g5
I4
tp249
(I3209
I3178
tp250
s(g5
I5
tp251
(I3222
I3175
tp252
ssba(iSample
Sample
p253
(dp254
g3
(dp255
g5
I-47
ssg6
F1440509736.234814
sg7
(dp256
(g5
I4
tp257
(I3227
I3196
tp258
s(g5
I5
tp259
(I3240
I3193
tp260
ssba(iSample
Sample
p261
(dp262
g3
(dp263
g5
I-45
ssg6
F1440509738.688453
sg7
(dp264
(g5
I4
tp265
(I3245
I3214
tp266
s(g5
I5
tp267
(I3258
I3211
tp268
ssba(iSample
Sample
p269
(dp270
g3
(dp271
g5
I-45
ssg6
F1440509741.090255
sg7
(dp272
(g5
I4
tp273
(I3263
I3232
tp274
s(g5
I5
tp275
(I3276
I3229
tp276
ssba(iSample
Sample
p277
(dp278
g3
(dp279
g5
I-50
ssg6
F1440509743.558223
sg7
(dp280
(g5
I4
tp281
(I3281
I3250
tp282
s(g5
I5
tp283
(I3294
I3247
tp284
ssba(iSample
Sample
p285
(dp286
g3
(dp287
g5
I-49
ssg6
F1440509745.969048
sg7
(dp288
(g5
I4
tp289
(I3299
I3268
tp290
s(g5
I5
tp291
(I3312
I3265
tp292
ssba(iSample
Sample
p293
(dp294
g3
(dp295
g5
I-45
ssg6
F1440509748.438348
sg7
(dp296
(g5
I4
tp297
(I3317
I3286
tp298
s(g5
I5
tp299
(I3330
I3283
tp300
ssba(iSample
Sample
p301
(dp302
g3
(dp303
g5
I-59
ssg6
F1440509750.849646
sg7
(dp304
(g5
I4
tp305
(I3335
I3304
tp306
s(g5
I5
tp307
(I3348
I3301
tp308
ssba(iSample
Sample
p309
(dp310
g3
(dp311
g5
I-62
ssg6
F1440509753.286926
sg7
(dp312
(g5
I4
tp313
(I3353
I3322
tp314
s(g5
I5
tp315
(I3366
I3319
tp316
ssba(iSample
Sample
p317
(dp318
g3
(dp319
g5
I-52
ssg6
F1440509755.720656
sg7
(dp320
(g5
I4
tp321
(I3371
I3340
tp322
s(g5
I5
tp323
(I3384
I3337
tp324
ssba(iSample
Sample
p325
(dp326
g3
(dp327
g5
I-50
ssg6
F1440509758.144511
sg7
(dp328
(g5
I4
tp329
(I3391
I3360
tp330
s(g5
I5
tp331
(I3404
I3357
tp332
ssba(iSample
Sample
p333
(dp334
g3
(dp335
g5
I-59
ssg6
F1440509760.852892
sg7
(dp336
(g5
I4
tp337
(I3409
I3378
tp338
s(g5
I5
tp339
(I3422
I3375
tp340
ssba(iSample
Sample
p341
(dp342
g3
(dp343
g5
I-48
ssg6
F1440509763.259918
sg7
(dp344
(g5
I4
tp345
(I3427
I3396
tp346
s(g5
I5
tp347
(I3440
I3393
tp348
ssba(iSample
Sample
p349
(dp350
g3
(dp351
g5
I-48
ssg6
F1440509765.668822
sg7
(dp352
(g5
I4
tp353
(I3445
I3414
tp354
s(g5
I5
tp355
(I3458
I3411
tp356
ssba(iSample
Sample
p357
(dp358
g3
(dp359
g5
I-50
ssg6
F1440509768.148358
sg7
(dp360
(g5
I4
tp361
(I3464
I3433
tp362
s(g5
I5
tp363
(I3477
I3430
tp364
ssba(iSample
Sample
p365
(dp366
g3
(dp367
g5
I-51
ssg6
F1440509770.763101
sg7
(dp368
(g5
I4
tp369
(I3482
I3451
tp370
s(g5
I5
tp371
(I3495
I3448
tp372
ssba(iSample
Sample
p373
(dp374
g3
(dp375
g5
I-59
ssg6
F1440509773.109683
sg7
(dp376
(g5
I4
tp377
(I3500
I3467
tp378
s(g5
I5
tp379
(I3513
I3466
tp380
ssba(iSample
Sample
p381
(dp382
g3
(dp383
g5
I-49
ssg6
F1440509775.606219
sg7
(dp384
(g5
I4
tp385
(I3518
I3485
tp386
s(g5
I5
tp387
(I3531
I3483
tp388
ssba(iSample
Sample
p389
(dp390
g3
(dp391
g5
I-55
ssg6
F1440509777.955421
sg7
(dp392
(g5
I4
tp393
(I3537
I3504
tp394
s(g5
I5
tp395
(I3550
I3502
tp396
ssba(iSample
Sample
p397
(dp398
g3
(dp399
g5
I-46
ssg6
F1440509780.575293
sg7
(dp400
(g5
I4
tp401
(I3555
I3522
tp402
s(g5
I5
tp403
(I3568
I3520
tp404
ssba(iSample
Sample
p405
(dp406
g3
(dp407
g5
I-53
ssg6
F1440509783.009703
sg7
(dp408
(g5
I4
tp409
(I3573
I3540
tp410
s(g5
I5
tp411
(I3586
I3538
tp412
ssba(iSample
Sample
p413
(dp414
g3
(dp415
g5
I-58
ssg6
F1440509785.425874
sg7
(dp416
(g5
I4
tp417
(I3591
I3558
tp418
s(g5
I5
tp419
(I3604
I3556
tp420
ssba(iSample
Sample
p421
(dp422
g3
(dp423
g5
I-54
ssg6
F1440509787.831757
sg7
(dp424
(g5
I4
tp425
(I3609
I3576
tp426
s(g5
I5
tp427
(I3622
I3574
tp428
ssba(iSample
Sample
p429
(dp430
g3
(dp431
g5
I-53
ssg6
F1440509790.286594
sg7
(dp432
(g5
I4
tp433
(I3627
I3594
tp434
s(g5
I5
tp435
(I3640
I3592
tp436
ssba(iSample
Sample
p437
(dp438
g3
(dp439
g5
I-53
ssg6
F1440509792.690964
sg7
(dp440
(g5
I4
tp441
(I3646
I3613
tp442
s(g5
I5
tp443
(I3659
I3611
tp444
ssba(iSample
Sample
p445
(dp446
g3
(dp447
g5
I-54
ssg6
F1440509795.248389
sg7
(dp448
(g5
I4
tp449
(I3664
I3631
tp450
s(g5
I5
tp451
(I3677
I3629
tp452
ssba(iSample
Sample
p453
(dp454
g3
(dp455
g5
I-65
ssg6
F1440509797.74204
sg7
(dp456
(g5
I4
tp457
(I3682
I3649
tp458
s(g5
I5
tp459
(I3695
I3647
tp460
ssba(iSample
Sample
p461
(dp462
g3
(dp463
g5
I-48
ssg6
F1440509800.149025
sg7
(dp464
(g5
I4
tp465
(I3700
I3667
tp466
s(g5
I5
tp467
(I3713
I3665
tp468
ssba(iSample
Sample
p469
(dp470
g3
(dp471
g5
I-54
ssg6
F1440509802.541962
sg7
(dp472
(g5
I4
tp473
(I3718
I3685
tp474
s(g5
I5
tp475
(I3731
I3683
tp476
ssba(iSample
Sample
p477
(dp478
g3
(dp479
g5
I-50
ssg6
F1440509805.031425
sg7
(dp480
(g5
I4
tp481
(I3736
I3703
tp482
s(g5
I5
tp483
(I3749
I3701
tp484
ssba.