(lp0
(iSample
Sample
p1
(dp2
S'timeStamp'
p3
F1440591753.639444
sS'moteSignal'
p4
(dp5
S'f53b'
p6
(I-55
I107
tp7
sS'8031'
p8
(I-51
I107
tp9
sS'8054'
p10
(I-60
I107
tp11
ssS'moteData'
p12
(dp13
(g8
I8
tp14
(I16083
I15683
tp15
s(g6
I2
tp16
(I15951
I15688
tp17
s(g10
I6
tp18
(I16108
I15841
tp19
s(g10
I4
tp20
(I16094
I15804
tp21
s(g6
I7
tp22
(I16027
I15745
tp23
s(g8
I3
tp24
(I16072
I15651
tp25
ssba(iSample
Sample
p26
(dp27
g3
F1440591756.83797
sg4
(dp28
g6
(I-58
I107
tp29
sg8
(I-50
I107
tp30
sg10
(I-72
I107
tp31
ssg12
(dp32
(g8
I8
tp33
(I16106
I15706
tp34
s(g6
I2
tp35
(I15977
I15713
tp36
s(g10
I6
tp37
(I16132
I15865
tp38
s(g10
I4
tp39
(I16118
I15828
tp40
s(g6
I7
tp41
(I16053
I15770
tp42
s(g8
I3
tp43
(I16095
I15674
tp44
ssba(iSample
Sample
p45
(dp46
g3
F1440591760.261958
sg4
(dp47
g6
(I-54
I107
tp48
sg8
(I-52
I107
tp49
sg10
(I-61
I107
tp50
ssg12
(dp51
(g8
I8
tp52
(I16131
I15731
tp53
s(g6
I2
tp54
(I15999
I15732
tp55
s(g10
I6
tp56
(I16157
I15890
tp57
s(g10
I4
tp58
(I16143
I15853
tp59
s(g6
I7
tp60
(I16075
I15791
tp61
s(g8
I3
tp62
(I16120
I15699
tp63
ssba(iSample
Sample
p64
(dp65
g3
F1440591763.251038
sg4
(dp66
g6
(I-58
I107
tp67
sg8
(I-54
I107
tp68
sg10
(I-62
I107
tp69
ssg12
(dp70
(g8
I8
tp71
(I16153
I15753
tp72
s(g6
I2
tp73
(I16021
I15753
tp74
s(g10
I6
tp75
(I16179
I15912
tp76
s(g10
I4
tp77
(I16165
I15875
tp78
s(g6
I7
tp79
(I16097
I15811
tp80
s(g8
I3
tp81
(I16142
I15721
tp82
ssba(iSample
Sample
p83
(dp84
g3
F1440591766.18531
sg4
(dp85
g6
(I-60
I107
tp86
sg8
(I-53
I107
tp87
sg10
(I-62
I107
tp88
ssg12
(dp89
(g8
I8
tp90
(I16175
I15774
tp91
s(g6
I2
tp92
(I16043
I15774
tp93
s(g10
I6
tp94
(I16201
I15934
tp95
s(g10
I4
tp96
(I16187
I15897
tp97
s(g6
I7
tp98
(I16119
I15833
tp99
s(g8
I3
tp100
(I16164
I15743
tp101
ssba(iSample
Sample
p102
(dp103
g3
F1440591769.190664
sg4
(dp104
g6
(I-57
I107
tp105
sg8
(I-51
I107
tp106
sg10
(I-62
I107
tp107
ssg12
(dp108
(g8
I8
tp109
(I16198
I15797
tp110
s(g6
I2
tp111
(I16066
I15795
tp112
s(g10
I6
tp113
(I16224
I15957
tp114
s(g10
I4
tp115
(I16210
I15920
tp116
s(g6
I7
tp117
(I16142
I15854
tp118
s(g8
I3
tp119
(I16187
I15766
tp120
ssba(iSample
Sample
p121
(dp122
g3
F1440591772.283053
sg4
(dp123
g6
(I-61
I107
tp124
sg8
(I-58
I107
tp125
sg10
(I-66
I107
tp126
ssg12
(dp127
(g8
I8
tp128
(I16220
I15819
tp129
s(g6
I2
tp130
(I16088
I15815
tp131
s(g10
I6
tp132
(I16246
I15978
tp133
s(g10
I4
tp134
(I16232
I15942
tp135
s(g6
I7
tp136
(I16164
I15876
tp137
s(g8
I3
tp138
(I16209
I15788
tp139
ssba(iSample
Sample
p140
(dp141
g3
F1440591775.260571
sg4
(dp142
g6
(I-55
I106
tp143
sg8
(I-55
I106
tp144
sg10
(I-61
I107
tp145
ssg12
(dp146
(g8
I8
tp147
(I16242
I15841
tp148
s(g6
I2
tp149
(I16111
I15836
tp150
s(g10
I6
tp151
(I16268
I16000
tp152
s(g10
I4
tp153
(I16254
I15964
tp154
s(g6
I7
tp155
(I16187
I15898
tp156
s(g8
I3
tp157
(I16231
I15810
tp158
ssba(iSample
Sample
p159
(dp160
g3
F1440591778.324594
sg4
(dp161
g6
(I-58
I107
tp162
sg8
(I-55
I107
tp163
sg10
(I-62
I107
tp164
ssg12
(dp165
(g8
I8
tp166
(I16265
I15864
tp167
s(g6
I2
tp168
(I16133
I15858
tp169
s(g10
I6
tp170
(I16291
I16022
tp171
s(g10
I4
tp172
(I16277
I15986
tp173
s(g6
I7
tp174
(I16209
I15918
tp175
s(g8
I3
tp176
(I16254
I15833
tp177
ssba(iSample
Sample
p178
(dp179
g3
F1440591781.28423
sg4
(dp180
g6
(I-56
I107
tp181
sg8
(I-55
I107
tp182
sg10
(I-61
I107
tp183
ssg12
(dp184
(g8
I8
tp185
(I16287
I15886
tp186
s(g6
I2
tp187
(I16155
I15877
tp188
s(g10
I6
tp189
(I16313
I16043
tp190
s(g10
I4
tp191
(I16299
I16008
tp192
s(g6
I7
tp193
(I16231
I15938
tp194
s(g8
I3
tp195
(I16276
I15855
tp196
ssba(iSample
Sample
p197
(dp198
g3
F1440591784.257316
sg4
(dp199
g6
(I-66
I107
tp200
sg8
(I-53
I107
tp201
sg10
(I-61
I107
tp202
ssg12
(dp203
(g8
I8
tp204
(I16309
I15908
tp205
s(g6
I2
tp206
(I16177
I15899
tp207
s(g10
I6
tp208
(I16335
I16065
tp209
s(g10
I4
tp210
(I16321
I16029
tp211
s(g6
I7
tp212
(I16253
I15960
tp213
s(g8
I3
tp214
(I16298
I15877
tp215
ssba(iSample
Sample
p216
(dp217
g3
F1440591787.229605
sg4
(dp218
g6
(I-61
I107
tp219
sg8
(I-55
I107
tp220
sg10
(I-63
I107
tp221
ssg12
(dp222
(g8
I8
tp223
(I16331
I15930
tp224
s(g6
I2
tp225
(I16199
I15920
tp226
s(g10
I6
tp227
(I16357
I16087
tp228
s(g10
I4
tp229
(I16343
I16050
tp230
s(g6
I7
tp231
(I16275
I15982
tp232
s(g8
I3
tp233
(I16320
I15899
tp234
ssba(iSample
Sample
p235
(dp236
g3
F1440591790.235819
sg4
(dp237
g6
(I-56
I107
tp238
sg8
(I-52
I107
tp239
sg10
(I-62
I107
tp240
ssg12
(dp241
(g8
I8
tp242
(I16353
I15951
tp243
s(g6
I2
tp244
(I16223
I15943
tp245
s(g10
I6
tp246
(I16379
I16108
tp247
s(g10
I4
tp248
(I16365
I16072
tp249
s(g6
I7
tp250
(I16299
I16005
tp251
s(g8
I3
tp252
(I16342
I15921
tp253
ssba(iSample
Sample
p254
(dp255
g3
F1440591793.510009
sg4
(dp256
g6
(I-60
I107
tp257
sg8
(I-55
I107
tp258
sg10
(I-62
I107
tp259
ssg12
(dp260
(g8
I8
tp261
(I16377
I15974
tp262
s(g6
I2
tp263
(I16245
I15964
tp264
s(g10
I6
tp265
(I16403
I16131
tp266
s(g10
I4
tp267
(I16389
I16096
tp268
s(g6
I7
tp269
(I16321
I16027
tp270
s(g8
I3
tp271
(I16366
I15944
tp272
ssba(iSample
Sample
p273
(dp274
g3
F1440591796.432489
sg4
(dp275
g6
(I-59
I106
tp276
sg8
(I-59
I107
tp277
sg10
(I-59
I107
tp278
ssg12
(dp279
(g8
I8
tp280
(I16402
I15998
tp281
s(g6
I2
tp282
(I16270
I15989
tp283
s(g10
I6
tp284
(I16428
I16156
tp285
s(g10
I4
tp286
(I16414
I16121
tp287
s(g6
I7
tp288
(I16346
I16052
tp289
s(g8
I3
tp290
(I16391
I15969
tp291
ssba(iSample
Sample
p292
(dp293
g3
F1440591799.808657
sg4
(dp294
g6
(I-59
I107
tp295
sg8
(I-54
I107
tp296
sg10
(I-59
I107
tp297
ssg12
(dp298
(g8
I8
tp299
(I16425
I16021
tp300
s(g6
I2
tp301
(I16293
I16011
tp302
s(g10
I6
tp303
(I16450
I16178
tp304
s(g10
I4
tp305
(I16436
I16143
tp306
s(g6
I7
tp307
(I16369
I16075
tp308
s(g8
I3
tp309
(I16414
I15991
tp310
ssba(iSample
Sample
p311
(dp312
g3
F1440591802.913731
sg4
(dp313
g6
(I-62
I106
tp314
sg8
(I-56
I107
tp315
sg10
(I-63
I107
tp316
ssg12
(dp317
(g8
I8
tp318
(I16447
I16043
tp319
s(g6
I2
tp320
(I16315
I16033
tp321
s(g10
I6
tp322
(I16473
I16201
tp323
s(g10
I4
tp324
(I16459
I16165
tp325
s(g6
I7
tp326
(I16391
I16095
tp327
s(g8
I3
tp328
(I16436
I16013
tp329
ssba(iSample
Sample
p330
(dp331
g3
F1440591805.87208
sg4
(dp332
g6
(I-65
I107
tp333
sg8
(I-53
I105
tp334
sg10
(I-60
I107
tp335
ssg12
(dp336
(g8
I8
tp337
(I16469
I16065
tp338
s(g6
I2
tp339
(I16337
I16055
tp340
s(g10
I6
tp341
(I16495
I16223
tp342
s(g10
I4
tp343
(I16481
I16187
tp344
s(g6
I7
tp345
(I16413
I16116
tp346
s(g8
I3
tp347
(I16458
I16034
tp348
ssba(iSample
Sample
p349
(dp350
g3
F1440591808.844766
sg4
(dp351
g6
(I-58
I107
tp352
sg8
(I-58
I107
tp353
sg10
(I-66
I107
tp354
ssg12
(dp355
(g8
I8
tp356
(I16491
I16087
tp357
s(g6
I2
tp358
(I16359
I16077
tp359
s(g10
I6
tp360
(I16517
I16245
tp361
s(g10
I4
tp362
(I16503
I16209
tp363
s(g6
I7
tp364
(I16435
I16138
tp365
s(g8
I3
tp366
(I16480
I16056
tp367
ssba(iSample
Sample
p368
(dp369
g3
F1440591811.822329
sg4
(dp370
g6
(I-63
I107
tp371
sg8
(I-57
I107
tp372
sg10
(I-65
I107
tp373
ssg12
(dp374
(g8
I8
tp375
(I16514
I16110
tp376
s(g6
I2
tp377
(I16382
I16099
tp378
s(g10
I6
tp379
(I16539
I16266
tp380
s(g10
I4
tp381
(I16525
I16231
tp382
s(g6
I7
tp383
(I16458
I16160
tp384
s(g8
I3
tp385
(I16503
I16079
tp386
ssba(iSample
Sample
p387
(dp388
g3
F1440591814.965964
sg4
(dp389
g6
(I-55
I107
tp390
sg8
(I-52
I104
tp391
sg10
(I-67
I107
tp392
ssg12
(dp393
(g8
I8
tp394
(I16536
I16132
tp395
s(g6
I2
tp396
(I16404
I16121
tp397
s(g10
I6
tp398
(I16562
I16289
tp399
s(g10
I4
tp400
(I16548
I16254
tp401
s(g6
I7
tp402
(I16480
I16182
tp403
s(g8
I3
tp404
(I16525
I16101
tp405
ssba(iSample
Sample
p406
(dp407
g3
F1440591817.91725
sg4
(dp408
g6
(I-55
I107
tp409
sg8
(I-57
I107
tp410
sg10
(I-67
I107
tp411
ssg12
(dp412
(g8
I8
tp413
(I16558
I16154
tp414
s(g6
I2
tp415
(I16426
I16143
tp416
s(g10
I6
tp417
(I16584
I16310
tp418
s(g10
I4
tp419
(I16570
I16276
tp420
s(g6
I7
tp421
(I16502
I16204
tp422
s(g8
I3
tp423
(I16547
I16123
tp424
ssba(iSample
Sample
p425
(dp426
g3
F1440591820.884631
sg4
(dp427
g6
(I-56
I107
tp428
sg8
(I-54
I107
tp429
sg10
(I-69
I107
tp430
ssg12
(dp431
(g8
I8
tp432
(I16580
I16176
tp433
s(g6
I2
tp434
(I16448
I16165
tp435
s(g10
I6
tp436
(I16606
I16331
tp437
s(g10
I4
tp438
(I16592
I16298
tp439
s(g6
I7
tp440
(I16524
I16226
tp441
s(g8
I3
tp442
(I16569
I16145
tp443
ssba(iSample
Sample
p444
(dp445
g3
F1440591823.904502
sg4
(dp446
g6
(I-59
I107
tp447
sg8
(I-52
I107
tp448
sg10
(I-64
I107
tp449
ssg12
(dp450
(g8
I8
tp451
(I16602
I16198
tp452
s(g6
I2
tp453
(I16470
I16187
tp454
s(g10
I6
tp455
(I16628
I16352
tp456
s(g10
I4
tp457
(I16614
I16319
tp458
s(g6
I7
tp459
(I16546
I16248
tp460
s(g8
I3
tp461
(I16591
I16167
tp462
ssba(iSample
Sample
p463
(dp464
g3
F1440591826.828034
sg4
(dp465
g6
(I-62
I107
tp466
sg8
(I-54
I107
tp467
sg10
(I-64
I107
tp468
ssg12
(dp469
(g8
I8
tp470
(I16624
I16220
tp471
s(g6
I2
tp472
(I16492
I16209
tp473
s(g10
I6
tp474
(I16650
I16373
tp475
s(g10
I4
tp476
(I16636
I16340
tp477
s(g6
I7
tp478
(I16568
I16270
tp479
s(g8
I3
tp480
(I16613
I16189
tp481
ssba(iSample
Sample
p482
(dp483
g3
F1440591829.852229
sg4
(dp484
g6
(I-58
I107
tp485
sg8
(I-53
I107
tp486
sg10
(I-63
I107
tp487
ssg12
(dp488
(g8
I8
tp489
(I16646
I16242
tp490
s(g6
I2
tp491
(I16514
I16231
tp492
s(g10
I6
tp493
(I16672
I16394
tp494
s(g10
I4
tp495
(I16658
I16362
tp496
s(g6
I7
tp497
(I16590
I16292
tp498
s(g8
I3
tp499
(I16635
I16211
tp500
ssba(iSample
Sample
p501
(dp502
g3
F1440591832.787297
sg4
(dp503
g6
(I-64
I107
tp504
sg8
(I-59
I107
tp505
sg10
(I-62
I107
tp506
ssg12
(dp507
(g8
I8
tp508
(I16668
I16264
tp509
s(g6
I2
tp510
(I16536
I16252
tp511
s(g10
I6
tp512
(I16694
I16416
tp513
s(g10
I4
tp514
(I16680
I16384
tp515
s(g6
I7
tp516
(I16612
I16313
tp517
s(g8
I3
tp518
(I16657
I16233
tp519
ssba(iSample
Sample
p520
(dp521
g3
F1440591835.755287
sg4
(dp522
g6
(I-60
I107
tp523
sg8
(I-60
I107
tp524
sg10
(I-64
I107
tp525
ssg12
(dp526
(g8
I8
tp527
(I16690
I16286
tp528
s(g6
I2
tp529
(I16721
I16434
tp530
s(g10
I6
tp531
(I16716
I16438
tp532
s(g10
I4
tp533
(I16702
I16406
tp534
s(g6
I7
tp535
(I16797
I16492
tp536
s(g8
I3
tp537
(I16679
I16255
tp538
ssba(iSample
Sample
p539
(dp540
g3
F1440591860.763606
sg4
(dp541
g6
(I-58
I105
tp542
sg8
(I-57
I107
tp543
sg10
(I-64
I107
tp544
ssg12
(dp545
(g8
I8
tp546
(I16875
I16470
tp547
s(g6
I2
tp548
(I16743
I16453
tp549
s(g10
I6
tp550
(I16901
I16613
tp551
s(g10
I4
tp552
(I16887
I16583
tp553
s(g6
I7
tp554
(I16819
I16513
tp555
s(g8
I3
tp556
(I16864
I16440
tp557
ssba(iSample
Sample
p558
(dp559
g3
F1440591863.694663
sg4
(dp560
g6
(I-63
I105
tp561
sg8
(I-54
I107
tp562
sg10
(I-59
I107
tp563
ssg12
(dp564
(g8
I8
tp565
(I16897
I16492
tp566
s(g6
I2
tp567
(I16952
I16654
tp568
s(g10
I6
tp569
(I16923
I16635
tp570
s(g10
I4
tp571
(I16909
I16603
tp572
s(g6
I7
tp573
(I17028
I16712
tp574
s(g8
I3
tp575
(I16886
I16462
tp576
ssba(iSample
Sample
p577
(dp578
g3
F1440591891.905166
sg4
(dp579
g6
(I-61
I107
tp580
sg8
(I-52
I107
tp581
sg10
(I-62
I107
tp582
ssg12
(dp583
(g8
I8
tp584
(I17296
I16890
tp585
s(g6
I2
tp586
(I17164
I16861
tp587
s(g10
I6
tp588
(I17321
I17023
tp589
s(g10
I4
tp590
(I17307
I16993
tp591
s(g6
I7
tp592
(I17240
I16915
tp593
s(g8
I3
tp594
(I17285
I16861
tp595
ssba(iSample
Sample
p596
(dp597
g3
F1440591920.548651
sg4
(dp598
g6
(I-60
I107
tp599
sg8
(I-52
I107
tp600
sg10
(I-60
I107
tp601
ssg12
(dp602
(g8
I8
tp603
(I17320
I16914
tp604
s(g6
I2
tp605
(I17189
I16885
tp606
s(g10
I6
tp607
(I17346
I17047
tp608
s(g10
I4
tp609
(I17332
I17017
tp610
s(g6
I7
tp611
(I17265
I16940
tp612
s(g8
I3
tp613
(I17309
I16885
tp614
ssba(iSample
Sample
p615
(dp616
g3
F1440591923.95713
sg4
(dp617
g6
(I-60
I106
tp618
sg8
(I-56
I107
tp619
sg10
(I-62
I107
tp620
ssg12
(dp621
(g8
I8
tp622
(I17343
I16937
tp623
s(g6
I2
tp624
(I17211
I16906
tp625
s(g10
I6
tp626
(I17369
I17069
tp627
s(g10
I4
tp628
(I17355
I17039
tp629
s(g6
I7
tp630
(I17287
I16961
tp631
s(g8
I3
tp632
(I17332
I16908
tp633
ssba(iSample
Sample
p634
(dp635
g3
F1440591926.898646
sg4
(dp636
g6
(I-56
I107
tp637
sg8
(I-51
I107
tp638
sg10
(I-62
I107
tp639
ssg12
(dp640
(g8
I8
tp641
(I17367
I16961
tp642
s(g6
I2
tp643
(I17235
I16930
tp644
s(g10
I6
tp645
(I17391
I17091
tp646
s(g10
I4
tp647
(I17377
I17061
tp648
s(g6
I7
tp649
(I17311
I16984
tp650
s(g8
I3
tp651
(I17356
I16932
tp652
ssba(iSample
Sample
p653
(dp654
g3
F1440591930.11975
sg4
(dp655
g6
(I-56
I107
tp656
sg8
(I-56
I107
tp657
sg10
(I-58
I107
tp658
ssg12
(dp659
(g8
I8
tp660
(I17389
I16983
tp661
s(g6
I2
tp662
(I17257
I16952
tp663
s(g10
I6
tp664
(I17415
I17115
tp665
s(g10
I4
tp666
(I17401
I17084
tp667
s(g6
I7
tp668
(I17333
I17005
tp669
s(g8
I3
tp670
(I17378
I16954
tp671
ssba(iSample
Sample
p672
(dp673
g3
F1440591933.106388
sg4
(dp674
g6
(I-56
I107
tp675
sg8
(I-55
I107
tp676
sg10
(I-59
I107
tp677
ssg12
(dp678
(g8
I8
tp679
(I17411
I17005
tp680
s(g6
I2
tp681
(I17279
I16974
tp682
s(g10
I6
tp683
(I17437
I17137
tp684
s(g10
I4
tp685
(I17423
I17106
tp686
s(g6
I7
tp687
(I17355
I17027
tp688
s(g8
I3
tp689
(I17400
I16976
tp690
ssba(iSample
Sample
p691
(dp692
g3
F1440591936.146862
sg4
(dp693
g6
(I-56
I107
tp694
sg8
(I-56
I107
tp695
sg10
(I-57
I107
tp696
ssg12
(dp697
(g8
I8
tp698
(I17433
I17027
tp699
s(g6
I2
tp700
(I17301
I16995
tp701
s(g10
I6
tp702
(I17459
I17159
tp703
s(g10
I4
tp704
(I17445
I17128
tp705
s(g6
I7
tp706
(I17377
I17049
tp707
s(g8
I3
tp708
(I17422
I16998
tp709
ssba(iSample
Sample
p710
(dp711
g3
F1440591939.064749
sg4
(dp712
g6
(I-57
I107
tp713
sg8
(I-59
I107
tp714
sg10
(I-61
I107
tp715
ssg12
(dp716
(g8
I8
tp717
(I17455
I17049
tp718
s(g6
I2
tp719
(I17323
I17016
tp720
s(g10
I6
tp721
(I17481
I17181
tp722
s(g10
I4
tp723
(I17467
I17150
tp724
s(g6
I7
tp725
(I17399
I17071
tp726
s(g8
I3
tp727
(I17444
I17020
tp728
ssba(iSample
Sample
p729
(dp730
g3
F1440591942.015833
sg4
(dp731
g6
(I-58
I107
tp732
sg8
(I-55
I107
tp733
sg10
(I-59
I107
tp734
ssg12
(dp735
(g8
I8
tp736
(I17477
I17071
tp737
s(g6
I2
tp738
(I17345
I17038
tp739
s(g10
I6
tp740
(I17503
I17203
tp741
s(g10
I4
tp742
(I17489
I17172
tp743
s(g6
I7
tp744
(I17421
I17093
tp745
s(g8
I3
tp746
(I17466
I17041
tp747
ssba(iSample
Sample
p748
(dp749
g3
F1440591944.962088
sg4
(dp750
g6
(I-58
I107
tp751
sg8
(I-58
I106
tp752
sg10
(I-57
I107
tp753
ssg12
(dp754
(g8
I8
tp755
(I17499
I17092
tp756
s(g6
I2
tp757
(I17367
I17060
tp758
s(g10
I6
tp759
(I17525
I17225
tp760
s(g10
I4
tp761
(I17511
I17194
tp762
s(g6
I7
tp763
(I17443
I17115
tp764
s(g8
I3
tp765
(I17488
I17063
tp766
ssba(iSample
Sample
p767
(dp768
g3
F1440591948.000652
sg4
(dp769
g6
(I-56
I107
tp770
sg8
(I-58
I107
tp771
sg10
(I-61
I107
tp772
ssg12
(dp773
(g8
I8
tp774
(I17529
I17122
tp775
s(g6
I2
tp776
(I17397
I17090
tp777
s(g10
I6
tp778
(I17547
I17247
tp779
s(g10
I4
tp780
(I17533
I17216
tp781
s(g6
I7
tp782
(I17473
I17145
tp783
s(g8
I3
tp784
(I17518
I17093
tp785
ssba(iSample
Sample
p786
(dp787
g3
F1440591952.007285
sg4
(dp788
g6
(I-58
I107
tp789
sg8
(I-56
I107
tp790
sg10
(I-64
I107
tp791
ssg12
(dp792
(g8
I8
tp793
(I17551
I17144
tp794
s(g6
I2
tp795
(I17419
I17111
tp796
s(g10
I6
tp797
(I17577
I17277
tp798
s(g10
I4
tp799
(I17563
I17246
tp800
s(g6
I7
tp801
(I17495
I17167
tp802
s(g8
I3
tp803
(I17540
I17115
tp804
ssba(iSample
Sample
p805
(dp806
g3
F1440591954.970381
sg4
(dp807
g6
(I-63
I107
tp808
sg8
(I-53
I107
tp809
sg10
(I-65
I107
tp810
ssg12
(dp811
(g8
I8
tp812
(I17573
I17166
tp813
s(g6
I2
tp814
(I17441
I17130
tp815
s(g10
I6
tp816
(I17599
I17297
tp817
s(g10
I4
tp818
(I17585
I17268
tp819
s(g6
I7
tp820
(I17517
I17189
tp821
s(g8
I3
tp822
(I17562
I17137
tp823
ssba(iSample
Sample
p824
(dp825
g3
F1440591957.941649
sg4
(dp826
g6
(I-65
I107
tp827
sg8
(I-58
I106
tp828
sg10
(I-65
I107
tp829
ssg12
(dp830
(g8
I8
tp831
(I17595
I17188
tp832
s(g6
I2
tp833
(I17468
I17155
tp834
s(g10
I6
tp835
(I17621
I17317
tp836
s(g10
I4
tp837
(I17607
I17289
tp838
s(g6
I7
tp839
(I17544
I17214
tp840
s(g8
I3
tp841
(I17584
I17159
tp842
ssba(iSample
Sample
p843
(dp844
g3
F1440591961.610891
sg4
(dp845
g6
(I-59
I107
tp846
sg8
(I-53
I107
tp847
sg10
(I-65
I107
tp848
ssg12
(dp849
(g8
I8
tp850
(I17622
I17215
tp851
s(g6
I2
tp852
(I17490
I17177
tp853
s(g10
I6
tp854
(I17648
I17344
tp855
s(g10
I4
tp856
(I17634
I17315
tp857
s(g6
I7
tp858
(I17566
I17235
tp859
s(g8
I3
tp860
(I17611
I17186
tp861
ssba(iSample
Sample
p862
(dp863
g3
F1440591964.559576
sg4
(dp864
g6
(I-66
I107
tp865
sg8
(I-60
I107
tp866
sg10
(I-64
I106
tp867
ssg12
(dp868
(g8
I8
tp869
(I17644
I17237
tp870
s(g6
I2
tp871
(I17512
I17198
tp872
s(g10
I6
tp873
(I17670
I17365
tp874
s(g10
I4
tp875
(I17656
I17337
tp876
s(g6
I7
tp877
(I17588
I17256
tp878
s(g8
I3
tp879
(I17633
I17208
tp880
ssba(iSample
Sample
p881
(dp882
g3
F1440591967.512607
sg4
(dp883
g6
(I-62
I107
tp884
sg8
(I-58
I107
tp885
sg10
(I-66
I107
tp886
ssg12
(dp887
(g8
I8
tp888
(I17666
I17259
tp889
s(g6
I2
tp890
(I17534
I17217
tp891
s(g10
I6
tp892
(I17692
I17387
tp893
s(g10
I4
tp894
(I17678
I17359
tp895
s(g6
I7
tp896
(I17610
I17275
tp897
s(g8
I3
tp898
(I17655
I17230
tp899
ssba(iSample
Sample
p900
(dp901
g3
F1440591970.513589
sg4
(dp902
g6
(I-65
I107
tp903
sg8
(I-51
I107
tp904
sg10
(I-62
I107
tp905
ssg12
(dp906
(g8
I8
tp907
(I17688
I17281
tp908
s(g6
I2
tp909
(I17556
I17239
tp910
s(g10
I6
tp911
(I17714
I17409
tp912
s(g10
I4
tp913
(I17700
I17379
tp914
s(g6
I7
tp915
(I17632
I17295
tp916
s(g8
I3
tp917
(I17677
I17250
tp918
ssba(iSample
Sample
p919
(dp920
g3
F1440591973.467877
sg4
(dp921
g6
(I-63
I107
tp922
sg8
(I-56
I107
tp923
sg10
(I-61
I107
tp924
ssg12
(dp925
(g8
I8
tp926
(I17710
I17303
tp927
s(g6
I2
tp928
(I17579
I17260
tp929
s(g10
I6
tp930
(I17736
I17430
tp931
s(g10
I4
tp932
(I17722
I17400
tp933
s(g6
I7
tp934
(I17655
I17317
tp935
s(g8
I3
tp936
(I17699
I17271
tp937
ssba(iSample
Sample
p938
(dp939
g3
F1440591976.578051
sg4
(dp940
g6
(I-61
I107
tp941
sg8
(I-55
I107
tp942
sg10
(I-62
I107
tp943
ssg12
(dp944
(g8
I8
tp945
(I17733
I17326
tp946
s(g6
I2
tp947
(I17601
I17281
tp948
s(g10
I6
tp949
(I17759
I17453
tp950
s(g10
I4
tp951
(I17745
I17423
tp952
s(g6
I7
tp953
(I17677
I17339
tp954
s(g8
I3
tp955
(I17722
I17294
tp956
ssba(iSample
Sample
p957
(dp958
g3
F1440591979.529174
sg4
(dp959
g6
(I-58
I107
tp960
sg8
(I-59
I107
tp961
sg10
(I-61
I106
tp962
ssg12
(dp963
(g8
I8
tp964
(I17755
I17348
tp965
s(g6
I2
tp966
(I17623
I17301
tp967
s(g10
I6
tp968
(I17781
I17475
tp969
s(g10
I4
tp970
(I17767
I17445
tp971
s(g6
I7
tp972
(I17699
I17360
tp973
s(g8
I3
tp974
(I17744
I17316
tp975
ssba(iSample
Sample
p976
(dp977
g3
F1440591982.530438
sg4
(dp978
g6
(I-57
I107
tp979
sg8
(I-56
I107
tp980
sg10
(I-67
I107
tp981
ssg12
(dp982
(g8
I8
tp983
(I17777
I17369
tp984
s(g6
I2
tp985
(I17645
I17322
tp986
s(g10
I6
tp987
(I17803
I17497
tp988
s(g10
I4
tp989
(I17789
I17466
tp990
s(g6
I7
tp991
(I17721
I17381
tp992
s(g8
I3
tp993
(I17766
I17336
tp994
ssba(iSample
Sample
p995
(dp996
g3
F1440591985.491737
sg4
(dp997
g6
(I-57
I107
tp998
sg8
(I-53
I107
tp999
sg10
(I-58
I107
tp1000
ssg12
(dp1001
(g8
I8
tp1002
(I17799
I17391
tp1003
s(g6
I2
tp1004
(I17667
I17343
tp1005
s(g10
I6
tp1006
(I17825
I17519
tp1007
s(g10
I4
tp1008
(I17811
I17488
tp1009
s(g6
I7
tp1010
(I17743
I17402
tp1011
s(g8
I3
tp1012
(I17788
I17358
tp1013
ssba(iSample
Sample
p1014
(dp1015
g3
F1440591988.446052
sg4
(dp1016
g6
(I-60
I107
tp1017
sg8
(I-56
I107
tp1018
sg10
(I-60
I107
tp1019
ssg12
(dp1020
(g8
I8
tp1021
(I17821
I17412
tp1022
s(g6
I2
tp1023
(I17694
I17369
tp1024
s(g10
I6
tp1025
(I17847
I17541
tp1026
s(g10
I4
tp1027
(I17833
I17510
tp1028
s(g6
I7
tp1029
(I17770
I17429
tp1030
s(g8
I3
tp1031
(I17810
I17380
tp1032
ssba(iSample
Sample
p1033
(dp1034
g3
F1440591992.113095
sg4
(dp1035
g6
(I-55
I107
tp1036
sg8
(I-58
I107
tp1037
sg10
(I-62
I107
tp1038
ssg12
(dp1039
(g8
I8
tp1040
(I17849
I17440
tp1041
s(g6
I2
tp1042
(I17717
I17391
tp1043
s(g10
I6
tp1044
(I17874
I17568
tp1045
s(g10
I4
tp1046
(I17860
I17537
tp1047
s(g6
I7
tp1048
(I17793
I17452
tp1049
s(g8
I3
tp1050
(I17838
I17408
tp1051
ssba(iSample
Sample
p1052
(dp1053
g3
F1440591995.225664
sg4
(dp1054
g6
(I-62
I106
tp1055
sg8
(I-59
I107
tp1056
sg10
(I-57
I107
tp1057
ssg12
(dp1058
(g8
I8
tp1059
(I17871
I17462
tp1060
s(g6
I2
tp1061
(I17739
I17411
tp1062
s(g10
I6
tp1063
(I17897
I17590
tp1064
s(g10
I4
tp1065
(I17883
I17559
tp1066
s(g6
I7
tp1067
(I17815
I17473
tp1068
s(g8
I3
tp1069
(I17860
I17430
tp1070
ssba(iSample
Sample
p1071
(dp1072
g3
F1440591998.216267
sg4
(dp1073
g6
(I-56
I107
tp1074
sg8
(I-53
I107
tp1075
sg10
(I-59
I107
tp1076
ssg12
(dp1077
(g8
I8
tp1078
(I17894
I17484
tp1079
s(g6
I2
tp1080
(I17762
I17434
tp1081
s(g10
I6
tp1082
(I17920
I17613
tp1083
s(g10
I4
tp1084
(I17906
I17582
tp1085
s(g6
I7
tp1086
(I17838
I17495
tp1087
s(g8
I3
tp1088
(I17883
I17452
tp1089
ssba(iSample
Sample
p1090
(dp1091
g3
F1440592001.275475
sg4
(dp1092
g6
(I-58
I107
tp1093
sg8
(I-63
I107
tp1094
sg10
(I-57
I107
tp1095
ssg12
(dp1096
(g8
I8
tp1097
(I17916
I17506
tp1098
s(g6
I2
tp1099
(I17785
I17453
tp1100
s(g10
I6
tp1101
(I17942
I17635
tp1102
s(g10
I4
tp1103
(I17928
I17603
tp1104
s(g6
I7
tp1105
(I17861
I17517
tp1106
s(g8
I3
tp1107
(I17905
I17474
tp1108
ssba(iSample
Sample
p1109
(dp1110
g3
F1440592004.379639
sg4
(dp1111
g6
(I-55
I107
tp1112
sg8
(I-54
I107
tp1113
sg10
(I-66
I107
tp1114
ssg12
(dp1115
(g8
I8
tp1116
(I17939
I17529
tp1117
s(g6
I2
tp1118
(I17807
I17474
tp1119
s(g10
I6
tp1120
(I17965
I17658
tp1121
s(g10
I4
tp1122
(I17951
I17626
tp1123
s(g6
I7
tp1124
(I17883
I17536
tp1125
s(g8
I3
tp1126
(I17928
I17497
tp1127
ssba(iSample
Sample
p1128
(dp1129
g3
F1440592007.397861
sg4
(dp1130
g6
(I-57
I107
tp1131
sg8
(I-57
I107
tp1132
sg10
(I-58
I107
tp1133
ssg12
(dp1134
(g8
I8
tp1135
(I17961
I17551
tp1136
s(g6
I2
tp1137
(I17829
I17494
tp1138
s(g10
I6
tp1139
(I17987
I17679
tp1140
s(g10
I4
tp1141
(I17973
I17647
tp1142
s(g6
I7
tp1143
(I17905
I17556
tp1144
s(g8
I3
tp1145
(I17950
I17519
tp1146
ssba.