(lp0
(iSample
Sample
p1
(dp2
S'timeStamp'
p3
F1440426474.049095
sS'moteData'
p4
(dp5
(S'8031'
p6
I5
tp7
(I160
I153
tp8
s(S'8054'
p9
I7
tp10
(I125
I124
tp11
s(g9
I4
tp12
(I136
I135
tp13
s(S'85d2'
p14
I6
tp15
(I88
I82
tp16
s(g14
I8
tp17
(I26
I24
tp18
s(g6
I2
tp19
(I145
I141
tp20
ssba(iSample
Sample
p21
(dp22
g3
F1440426477.246401
sg4
(dp23
(g6
I5
tp24
(I189
I180
tp25
s(g9
I7
tp26
(I154
I153
tp27
s(g9
I4
tp28
(I165
I164
tp29
s(g14
I6
tp30
(I117
I111
tp31
s(g14
I8
tp32
(I55
I53
tp33
s(g6
I2
tp34
(I174
I168
tp35
ssba(iSample
Sample
p36
(dp37
g3
F1440426481.121677
sg4
(dp38
(g6
I5
tp39
(I213
I203
tp40
s(g9
I7
tp41
(I178
I177
tp42
s(g9
I4
tp43
(I189
I188
tp44
s(g14
I6
tp45
(I141
I135
tp46
s(g14
I8
tp47
(I79
I76
tp48
s(g6
I2
tp49
(I198
I190
tp50
ssba(iSample
Sample
p51
(dp52
g3
F1440426484.334632
sg4
(dp53
(g6
I5
tp54
(I236
I224
tp55
s(g9
I7
tp56
(I201
I200
tp57
s(g9
I4
tp58
(I212
I211
tp59
s(g14
I6
tp60
(I164
I157
tp61
s(g14
I8
tp62
(I102
I98
tp63
s(g6
I2
tp64
(I221
I213
tp65
ssba(iSample
Sample
p66
(dp67
g3
F1440426487.388088
sg4
(dp68
(g6
I5
tp69
(I265
I251
tp70
s(g9
I7
tp71
(I230
I229
tp72
s(g9
I4
tp73
(I241
I240
tp74
s(g14
I6
tp75
(I193
I185
tp76
s(g14
I8
tp77
(I131
I126
tp78
s(g6
I2
tp79
(I250
I242
tp80
ssba(iSample
Sample
p81
(dp82
g3
F1440426491.350231
sg4
(dp83
(g6
I5
tp84
(I288
I272
tp85
s(g9
I7
tp86
(I253
I252
tp87
s(g9
I4
tp88
(I264
I263
tp89
s(g14
I6
tp90
(I216
I207
tp91
s(g14
I8
tp92
(I154
I148
tp93
s(g6
I2
tp94
(I273
I265
tp95
ssba(iSample
Sample
p96
(dp97
g3
F1440426494.459358
sg4
(dp98
(g6
I5
tp99
(I311
I294
tp100
s(g9
I7
tp101
(I276
I275
tp102
s(g9
I4
tp103
(I287
I286
tp104
s(g14
I6
tp105
(I239
I228
tp106
s(g14
I8
tp107
(I177
I169
tp108
s(g6
I2
tp109
(I296
I287
tp110
ssba(iSample
Sample
p111
(dp112
g3
F1440426497.514304
sg4
(dp113
(g6
I5
tp114
(I337
I319
tp115
s(g9
I7
tp116
(I305
I304
tp117
s(g9
I4
tp118
(I316
I315
tp119
s(g14
I6
tp120
(I268
I257
tp121
s(g14
I8
tp122
(I206
I197
tp123
s(g6
I2
tp124
(I322
I312
tp125
ssba(iSample
Sample
p126
(dp127
g3
F1440426501.500935
sg4
(dp128
(g6
I5
tp129
(I373
I354
tp130
s(g9
I7
tp131
(I338
I336
tp132
s(g9
I4
tp133
(I349
I348
tp134
s(g14
I6
tp135
(I301
I288
tp136
s(g14
I8
tp137
(I239
I229
tp138
s(g6
I2
tp139
(I358
I346
tp140
ssba(iSample
Sample
p141
(dp142
g3
F1440426505.908903
sg4
(dp143
(g6
I5
tp144
(I396
I376
tp145
s(g9
I7
tp146
(I361
I358
tp147
s(g9
I4
tp148
(I372
I371
tp149
s(g14
I6
tp150
(I324
I307
tp151
s(g14
I8
tp152
(I262
I250
tp153
s(g6
I2
tp154
(I381
I369
tp155
ssba(iSample
Sample
p156
(dp157
g3
F1440426509.011655
sg4
(dp158
(g6
I5
tp159
(I419
I399
tp160
s(g9
I7
tp161
(I384
I381
tp162
s(g9
I4
tp163
(I395
I394
tp164
s(g14
I6
tp165
(I347
I330
tp166
s(g14
I8
tp167
(I285
I270
tp168
s(g6
I2
tp169
(I404
I392
tp170
ssba(iSample
Sample
p171
(dp172
g3
F1440426512.131235
sg4
(dp173
(g6
I5
tp174
(I442
I420
tp175
s(g9
I7
tp176
(I407
I404
tp177
s(g9
I4
tp178
(I418
I417
tp179
s(g14
I6
tp180
(I370
I350
tp181
s(g14
I8
tp182
(I308
I291
tp183
s(g6
I2
tp184
(I427
I413
tp185
ssba(iSample
Sample
p186
(dp187
g3
F1440426515.237707
sg4
(dp188
(g6
I5
tp189
(I465
I441
tp190
s(g9
I7
tp191
(I430
I426
tp192
s(g9
I4
tp193
(I441
I440
tp194
s(g14
I6
tp195
(I396
I376
tp196
s(g14
I8
tp197
(I334
I315
tp198
s(g6
I2
tp199
(I450
I436
tp200
ssba(iSample
Sample
p201
(dp202
g3
F1440426518.750713
sg4
(dp203
(g6
I5
tp204
(I491
I466
tp205
s(g9
I7
tp206
(I456
I452
tp207
s(g9
I4
tp208
(I467
I465
tp209
s(g14
I6
tp210
(I419
I395
tp211
s(g14
I8
tp212
(I357
I335
tp213
s(g6
I2
tp214
(I476
I460
tp215
ssba(iSample
Sample
p216
(dp217
g3
F1440426521.879263
sg4
(dp218
(g6
I5
tp219
(I514
I487
tp220
s(g9
I7
tp221
(I479
I475
tp222
s(g9
I4
tp223
(I490
I487
tp224
s(g14
I6
tp225
(I442
I417
tp226
s(g14
I8
tp227
(I380
I358
tp228
s(g6
I2
tp229
(I499
I483
tp230
ssba(iSample
Sample
p231
(dp232
g3
F1440426524.928107
sg4
(dp233
(g6
I5
tp234
(I537
I509
tp235
s(g9
I7
tp236
(I502
I497
tp237
s(g9
I4
tp238
(I513
I509
tp239
s(g14
I6
tp240
(I465
I437
tp241
s(g14
I8
tp242
(I403
I379
tp243
s(g6
I2
tp244
(I522
I504
tp245
ssba(iSample
Sample
p246
(dp247
g3
F1440426528.079594
sg4
(dp248
(g6
I5
tp249
(I563
I534
tp250
s(g9
I7
tp251
(I529
I523
tp252
s(g9
I4
tp253
(I540
I536
tp254
s(g14
I6
tp255
(I492
I461
tp256
s(g14
I8
tp257
(I430
I405
tp258
s(g6
I2
tp259
(I548
I530
tp260
ssba(iSample
Sample
p261
(dp262
g3
F1440426531.719692
sg4
(dp263
(g6
I5
tp264
(I587
I556
tp265
s(g9
I7
tp266
(I552
I546
tp267
s(g9
I4
tp268
(I563
I558
tp269
s(g14
I6
tp270
(I515
I481
tp271
s(g14
I8
tp272
(I453
I426
tp273
s(g6
I2
tp274
(I572
I553
tp275
ssba(iSample
Sample
p276
(dp277
g3
F1440426534.889009
sg4
(dp278
(g6
I5
tp279
(I611
I580
tp280
s(g9
I7
tp281
(I576
I568
tp282
s(g9
I4
tp283
(I587
I581
tp284
s(g14
I6
tp285
(I539
I505
tp286
s(g14
I8
tp287
(I477
I448
tp288
s(g6
I2
tp289
(I596
I576
tp290
ssba(iSample
Sample
p291
(dp292
g3
F1440426538.081729
sg4
(dp293
(g6
I5
tp294
(I634
I601
tp295
s(g9
I7
tp296
(I602
I592
tp297
s(g9
I4
tp298
(I613
I605
tp299
s(g14
I6
tp300
(I565
I528
tp301
s(g14
I8
tp302
(I503
I473
tp303
s(g6
I2
tp304
(I619
I597
tp305
ssba(iSample
Sample
p306
(dp307
g3
F1440426541.63898
sg4
(dp308
(g6
I5
tp309
(I661
I624
tp310
s(g9
I7
tp311
(I628
I616
tp312
s(g9
I4
tp313
(I639
I628
tp314
s(g14
I6
tp315
(I591
I552
tp316
s(g14
I8
tp317
(I529
I494
tp318
s(g6
I2
tp319
(I646
I621
tp320
ssba(iSample
Sample
p321
(dp322
g3
F1440426545.095155
sg4
(dp323
(g6
I5
tp324
(I686
I646
tp325
s(g9
I7
tp326
(I651
I637
tp327
s(g9
I4
tp328
(I662
I651
tp329
s(g14
I6
tp330
(I616
I575
tp331
s(g14
I8
tp332
(I554
I518
tp333
s(g6
I2
tp334
(I671
I646
tp335
ssba(iSample
Sample
p336
(dp337
g3
F1440426548.504135
sg4
(dp338
(g6
I5
tp339
(I712
I672
tp340
s(g9
I7
tp341
(I678
I663
tp342
s(g9
I4
tp343
(I689
I677
tp344
s(g14
I6
tp345
(I642
I599
tp346
s(g14
I8
tp347
(I580
I543
tp348
s(g6
I2
tp349
(I697
I670
tp350
ssba(iSample
Sample
p351
(dp352
g3
F1440426552.016225
sg4
(dp353
(g6
I5
tp354
(I738
I696
tp355
s(g9
I7
tp356
(I705
I690
tp357
s(g9
I4
tp358
(I716
I704
tp359
s(g14
I6
tp360
(I668
I624
tp361
s(g14
I8
tp362
(I606
I567
tp363
s(g6
I2
tp364
(I723
I695
tp365
ssba(iSample
Sample
p366
(dp367
g3
F1440426555.503976
sg4
(dp368
(g6
I5
tp369
(I763
I719
tp370
s(g9
I7
tp371
(I728
I712
tp372
s(g9
I4
tp373
(I739
I727
tp374
s(g14
I6
tp375
(I691
I645
tp376
s(g14
I8
tp377
(I629
I587
tp378
s(g6
I2
tp379
(I748
I718
tp380
ssba(iSample
Sample
p381
(dp382
g3
F1440426558.640271
sg4
(dp383
(g6
I5
tp384
(I787
I743
tp385
s(g9
I7
tp386
(I755
I738
tp387
s(g9
I4
tp388
(I766
I754
tp389
s(g14
I6
tp390
(I718
I671
tp391
s(g14
I8
tp392
(I656
I613
tp393
s(g6
I2
tp394
(I772
I741
tp395
ssba(iSample
Sample
p396
(dp397
g3
F1440426562.260127
sg4
(dp398
(g6
I5
tp399
(I813
I767
tp400
s(g9
I7
tp401
(I929
I909
tp402
s(g9
I4
tp403
(I940
I925
tp404
s(g14
I6
tp405
(I892
I835
tp406
s(g14
I8
tp407
(I830
I773
tp408
s(g6
I2
tp409
(I798
I765
tp410
ssba(iSample
Sample
p411
(dp412
g3
F1440426585.75449
sg4
(dp413
(g6
I5
tp414
(I1153
I1094
tp415
s(g9
I7
tp416
(I1118
I1096
tp417
s(g9
I4
tp418
(I1129
I1113
tp419
s(g14
I6
tp420
(I1081
I1014
tp421
s(g14
I8
tp422
(I1019
I953
tp423
s(g6
I2
tp424
(I1138
I1092
tp425
ssba(iSample
Sample
p426
(dp427
g3
F1440426611.312783
sg4
(dp428
(g6
I5
tp429
(I1177
I1118
tp430
s(g9
I7
tp431
(I1142
I1120
tp432
s(g9
I4
tp433
(I1153
I1137
tp434
s(g14
I6
tp435
(I1105
I1038
tp436
s(g14
I8
tp437
(I1043
I977
tp438
s(g6
I2
tp439
(I1162
I1114
tp440
ssba(iSample
Sample
p441
(dp442
g3
F1440426614.539695
sg4
(dp443
(g6
I5
tp444
(I1201
I1141
tp445
s(g9
I7
tp446
(I1169
I1147
tp447
s(g9
I4
tp448
(I1180
I1164
tp449
s(g14
I6
tp450
(I1132
I1065
tp451
s(g14
I8
tp452
(I1070
I1004
tp453
s(g6
I2
tp454
(I1186
I1138
tp455
ssba(iSample
Sample
p456
(dp457
g3
F1440426618.18067
sg4
(dp458
(g6
I5
tp459
(I1228
I1168
tp460
s(g9
I7
tp461
(I1193
I1171
tp462
s(g9
I4
tp463
(I1204
I1188
tp464
s(g14
I6
tp465
(I1156
I1089
tp466
s(g14
I8
tp467
(I1094
I1028
tp468
s(g6
I2
tp469
(I1213
I1163
tp470
ssba(iSample
Sample
p471
(dp472
g3
F1440426621.396645
sg4
(dp473
(g6
I5
tp474
(I1251
I1190
tp475
s(g9
I7
tp476
(I1217
I1195
tp477
s(g9
I4
tp478
(I1228
I1212
tp479
s(g14
I6
tp480
(I1180
I1113
tp481
s(g14
I8
tp482
(I1118
I1052
tp483
s(g6
I2
tp484
(I1236
I1185
tp485
ssba(iSample
Sample
p486
(dp487
g3
F1440426624.607229
sg4
(dp488
(g6
I5
tp489
(I1275
I1214
tp490
s(g9
I7
tp491
(I1240
I1217
tp492
s(g9
I4
tp493
(I1251
I1235
tp494
s(g14
I6
tp495
(I1203
I1136
tp496
s(g14
I8
tp497
(I1141
I1075
tp498
s(g6
I2
tp499
(I1260
I1208
tp500
ssba(iSample
Sample
p501
(dp502
g3
F1440426627.714015
sg4
(dp503
(g6
I5
tp504
(I1298
I1236
tp505
s(g9
I7
tp506
(I1263
I1240
tp507
s(g9
I4
tp508
(I1274
I1258
tp509
s(g14
I6
tp510
(I1226
I1159
tp511
s(g14
I8
tp512
(I1164
I1098
tp513
s(g6
I2
tp514
(I1283
I1230
tp515
ssba(iSample
Sample
p516
(dp517
g3
F1440426630.816758
sg4
(dp518
(g6
I5
tp519
(I1322
I1259
tp520
s(g9
I7
tp521
(I1287
I1264
tp522
s(g9
I4
tp523
(I1298
I1282
tp524
s(g14
I6
tp525
(I1250
I1183
tp526
s(g14
I8
tp527
(I1188
I1121
tp528
s(g6
I2
tp529
(I1307
I1253
tp530
ssba(iSample
Sample
p531
(dp532
g3
F1440426634.076166
sg4
(dp533
(g6
I5
tp534
(I1345
I1282
tp535
s(g9
I7
tp536
(I1310
I1287
tp537
s(g9
I4
tp538
(I1321
I1305
tp539
s(g14
I6
tp540
(I1273
I1206
tp541
s(g14
I8
tp542
(I1211
I1143
tp543
s(g6
I2
tp544
(I1330
I1275
tp545
ssba(iSample
Sample
p546
(dp547
g3
F1440426637.214977
sg4
(dp548
(g6
I5
tp549
(I1368
I1305
tp550
s(g9
I7
tp551
(I1333
I1310
tp552
s(g9
I4
tp553
(I1344
I1328
tp554
s(g14
I6
tp555
(I1296
I1229
tp556
s(g14
I8
tp557
(I1234
I1166
tp558
s(g6
I2
tp559
(I1353
I1296
tp560
ssba(iSample
Sample
p561
(dp562
g3
F1440426640.287999
sg4
(dp563
(g6
I5
tp564
(I1391
I1326
tp565
s(g9
I7
tp566
(I1356
I1333
tp567
s(g9
I4
tp568
(I1367
I1351
tp569
s(g14
I6
tp570
(I1319
I1252
tp571
s(g14
I8
tp572
(I1257
I1189
tp573
s(g6
I2
tp574
(I1376
I1318
tp575
ssba(iSample
Sample
p576
(dp577
g3
F1440426643.393636
sg4
(dp578
(g6
I5
tp579
(I1414
I1349
tp580
s(g9
I7
tp581
(I1379
I1356
tp582
s(g9
I4
tp583
(I1390
I1374
tp584
s(g14
I6
tp585
(I1342
I1274
tp586
s(g14
I8
tp587
(I1280
I1212
tp588
s(g6
I2
tp589
(I1399
I1339
tp590
ssba(iSample
Sample
p591
(dp592
g3
F1440426646.501027
sg4
(dp593
(g6
I5
tp594
(I1439
I1373
tp595
s(g9
I7
tp596
(I1404
I1381
tp597
s(g9
I4
tp598
(I1415
I1398
tp599
s(g14
I6
tp600
(I1367
I1299
tp601
s(g14
I8
tp602
(I1305
I1236
tp603
s(g6
I2
tp604
(I1424
I1363
tp605
ssba(iSample
Sample
p606
(dp607
g3
F1440426649.910476
sg4
(dp608
(g6
I5
tp609
(I1463
I1396
tp610
s(g9
I7
tp611
(I1428
I1405
tp612
s(g9
I4
tp613
(I1439
I1422
tp614
s(g14
I6
tp615
(I1391
I1322
tp616
s(g14
I8
tp617
(I1329
I1260
tp618
s(g6
I2
tp619
(I1448
I1384
tp620
ssba(iSample
Sample
p621
(dp622
g3
F1440426653.160844
sg4
(dp623
(g6
I5
tp624
(I1487
I1419
tp625
s(g9
I7
tp626
(I1452
I1429
tp627
s(g9
I4
tp628
(I1463
I1446
tp629
s(g14
I6
tp630
(I1415
I1346
tp631
s(g14
I8
tp632
(I1353
I1283
tp633
s(g6
I2
tp634
(I1472
I1407
tp635
ssba(iSample
Sample
p636
(dp637
g3
F1440426656.376693
sg4
(dp638
(g6
I5
tp639
(I1510
I1441
tp640
s(g9
I7
tp641
(I1476
I1452
tp642
s(g9
I4
tp643
(I1487
I1470
tp644
s(g14
I6
tp645
(I1439
I1369
tp646
s(g14
I8
tp647
(I1377
I1307
tp648
s(g6
I2
tp649
(I1495
I1429
tp650
ssba(iSample
Sample
p651
(dp652
g3
F1440426659.57882
sg4
(dp653
(g6
I5
tp654
(I1534
I1464
tp655
s(g9
I7
tp656
(I1499
I1475
tp657
s(g9
I4
tp658
(I1510
I1493
tp659
s(g14
I6
tp660
(I1462
I1391
tp661
s(g14
I8
tp662
(I1400
I1330
tp663
s(g6
I2
tp664
(I1519
I1453
tp665
ssba(iSample
Sample
p666
(dp667
g3
F1440426662.724976
sg4
(dp668
(g6
I5
tp669
(I1559
I1487
tp670
s(g9
I7
tp671
(I1524
I1500
tp672
s(g9
I4
tp673
(I1535
I1518
tp674
s(g14
I6
tp675
(I1487
I1416
tp676
s(g14
I8
tp677
(I1425
I1355
tp678
s(g6
I2
tp679
(I1544
I1476
tp680
ssba(iSample
Sample
p681
(dp682
g3
F1440426666.069272
sg4
(dp683
(g6
I5
tp684
(I1582
I1509
tp685
s(g9
I7
tp686
(I1547
I1523
tp687
s(g9
I4
tp688
(I1558
I1540
tp689
s(g14
I6
tp690
(I1510
I1439
tp691
s(g14
I8
tp692
(I1448
I1377
tp693
s(g6
I2
tp694
(I1567
I1499
tp695
ssba(iSample
Sample
p696
(dp697
g3
F1440426669.197917
sg4
(dp698
(g6
I5
tp699
(I1605
I1530
tp700
s(g9
I7
tp701
(I1570
I1546
tp702
s(g9
I4
tp703
(I1581
I1563
tp704
s(g14
I6
tp705
(I1533
I1462
tp706
s(g14
I8
tp707
(I1471
I1400
tp708
s(g6
I2
tp709
(I1590
I1522
tp710
ssba(iSample
Sample
p711
(dp712
g3
F1440426672.296544
sg4
(dp713
(g6
I5
tp714
(I1628
I1551
tp715
s(g9
I7
tp716
(I1593
I1569
tp717
s(g9
I4
tp718
(I1604
I1586
tp719
s(g14
I6
tp720
(I1556
I1484
tp721
s(g14
I8
tp722
(I1494
I1422
tp723
s(g6
I2
tp724
(I1613
I1544
tp725
ssba(iSample
Sample
p726
(dp727
g3
F1440426675.403499
sg4
(dp728
(g6
I5
tp729
(I1651
I1572
tp730
s(g9
I7
tp731
(I1617
I1593
tp732
s(g9
I4
tp733
(I1628
I1610
tp734
s(g14
I6
tp735
(I1580
I1508
tp736
s(g14
I8
tp737
(I1518
I1446
tp738
s(g6
I2
tp739
(I1636
I1566
tp740
ssba(iSample
Sample
p741
(dp742
g3
F1440426678.671408
sg4
(dp743
(g6
I5
tp744
(I1675
I1594
tp745
s(g9
I7
tp746
(I1640
I1616
tp747
s(g9
I4
tp748
(I1651
I1633
tp749
s(g14
I6
tp750
(I1603
I1531
tp751
s(g14
I8
tp752
(I1541
I1469
tp753
s(g6
I2
tp754
(I1660
I1588
tp755
ssba(iSample
Sample
p756
(dp757
g3
F1440426681.760244
sg4
(dp758
(g6
I5
tp759
(I1698
I1617
tp760
s(g9
I7
tp761
(I1663
I1639
tp762
s(g9
I4
tp763
(I1674
I1654
tp764
s(g14
I6
tp765
(I1628
I1555
tp766
s(g14
I8
tp767
(I1566
I1494
tp768
s(g6
I2
tp769
(I1683
I1610
tp770
ssba(iSample
Sample
p771
(dp772
g3
F1440426685.114975
sg4
(dp773
(g6
I5
tp774
(I1723
I1641
tp775
s(g9
I7
tp776
(I1688
I1664
tp777
s(g9
I4
tp778
(I1699
I1679
tp779
s(g14
I6
tp780
(I1651
I1578
tp781
s(g14
I8
tp782
(I1589
I1516
tp783
s(g6
I2
tp784
(I1708
I1634
tp785
ssba(iSample
Sample
p786
(dp787
g3
F1440426688.235699
sg4
(dp788
(g6
I5
tp789
(I1746
I1663
tp790
s(g9
I7
tp791
(I1711
I1687
tp792
s(g9
I4
tp793
(I1722
I1700
tp794
s(g14
I6
tp795
(I1674
I1601
tp796
s(g14
I8
tp797
(I1612
I1539
tp798
s(g6
I2
tp799
(I1731
I1655
tp800
ssba(iSample
Sample
p801
(dp802
g3
F1440426691.349376
sg4
(dp803
(g6
I5
tp804
(I1769
I1684
tp805
s(g9
I7
tp806
(I1734
I1710
tp807
s(g9
I4
tp808
(I1745
I1723
tp809
s(g14
I6
tp810
(I1697
I1624
tp811
s(g14
I8
tp812
(I1635
I1562
tp813
s(g6
I2
tp814
(I1754
I1676
tp815
ssba(iSample
Sample
p816
(dp817
g3
F1440426694.477809
sg4
(dp818
(g6
I5
tp819
(I1792
I1707
tp820
s(g9
I7
tp821
(I1757
I1733
tp822
s(g9
I4
tp823
(I1768
I1746
tp824
s(g14
I6
tp825
(I1720
I1647
tp826
s(g14
I8
tp827
(I1658
I1584
tp828
s(g6
I2
tp829
(I1777
I1699
tp830
ssba(iSample
Sample
p831
(dp832
g3
F1440426697.532861
sg4
(dp833
(g6
I5
tp834
(I1815
I1729
tp835
s(g9
I7
tp836
(I1780
I1755
tp837
s(g9
I4
tp838
(I1791
I1769
tp839
s(g14
I6
tp840
(I1743
I1670
tp841
s(g14
I8
tp842
(I1681
I1607
tp843
s(g6
I2
tp844
(I1800
I1720
tp845
ssba(iSample
Sample
p846
(dp847
g3
F1440426700.667574
sg4
(dp848
(g6
I5
tp849
(I2007
I1909
tp850
s(g9
I7
tp851
(I1972
I1946
tp852
s(g9
I4
tp853
(I1983
I1961
tp854
s(g14
I6
tp855
(I1935
I1860
tp856
s(g14
I8
tp857
(I1873
I1798
tp858
s(g6
I2
tp859
(I1992
I1903
tp860
ssba(iSample
Sample
p861
(dp862
g3
F1440426726.642279
sg4
(dp863
(g6
I5
tp864
(I2034
I1935
tp865
s(g9
I7
tp866
(I1999
I1973
tp867
s(g9
I4
tp868
(I2010
I1988
tp869
s(g14
I6
tp870
(I1962
I1887
tp871
s(g14
I8
tp872
(I1900
I1824
tp873
s(g6
I2
tp874
(I2019
I1930
tp875
ssba(iSample
Sample
p876
(dp877
g3
F1440426730.302149
sg4
(dp878
(g6
I5
tp879
(I2058
I1958
tp880
s(g9
I7
tp881
(I2023
I1997
tp882
s(g9
I4
tp883
(I2034
I2012
tp884
s(g14
I6
tp885
(I1989
I1914
tp886
s(g14
I8
tp887
(I1927
I1851
tp888
s(g6
I2
tp889
(I2043
I1952
tp890
ssba(iSample
Sample
p891
(dp892
g3
F1440426733.962364
sg4
(dp893
(g6
I5
tp894
(I2085
I1984
tp895
s(g9
I7
tp896
(I2050
I2024
tp897
s(g9
I4
tp898
(I2061
I2039
tp899
s(g14
I6
tp900
(I2013
I1938
tp901
s(g14
I8
tp902
(I1951
I1875
tp903
s(g6
I2
tp904
(I2070
I1977
tp905
ssba(iSample
Sample
p906
(dp907
g3
F1440426737.14672
sg4
(dp908
(g6
I5
tp909
(I2109
I2007
tp910
s(g9
I7
tp911
(I2074
I2047
tp912
s(g9
I4
tp913
(I2085
I2063
tp914
s(g14
I6
tp915
(I2037
I1960
tp916
s(g14
I8
tp917
(I1975
I1898
tp918
s(g6
I2
tp919
(I2094
I2001
tp920
ssba(iSample
Sample
p921
(dp922
g3
F1440426740.351406
sg4
(dp923
(g6
I5
tp924
(I2132
I2029
tp925
s(g9
I7
tp926
(I2098
I2071
tp927
s(g9
I4
tp928
(I2109
I2087
tp929
s(g14
I6
tp930
(I2061
I1984
tp931
s(g14
I8
tp932
(I1999
I1922
tp933
s(g6
I2
tp934
(I2117
I2022
tp935
ssba(iSample
Sample
p936
(dp937
g3
F1440426743.612828
sg4
(dp938
(g6
I5
tp939
(I2159
I2056
tp940
s(g9
I7
tp941
(I2124
I2097
tp942
s(g9
I4
tp943
(I2135
I2112
tp944
s(g14
I6
tp945
(I2087
I2010
tp946
s(g14
I8
tp947
(I2025
I1948
tp948
s(g6
I2
tp949
(I2144
I2049
tp950
ssba(iSample
Sample
p951
(dp952
g3
F1440426747.128931
sg4
(dp953
(g6
I5
tp954
(I2188
I2081
tp955
s(g9
I7
tp956
(I2153
I2126
tp957
s(g9
I4
tp958
(I2164
I2140
tp959
s(g14
I6
tp960
(I2116
I2039
tp961
s(g14
I8
tp962
(I2054
I1976
tp963
s(g6
I2
tp964
(I2173
I2075
tp965
ssba(iSample
Sample
p966
(dp967
g3
F1440426751.085571
sg4
(dp968
(g6
I5
tp969
(I2212
I2104
tp970
s(g9
I7
tp971
(I2180
I2153
tp972
s(g9
I4
tp973
(I2191
I2167
tp974
s(g14
I6
tp975
(I2145
I2067
tp976
s(g14
I8
tp977
(I2083
I2005
tp978
s(g6
I2
tp979
(I2197
I2098
tp980
ssba(iSample
Sample
p981
(dp982
g3
F1440426754.990234
sg4
(dp983
(g6
I5
tp984
(I2242
I2132
tp985
s(g9
I7
tp986
(I2207
I2180
tp987
s(g9
I4
tp988
(I2218
I2194
tp989
s(g14
I6
tp990
(I2170
I2092
tp991
s(g14
I8
tp992
(I2108
I2029
tp993
s(g6
I2
tp994
(I2227
I2127
tp995
ssba(iSample
Sample
p996
(dp997
g3
F1440426758.352221
sg4
(dp998
(g6
I5
tp999
(I2265
I2154
tp1000
s(g9
I7
tp1001
(I2230
I2203
tp1002
s(g9
I4
tp1003
(I2241
I2217
tp1004
s(g14
I6
tp1005
(I2193
I2113
tp1006
s(g14
I8
tp1007
(I2131
I2051
tp1008
s(g6
I2
tp1009
(I2250
I2149
tp1010
ssba(iSample
Sample
p1011
(dp1012
g3
F1440426761.510538
sg4
(dp1013
(g6
I5
tp1014
(I2291
I2179
tp1015
s(g9
I7
tp1016
(I2256
I2229
tp1017
s(g9
I4
tp1018
(I2267
I2243
tp1019
s(g14
I6
tp1020
(I2219
I2135
tp1021
s(g14
I8
tp1022
(I2157
I2077
tp1023
s(g6
I2
tp1024
(I2276
I2175
tp1025
ssba(iSample
Sample
p1026
(dp1027
g3
F1440426764.969975
sg4
(dp1028
(g6
I5
tp1029
(I2314
I2200
tp1030
s(g9
I7
tp1031
(I2279
I2252
tp1032
s(g9
I4
tp1033
(I2290
I2266
tp1034
s(g14
I6
tp1035
(I2242
I2156
tp1036
s(g14
I8
tp1037
(I2180
I2098
tp1038
s(g6
I2
tp1039
(I2299
I2197
tp1040
ssba(iSample
Sample
p1041
(dp1042
g3
F1440426768.099875
sg4
(dp1043
(g6
I5
tp1044
(I2339
I2225
tp1045
s(g9
I7
tp1046
(I2305
I2278
tp1047
s(g9
I4
tp1048
(I2316
I2292
tp1049
s(g14
I6
tp1050
(I2268
I2180
tp1051
s(g14
I8
tp1052
(I2206
I2121
tp1053
s(g6
I2
tp1054
(I2324
I2221
tp1055
ssba(iSample
Sample
p1056
(dp1057
g3
F1440426771.585081
sg4
(dp1058
(g6
I5
tp1059
(I2369
I2254
tp1060
s(g9
I7
tp1061
(I2334
I2307
tp1062
s(g9
I4
tp1063
(I2345
I2320
tp1064
s(g14
I6
tp1065
(I2297
I2206
tp1066
s(g14
I8
tp1067
(I2235
I2149
tp1068
s(g6
I2
tp1069
(I2354
I2249
tp1070
ssba(iSample
Sample
p1071
(dp1072
g3
F1440426775.497007
sg4
(dp1073
(g6
I5
tp1074
(I2392
I2277
tp1075
s(g9
I7
tp1076
(I2357
I2329
tp1077
s(g9
I4
tp1078
(I2368
I2343
tp1079
s(g14
I6
tp1080
(I2320
I2229
tp1081
s(g14
I8
tp1082
(I2258
I2171
tp1083
s(g6
I2
tp1084
(I2377
I2271
tp1085
ssba(iSample
Sample
p1086
(dp1087
g3
F1440426778.605545
sg4
(dp1088
(g6
I5
tp1089
(I2415
I2298
tp1090
s(g9
I7
tp1091
(I2380
I2352
tp1092
s(g9
I4
tp1093
(I2391
I2366
tp1094
s(g14
I6
tp1095
(I2343
I2251
tp1096
s(g14
I8
tp1097
(I2281
I2193
tp1098
s(g6
I2
tp1099
(I2400
I2293
tp1100
ssba(iSample
Sample
p1101
(dp1102
g3
F1440426781.772277
sg4
(dp1103
(g6
I5
tp1104
(I2442
I2323
tp1105
s(g9
I7
tp1106
(I2407
I2379
tp1107
s(g9
I4
tp1108
(I2418
I2393
tp1109
s(g14
I6
tp1110
(I2370
I2278
tp1111
s(g14
I8
tp1112
(I2308
I2220
tp1113
s(g6
I2
tp1114
(I2427
I2319
tp1115
ssba(iSample
Sample
p1116
(dp1117
g3
F1440426785.368394
sg4
(dp1118
(g6
I5
tp1119
(I2465
I2346
tp1120
s(g9
I7
tp1121
(I2430
I2402
tp1122
s(g9
I4
tp1123
(I2441
I2416
tp1124
s(g14
I6
tp1125
(I2393
I2301
tp1126
s(g14
I8
tp1127
(I2331
I2243
tp1128
s(g6
I2
tp1129
(I2450
I2342
tp1130
ssba(iSample
Sample
p1131
(dp1132
g3
F1440426788.45427
sg4
(dp1133
(g6
I5
tp1134
(I2488
I2369
tp1135
s(g9
I7
tp1136
(I2453
I2424
tp1137
s(g9
I4
tp1138
(I2464
I2438
tp1139
s(g14
I6
tp1140
(I2416
I2323
tp1141
s(g14
I8
tp1142
(I2354
I2264
tp1143
s(g6
I2
tp1144
(I2473
I2365
tp1145
ssba(iSample
Sample
p1146
(dp1147
g3
F1440426791.585563
sg4
(dp1148
(g6
I5
tp1149
(I2511
I2391
tp1150
s(g9
I7
tp1151
(I2476
I2447
tp1152
s(g9
I4
tp1153
(I2487
I2460
tp1154
s(g14
I6
tp1155
(I2439
I2346
tp1156
s(g14
I8
tp1157
(I2377
I2287
tp1158
s(g6
I2
tp1159
(I2496
I2388
tp1160
ssba(iSample
Sample
p1161
(dp1162
g3
F1440426794.695453
sg4
(dp1163
(g6
I5
tp1164
(I2535
I2415
tp1165
s(g9
I7
tp1166
(I2503
I2473
tp1167
s(g9
I4
tp1168
(I2514
I2487
tp1169
s(g14
I6
tp1170
(I2466
I2373
tp1171
s(g14
I8
tp1172
(I2404
I2314
tp1173
s(g6
I2
tp1174
(I2520
I2411
tp1175
ssba(iSample
Sample
p1176
(dp1177
g3
F1440426798.35782
sg4
(dp1178
(g6
I5
tp1179
(I2562
I2442
tp1180
s(g9
I7
tp1181
(I2527
I2497
tp1182
s(g9
I4
tp1183
(I2538
I2511
tp1184
s(g14
I6
tp1185
(I2490
I2397
tp1186
s(g14
I8
tp1187
(I2428
I2338
tp1188
s(g6
I2
tp1189
(I2547
I2437
tp1190
ssba(iSample
Sample
p1191
(dp1192
g3
F1440426801.605643
sg4
(dp1193
(g6
I5
tp1194
(I2586
I2465
tp1195
s(g9
I7
tp1196
(I2551
I2521
tp1197
s(g9
I4
tp1198
(I2562
I2534
tp1199
s(g14
I6
tp1200
(I2514
I2420
tp1201
s(g14
I8
tp1202
(I2452
I2362
tp1203
s(g6
I2
tp1204
(I2571
I2461
tp1205
ssba(iSample
Sample
p1206
(dp1207
g3
F1440426804.839033
sg4
(dp1208
(g6
I5
tp1209
(I2610
I2489
tp1210
s(g9
I7
tp1211
(I2576
I2545
tp1212
s(g9
I4
tp1213
(I2587
I2559
tp1214
s(g14
I6
tp1215
(I2541
I2447
tp1216
s(g14
I8
tp1217
(I2479
I2389
tp1218
s(g6
I2
tp1219
(I2595
I2485
tp1220
ssba(iSample
Sample
p1221
(dp1222
g3
F1440426808.490655
sg4
(dp1223
(g6
I5
tp1224
(I2637
I2516
tp1225
s(g9
I7
tp1226
(I2602
I2570
tp1227
s(g9
I4
tp1228
(I2613
I2585
tp1229
s(g14
I6
tp1230
(I2565
I2471
tp1231
s(g14
I8
tp1232
(I2503
I2410
tp1233
s(g6
I2
tp1234
(I2622
I2512
tp1235
ssba(iSample
Sample
p1236
(dp1237
g3
F1440426811.745217
sg4
(dp1238
(g6
I5
tp1239
(I2661
I2540
tp1240
s(g9
I7
tp1241
(I2626
I2593
tp1242
s(g9
I4
tp1243
(I2637
I2608
tp1244
s(g14
I6
tp1245
(I2589
I2495
tp1246
s(g14
I8
tp1247
(I2527
I2433
tp1248
s(g6
I2
tp1249
(I2646
I2535
tp1250
ssba(iSample
Sample
p1251
(dp1252
g3
F1440426814.922637
sg4
(dp1253
(g6
I5
tp1254
(I2685
I2562
tp1255
s(g9
I7
tp1256
(I2650
I2617
tp1257
s(g9
I4
tp1258
(I2661
I2632
tp1259
s(g14
I6
tp1260
(I2613
I2519
tp1261
s(g14
I8
tp1262
(I2551
I2457
tp1263
s(g6
I2
tp1264
(I2670
I2559
tp1265
ssba(iSample
Sample
p1266
(dp1267
g3
F1440426818.179506
sg4
(dp1268
(g6
I5
tp1269
(I2708
I2584
tp1270
s(g9
I7
tp1271
(I2673
I2639
tp1272
s(g9
I4
tp1273
(I2684
I2654
tp1274
s(g14
I6
tp1275
(I2636
I2542
tp1276
s(g14
I8
tp1277
(I2574
I2480
tp1278
s(g6
I2
tp1279
(I2693
I2582
tp1280
ssba(iSample
Sample
p1281
(dp1282
g3
F1440426821.34374
sg4
(dp1283
(g6
I5
tp1284
(I2732
I2606
tp1285
s(g9
I7
tp1286
(I2697
I2663
tp1287
s(g9
I4
tp1288
(I2708
I2677
tp1289
s(g14
I6
tp1290
(I2660
I2566
tp1291
s(g14
I8
tp1292
(I2598
I2504
tp1293
s(g6
I2
tp1294
(I2717
I2606
tp1295
ssba(iSample
Sample
p1296
(dp1297
g3
F1440426824.510737
sg4
(dp1298
(g6
I5
tp1299
(I2755
I2629
tp1300
s(g9
I7
tp1301
(I2720
I2686
tp1302
s(g9
I4
tp1303
(I2731
I2700
tp1304
s(g14
I6
tp1305
(I2683
I2589
tp1306
s(g14
I8
tp1307
(I2621
I2526
tp1308
s(g6
I2
tp1309
(I2740
I2628
tp1310
ssba(iSample
Sample
p1311
(dp1312
g3
F1440426827.702833
sg4
(dp1313
(g6
I5
tp1314
(I2781
I2653
tp1315
s(g9
I7
tp1316
(I2749
I2715
tp1317
s(g9
I4
tp1318
(I2760
I2728
tp1319
s(g14
I6
tp1320
(I2712
I2617
tp1321
s(g14
I8
tp1322
(I2650
I2555
tp1323
s(g6
I2
tp1324
(I2766
I2653
tp1325
ssba(iSample
Sample
p1326
(dp1327
g3
F1440426831.522453
sg4
(dp1328
(g6
I5
tp1329
(I2807
I2679
tp1330
s(g9
I7
tp1331
(I2772
I2738
tp1332
s(g9
I4
tp1333
(I2783
I2750
tp1334
s(g14
I6
tp1335
(I2735
I2640
tp1336
s(g14
I8
tp1337
(I2673
I2578
tp1338
s(g6
I2
tp1339
(I2792
I2678
tp1340
ssba(iSample
Sample
p1341
(dp1342
g3
F1440426834.690479
sg4
(dp1343
(g6
I5
tp1344
(I2831
I2703
tp1345
s(g9
I7
tp1346
(I2796
I2762
tp1347
s(g9
I4
tp1348
(I2807
I2774
tp1349
s(g14
I6
tp1350
(I2759
I2664
tp1351
s(g14
I8
tp1352
(I2697
I2602
tp1353
s(g6
I2
tp1354
(I2816
I2702
tp1355
ssba(iSample
Sample
p1356
(dp1357
g3
F1440426837.945028
sg4
(dp1358
(g6
I5
tp1359
(I2855
I2727
tp1360
s(g9
I7
tp1361
(I2820
I2786
tp1362
s(g9
I4
tp1363
(I2831
I2798
tp1364
s(g14
I6
tp1365
(I2783
I2688
tp1366
s(g14
I8
tp1367
(I2721
I2626
tp1368
s(g6
I2
tp1369
(I2840
I2723
tp1370
ssba(iSample
Sample
p1371
(dp1372
g3
F1440426841.098705
sg4
(dp1373
(g6
I5
tp1374
(I2878
I2750
tp1375
s(g9
I7
tp1376
(I2844
I2810
tp1377
s(g9
I4
tp1378
(I2855
I2822
tp1379
s(g14
I6
tp1380
(I2807
I2712
tp1381
s(g14
I8
tp1382
(I2745
I2650
tp1383
s(g6
I2
tp1384
(I2863
I2744
tp1385
ssba(iSample
Sample
p1386
(dp1387
g3
F1440426844.393443
sg4
(dp1388
(g6
I5
tp1389
(I2903
I2773
tp1390
s(g9
I7
tp1391
(I2868
I2834
tp1392
s(g9
I4
tp1393
(I2879
I2846
tp1394
s(g14
I6
tp1395
(I2831
I2735
tp1396
s(g14
I8
tp1397
(I2769
I2673
tp1398
s(g6
I2
tp1399
(I2888
I2769
tp1400
ssba(iSample
Sample
p1401
(dp1402
g3
F1440426847.602686
sg4
(dp1403
(g6
I5
tp1404
(I2926
I2795
tp1405
s(g9
I7
tp1406
(I2891
I2856
tp1407
s(g9
I4
tp1408
(I2902
I2869
tp1409
s(g14
I6
tp1410
(I2858
I2762
tp1411
s(g14
I8
tp1412
(I2796
I2700
tp1413
s(g6
I2
tp1414
(I2911
I2791
tp1415
ssba(iSample
Sample
p1416
(dp1417
g3
F1440426851.275279
sg4
(dp1418
(g6
I5
tp1419
(I2953
I2822
tp1420
s(g9
I7
tp1421
(I2918
I2883
tp1422
s(g9
I4
tp1423
(I2929
I2896
tp1424
s(g14
I6
tp1425
(I2881
I2785
tp1426
s(g14
I8
tp1427
(I2819
I2723
tp1428
s(g6
I2
tp1429
(I2938
I2817
tp1430
ssba(iSample
Sample
p1431
(dp1432
g3
F1440426854.33646
sg4
(dp1433
(g6
I5
tp1434
(I2976
I2842
tp1435
s(g9
I7
tp1436
(I2941
I2906
tp1437
s(g9
I4
tp1438
(I2952
I2919
tp1439
s(g14
I6
tp1440
(I2904
I2808
tp1441
s(g14
I8
tp1442
(I2842
I2746
tp1443
s(g6
I2
tp1444
(I2961
I2840
tp1445
ssba(iSample
Sample
p1446
(dp1447
g3
F1440426857.44332
sg4
(dp1448
(g6
I5
tp1449
(I2999
I2865
tp1450
s(g9
I7
tp1451
(I2964
I2928
tp1452
s(g9
I4
tp1453
(I2975
I2942
tp1454
s(g14
I6
tp1455
(I2927
I2831
tp1456
s(g14
I8
tp1457
(I2865
I2769
tp1458
s(g6
I2
tp1459
(I2984
I2861
tp1460
ssba(iSample
Sample
p1461
(dp1462
g3
F1440426860.551508
sg4
(dp1463
(g6
I5
tp1464
(I3024
I2889
tp1465
s(g9
I7
tp1466
(I2989
I2953
tp1467
s(g9
I4
tp1468
(I3000
I2967
tp1469
s(g14
I6
tp1470
(I2952
I2856
tp1471
s(g14
I8
tp1472
(I2890
I2794
tp1473
s(g6
I2
tp1474
(I3009
I2886
tp1475
ssba(iSample
Sample
p1476
(dp1477
g3
F1440426863.952151
sg4
(dp1478
(g6
I5
tp1479
(I3239
I3098
tp1480
s(g9
I7
tp1481
(I3204
I3163
tp1482
s(g9
I4
tp1483
(I3215
I3177
tp1484
s(g14
I6
tp1485
(I3167
I3069
tp1486
s(g14
I8
tp1487
(I3105
I3007
tp1488
s(g6
I2
tp1489
(I3224
I3093
tp1490
ssba(iSample
Sample
p1491
(dp1492
g3
F1440426892.962479
sg4
(dp1493
(g6
I5
tp1494
(I3262
I3120
tp1495
s(g9
I7
tp1496
(I3227
I3184
tp1497
s(g9
I4
tp1498
(I3238
I3199
tp1499
s(g14
I6
tp1500
(I3190
I3092
tp1501
s(g14
I8
tp1502
(I3128
I3030
tp1503
s(g6
I2
tp1504
(I3247
I3115
tp1505
ssba(iSample
Sample
p1506
(dp1507
g3
F1440426896.068487
sg4
(dp1508
(g6
I5
tp1509
(I3287
I3142
tp1510
s(g9
I7
tp1511
(I3252
I3206
tp1512
s(g9
I4
tp1513
(I3263
I3222
tp1514
s(g14
I6
tp1515
(I3215
I3116
tp1516
s(g14
I8
tp1517
(I3153
I3055
tp1518
s(g6
I2
tp1519
(I3272
I3137
tp1520
ssba(iSample
Sample
p1521
(dp1522
g3
F1440426899.490223
sg4
(dp1523
(g6
I5
tp1524
(I3310
I3162
tp1525
s(g9
I7
tp1526
(I3275
I3229
tp1527
s(g9
I4
tp1528
(I3286
I3245
tp1529
s(g14
I6
tp1530
(I3238
I3139
tp1531
s(g14
I8
tp1532
(I3176
I3078
tp1533
s(g6
I2
tp1534
(I3295
I3158
tp1535
ssba(iSample
Sample
p1536
(dp1537
g3
F1440426902.558206
sg4
(dp1538
(g6
I5
tp1539
(I3333
I3183
tp1540
s(g9
I7
tp1541
(I3298
I3252
tp1542
s(g9
I4
tp1543
(I3309
I3267
tp1544
s(g14
I6
tp1545
(I3267
I3167
tp1546
s(g14
I8
tp1547
(I3205
I3107
tp1548
s(g6
I2
tp1549
(I3318
I3178
tp1550
ssba(iSample
Sample
p1551
(dp1552
g3
F1440426906.479645
sg4
(dp1553
(g6
I5
tp1554
(I3362
I3209
tp1555
s(g9
I7
tp1556
(I3327
I3280
tp1557
s(g9
I4
tp1558
(I3338
I3293
tp1559
s(g14
I6
tp1560
(I3290
I3188
tp1561
s(g14
I8
tp1562
(I3228
I3129
tp1563
s(g6
I2
tp1564
(I3347
I3205
tp1565
ssba(iSample
Sample
p1566
(dp1567
g3
F1440426909.590737
sg4
(dp1568
(g6
I5
tp1569
(I3385
I3227
tp1570
s(g9
I7
tp1571
(I3350
I3300
tp1572
s(g9
I4
tp1573
(I3361
I3315
tp1574
s(g14
I6
tp1575
(I3313
I3209
tp1576
s(g14
I8
tp1577
(I3251
I3150
tp1578
s(g6
I2
tp1579
(I3370
I3225
tp1580
ssba(iSample
Sample
p1581
(dp1582
g3
F1440426912.708947
sg4
(dp1583
(g6
I5
tp1584
(I3408
I3249
tp1585
s(g9
I7
tp1586
(I3376
I3325
tp1587
s(g9
I4
tp1588
(I3387
I3339
tp1589
s(g14
I6
tp1590
(I3340
I3235
tp1591
s(g14
I8
tp1592
(I3278
I3176
tp1593
s(g6
I2
tp1594
(I3393
I3245
tp1595
ssba(iSample
Sample
p1596
(dp1597
g3
F1440426916.350568
sg4
(dp1598
(g6
I5
tp1599
(I3435
I3272
tp1600
s(g9
I7
tp1601
(I3401
I3348
tp1602
s(g9
I4
tp1603
(I3412
I3362
tp1604
s(g14
I6
tp1605
(I3364
I3257
tp1606
s(g14
I8
tp1607
(I3302
I3195
tp1608
s(g6
I2
tp1609
(I3420
I3266
tp1610
ssba(iSample
Sample
p1611
(dp1612
g3
F1440426919.576254
sg4
(dp1613
(g6
I5
tp1614
(I3459
I3294
tp1615
s(g9
I7
tp1616
(I3426
I3371
tp1617
s(g9
I4
tp1618
(I3437
I3386
tp1619
s(g14
I6
tp1620
(I3554
I3440
tp1621
s(g14
I8
tp1622
(I3492
I3371
tp1623
s(g6
I2
tp1624
(I3444
I3286
tp1625
ssba(iSample
Sample
p1626
(dp1627
g3
F1440426945.225827
sg4
(dp1628
(g6
I5
tp1629
(I3649
I3465
tp1630
s(g9
I7
tp1631
(I3614
I3546
tp1632
s(g9
I4
tp1633
(I3625
I3564
tp1634
s(g14
I6
tp1635
(I3577
I3463
tp1636
s(g14
I8
tp1637
(I3515
I3394
tp1638
s(g6
I2
tp1639
(I3634
I3461
tp1640
ssba(iSample
Sample
p1641
(dp1642
g3
F1440426948.335497
sg4
(dp1643
(g6
I5
tp1644
(I3873
I3676
tp1645
s(g9
I7
tp1646
(I3838
I3763
tp1647
s(g9
I4
tp1648
(I3849
I3783
tp1649
s(g14
I6
tp1650
(I3801
I3680
tp1651
s(g14
I8
tp1652
(I3739
I3610
tp1653
s(g6
I2
tp1654
(I3858
I3672
tp1655
ssba(iSample
Sample
p1656
(dp1657
g3
F1440426978.574465
sg4
(dp1658
(g6
I5
tp1659
(I4049
I3843
tp1660
s(g9
I7
tp1661
(I4014
I3936
tp1662
s(g9
I4
tp1663
(I4025
I3955
tp1664
s(g14
I6
tp1665
(I3978
I3852
tp1666
s(g14
I8
tp1667
(I3916
I3783
tp1668
s(g6
I2
tp1669
(I4034
I3843
tp1670
ssba(iSample
Sample
p1671
(dp1672
g3
F1440427002.503432
sg4
(dp1673
(g6
I5
tp1674
(I4073
I3864
tp1675
s(g9
I7
tp1676
(I4041
I3961
tp1677
s(g9
I4
tp1678
(I4052
I3979
tp1679
s(g14
I6
tp1680
(I4004
I3876
tp1681
s(g14
I8
tp1682
(I3942
I3809
tp1683
s(g6
I2
tp1684
(I4058
I3864
tp1685
ssba(iSample
Sample
p1686
(dp1687
g3
F1440427006.006466
sg4
(dp1688
(g6
I5
tp1689
(I4099
I3887
tp1690
s(g9
I7
tp1691
(I4065
I3982
tp1692
s(g9
I4
tp1693
(I4076
I3998
tp1694
s(g14
I6
tp1695
(I4028
I3898
tp1696
s(g14
I8
tp1697
(I3966
I3832
tp1698
s(g6
I2
tp1699
(I4084
I3888
tp1700
ssba(iSample
Sample
p1701
(dp1702
g3
F1440427009.264873
sg4
(dp1703
(g6
I5
tp1704
(I4123
I3907
tp1705
s(g9
I7
tp1706
(I4088
I4004
tp1707
s(g9
I4
tp1708
(I4099
I4018
tp1709
s(g14
I6
tp1710
(I4052
I3921
tp1711
s(g14
I8
tp1712
(I3990
I3854
tp1713
s(g6
I2
tp1714
(I4108
I3906
tp1715
ssba(iSample
Sample
p1716
(dp1717
g3
F1440427012.525081
sg4
(dp1718
(g6
I5
tp1719
(I4147
I3930
tp1720
s(g9
I7
tp1721
(I4112
I4025
tp1722
s(g9
I4
tp1723
(I4123
I4039
tp1724
s(g14
I6
tp1725
(I4075
I3943
tp1726
s(g14
I8
tp1727
(I4013
I3876
tp1728
s(g6
I2
tp1729
(I4132
I3930
tp1730
ssba(iSample
Sample
p1731
(dp1732
g3
F1440427015.578544
sg4
(dp1733
(g6
I5
tp1734
(I4170
I3949
tp1735
s(g9
I7
tp1736
(I4135
I4045
tp1737
s(g9
I4
tp1738
(I4146
I4058
tp1739
s(g14
I6
tp1740
(I4099
I3967
tp1741
s(g14
I8
tp1742
(I4037
I3898
tp1743
s(g6
I2
tp1744
(I4155
I3951
tp1745
ssba(iSample
Sample
p1746
(dp1747
g3
F1440427018.83554
sg4
(dp1748
(g6
I5
tp1749
(I4194
I3970
tp1750
s(g9
I7
tp1751
(I4159
I4066
tp1752
s(g9
I4
tp1753
(I4170
I4081
tp1754
s(g14
I6
tp1755
(I4122
I3990
tp1756
s(g14
I8
tp1757
(I4060
I3921
tp1758
s(g6
I2
tp1759
(I4179
I3974
tp1760
ssba(iSample
Sample
p1761
(dp1762
g3
F1440427021.944745
sg4
(dp1763
(g6
I5
tp1764
(I4218
I3990
tp1765
s(g9
I7
tp1766
(I4183
I4087
tp1767
s(g9
I4
tp1768
(I4194
I4103
tp1769
s(g14
I6
tp1770
(I4146
I4013
tp1771
s(g14
I8
tp1772
(I4084
I3945
tp1773
s(g6
I2
tp1774
(I4203
I3997
tp1775
ssba(iSample
Sample
p1776
(dp1777
g3
F1440427025.199408
sg4
(dp1778
(g6
I5
tp1779
(I4241
I4009
tp1780
s(g9
I7
tp1781
(I4206
I4110
tp1782
s(g9
I4
tp1783
(I4217
I4125
tp1784
s(g14
I6
tp1785
(I4169
I4036
tp1786
s(g14
I8
tp1787
(I4107
I3968
tp1788
s(g6
I2
tp1789
(I4226
I4013
tp1790
ssba(iSample
Sample
p1791
(dp1792
g3
F1440427028.308211
sg4
(dp1793
(g6
I5
tp1794
(I4264
I4028
tp1795
s(g9
I7
tp1796
(I4229
I4131
tp1797
s(g9
I4
tp1798
(I4240
I4147
tp1799
s(g14
I6
tp1800
(I4192
I4058
tp1801
s(g14
I8
tp1802
(I4130
I3990
tp1803
s(g6
I2
tp1804
(I4249
I4034
tp1805
ssba(iSample
Sample
p1806
(dp1807
g3
F1440427031.413189
sg4
(dp1808
(g6
I5
tp1809
(I4287
I4048
tp1810
s(g9
I7
tp1811
(I4252
I4154
tp1812
s(g9
I4
tp1813
(I4263
I4169
tp1814
s(g14
I6
tp1815
(I4218
I4081
tp1816
s(g14
I8
tp1817
(I4156
I4015
tp1818
s(g6
I2
tp1819
(I4272
I4052
tp1820
ssba(iSample
Sample
p1821
(dp1822
g3
F1440427034.914675
sg4
(dp1823
(g6
I5
tp1824
(I4313
I4071
tp1825
s(g9
I7
tp1826
(I4278
I4179
tp1827
s(g9
I4
tp1828
(I4289
I4193
tp1829
s(g14
I6
tp1830
(I4241
I4103
tp1831
s(g14
I8
tp1832
(I4179
I4037
tp1833
s(g6
I2
tp1834
(I4298
I4074
tp1835
ssba(iSample
Sample
p1836
(dp1837
g3
F1440427038.03683
sg4
(dp1838
(g6
I5
tp1839
(I4336
I4091
tp1840
s(g9
I7
tp1841
(I4301
I4200
tp1842
s(g9
I4
tp1843
(I4312
I4215
tp1844
s(g14
I6
tp1845
(I4264
I4126
tp1846
s(g14
I8
tp1847
(I4202
I4060
tp1848
s(g6
I2
tp1849
(I4321
I4096
tp1850
ssba(iSample
Sample
p1851
(dp1852
g3
F1440427041.139386
sg4
(dp1853
(g6
I5
tp1854
(I4359
I4112
tp1855
s(g9
I7
tp1856
(I4324
I4220
tp1857
s(g9
I4
tp1858
(I4335
I4236
tp1859
s(g14
I6
tp1860
(I4290
I4151
tp1861
s(g14
I8
tp1862
(I4228
I4084
tp1863
s(g6
I2
tp1864
(I4344
I4116
tp1865
ssba(iSample
Sample
p1866
(dp1867
g3
F1440427044.646941
sg4
(dp1868
(g6
I5
tp1869
(I4385
I4136
tp1870
s(g9
I7
tp1871
(I4350
I4246
tp1872
s(g9
I4
tp1873
(I4361
I4260
tp1874
s(g14
I6
tp1875
(I4313
I4172
tp1876
s(g14
I8
tp1877
(I4251
I4106
tp1878
s(g6
I2
tp1879
(I4370
I4139
tp1880
ssba(iSample
Sample
p1881
(dp1882
g3
F1440427047.747437
sg4
(dp1883
(g6
I5
tp1884
(I4408
I4157
tp1885
s(g9
I7
tp1886
(I4373
I4269
tp1887
s(g9
I4
tp1888
(I4384
I4282
tp1889
s(g14
I6
tp1890
(I4336
I4192
tp1891
s(g14
I8
tp1892
(I4274
I4127
tp1893
s(g6
I2
tp1894
(I4393
I4161
tp1895
ssba(iSample
Sample
p1896
(dp1897
g3
F1440427050.849932
sg4
(dp1898
(g6
I5
tp1899
(I4431
I4175
tp1900
s(g9
I7
tp1901
(I4397
I4292
tp1902
s(g9
I4
tp1903
(I4408
I4304
tp1904
s(g14
I6
tp1905
(I4360
I4213
tp1906
s(g14
I8
tp1907
(I4298
I4147
tp1908
s(g6
I2
tp1909
(I4416
I4183
tp1910
ssba(iSample
Sample
p1911
(dp1912
g3
F1440427054.110957
sg4
(dp1913
(g6
I5
tp1914
(I4455
I4195
tp1915
s(g9
I7
tp1916
(I4420
I4311
tp1917
s(g9
I4
tp1918
(I4431
I4326
tp1919
s(g14
I6
tp1920
(I4383
I4235
tp1921
s(g14
I8
tp1922
(I4321
I4168
tp1923
s(g6
I2
tp1924
(I4440
I4204
tp1925
ssba(iSample
Sample
p1926
(dp1927
g3
F1440427057.215847
sg4
(dp1928
(g6
I5
tp1929
(I4478
I4215
tp1930
s(g9
I7
tp1931
(I4443
I4334
tp1932
s(g9
I4
tp1933
(I4454
I4347
tp1934
s(g14
I6
tp1935
(I4409
I4258
tp1936
s(g14
I8
tp1937
(I4347
I4191
tp1938
s(g6
I2
tp1939
(I4463
I4222
tp1940
ssba(iSample
Sample
p1941
(dp1942
g3
F1440427060.720491
sg4
(dp1943
(g6
I5
tp1944
(I4504
I4238
tp1945
s(g9
I7
tp1946
(I4469
I4357
tp1947
s(g9
I4
tp1948
(I4480
I4371
tp1949
s(g14
I6
tp1950
(I4433
I4282
tp1951
s(g14
I8
tp1952
(I4371
I4214
tp1953
s(g6
I2
tp1954
(I4489
I4244
tp1955
ssba(iSample
Sample
p1956
(dp1957
g3
F1440427063.979979
sg4
(dp1958
(g6
I5
tp1959
(I4528
I4260
tp1960
s(g9
I7
tp1961
(I4494
I4380
tp1962
s(g9
I4
tp1963
(I4505
I4395
tp1964
s(g14
I6
tp1965
(I4457
I4305
tp1966
s(g14
I8
tp1967
(I4395
I4237
tp1968
s(g6
I2
tp1969
(I4513
I4265
tp1970
ssba(iSample
Sample
p1971
(dp1972
g3
F1440427067.185129
sg4
(dp1973
(g6
I5
tp1974
(I4552
I4284
tp1975
s(g9
I7
tp1976
(I4517
I4402
tp1977
s(g9
I4
tp1978
(I4528
I4417
tp1979
s(g14
I6
tp1980
(I4480
I4324
tp1981
s(g14
I8
tp1982
(I4418
I4259
tp1983
s(g6
I2
tp1984
(I4537
I4287
tp1985
ssba(iSample
Sample
p1986
(dp1987
g3
F1440427070.290255
sg4
(dp1988
(g6
I5
tp1989
(I4575
I4307
tp1990
s(g9
I7
tp1991
(I4541
I4426
tp1992
s(g9
I4
tp1993
(I4552
I4441
tp1994
s(g14
I6
tp1995
(I4506
I4349
tp1996
s(g14
I8
tp1997
(I4444
I4285
tp1998
s(g6
I2
tp1999
(I4560
I4308
tp2000
ssba(iSample
Sample
p2001
(dp2002
g3
F1440427073.795439
sg4
(dp2003
(g6
I5
tp2004
(I4601
I4330
tp2005
s(g9
I7
tp2006
(I4566
I4451
tp2007
s(g9
I4
tp2008
(I4577
I4466
tp2009
s(g14
I6
tp2010
(I4529
I4371
tp2011
s(g14
I8
tp2012
(I4467
I4307
tp2013
s(g6
I2
tp2014
(I4586
I4330
tp2015
ssba(iSample
Sample
p2016
(dp2017
g3
F1440427076.921677
sg4
(dp2018
(g6
I5
tp2019
(I4624
I4352
tp2020
s(g9
I7
tp2021
(I4589
I4474
tp2022
s(g9
I4
tp2023
(I4600
I4488
tp2024
s(g14
I6
tp2025
(I4552
I4393
tp2026
s(g14
I8
tp2027
(I4490
I4328
tp2028
s(g6
I2
tp2029
(I4609
I4351
tp2030
ssba(iSample
Sample
p2031
(dp2032
g3
F1440427080.048916
sg4
(dp2033
(g6
I5
tp2034
(I4647
I4374
tp2035
s(g9
I7
tp2036
(I4612
I4493
tp2037
s(g9
I4
tp2038
(I4623
I4510
tp2039
s(g14
I6
tp2040
(I4575
I4415
tp2041
s(g14
I8
tp2042
(I4513
I4347
tp2043
s(g6
I2
tp2044
(I4632
I4370
tp2045
ssba(iSample
Sample
p2046
(dp2047
g3
F1440427083.155273
sg4
(dp2048
(g6
I5
tp2049
(I4672
I4394
tp2050
s(g9
I7
tp2051
(I4637
I4517
tp2052
s(g9
I4
tp2053
(I4648
I4533
tp2054
s(g14
I6
tp2055
(I4600
I4439
tp2056
s(g14
I8
tp2057
(I4538
I4368
tp2058
s(g6
I2
tp2059
(I4657
I4393
tp2060
ssba(iSample
Sample
p2061
(dp2062
g3
F1440427086.522947
sg4
(dp2063
(g6
I5
tp2064
(I4695
I4415
tp2065
s(g9
I7
tp2066
(I4660
I4538
tp2067
s(g9
I4
tp2068
(I4671
I4554
tp2069
s(g14
I6
tp2070
(I4625
I4459
tp2071
s(g14
I8
tp2072
(I4563
I4389
tp2073
s(g6
I2
tp2074
(I4680
I4413
tp2075
ssba(iSample
Sample
p2076
(dp2077
g3
F1440427089.8823
sg4
(dp2078
(g6
I5
tp2079
(I4720
I4438
tp2080
s(g9
I7
tp2081
(I4685
I4563
tp2082
s(g9
I4
tp2083
(I4696
I4579
tp2084
s(g14
I6
tp2085
(I4648
I4481
tp2086
s(g14
I8
tp2087
(I4586
I4410
tp2088
s(g6
I2
tp2089
(I4705
I4437
tp2090
ssba(iSample
Sample
p2091
(dp2092
g3
F1440427092.989604
sg4
(dp2093
(g6
I5
tp2094
(I4743
I4459
tp2095
s(g9
I7
tp2096
(I4709
I4586
tp2097
s(g9
I4
tp2098
(I4720
I4603
tp2099
s(g14
I6
tp2100
(I4672
I4503
tp2101
s(g14
I8
tp2102
(I4610
I4432
tp2103
s(g6
I2
tp2104
(I4728
I4457
tp2105
ssba(iSample
Sample
p2106
(dp2107
g3
F1440427096.246247
sg4
(dp2108
(g6
I5
tp2109
(I4767
I4483
tp2110
s(g9
I7
tp2111
(I4732
I4609
tp2112
s(g9
I4
tp2113
(I4743
I4626
tp2114
s(g14
I6
tp2115
(I4695
I4524
tp2116
s(g14
I8
tp2117
(I4633
I4453
tp2118
s(g6
I2
tp2119
(I4752
I4478
tp2120
ssba(iSample
Sample
p2121
(dp2122
g3
F1440427099.411835
sg4
(dp2123
(g6
I5
tp2124
(I4794
I4504
tp2125
s(g9
I7
tp2126
(I4759
I4634
tp2127
s(g9
I4
tp2128
(I4770
I4651
tp2129
s(g14
I6
tp2130
(I4722
I4550
tp2131
s(g14
I8
tp2132
(I4660
I4478
tp2133
s(g6
I2
tp2134
(I4779
I4504
tp2135
ssba(iSample
Sample
p2136
(dp2137
g3
F1440427102.968992
sg4
(dp2138
(g6
I5
tp2139
(I4817
I4525
tp2140
s(g9
I7
tp2141
(I4782
I4656
tp2142
s(g9
I4
tp2143
(I4793
I4673
tp2144
s(g14
I6
tp2145
(I4745
I4573
tp2146
s(g14
I8
tp2147
(I4683
I4501
tp2148
s(g6
I2
tp2149
(I4802
I4526
tp2150
ssba(iSample
Sample
p2151
(dp2152
g3
F1440427106.076075
sg4
(dp2153
(g6
I5
tp2154
(I4840
I4548
tp2155
s(g9
I7
tp2156
(I4805
I4679
tp2157
s(g9
I4
tp2158
(I4816
I4696
tp2159
s(g14
I6
tp2160
(I4768
I4594
tp2161
s(g14
I8
tp2162
(I4706
I4524
tp2163
s(g6
I2
tp2164
(I4825
I4546
tp2165
ssba(iSample
Sample
p2166
(dp2167
g3
F1440427109.198252
sg4
(dp2168
(g6
I5
tp2169
(I4863
I4567
tp2170
s(g9
I7
tp2171
(I4828
I4700
tp2172
s(g9
I4
tp2173
(I4839
I4719
tp2174
s(g14
I6
tp2175
(I4791
I4615
tp2176
s(g14
I8
tp2177
(I4729
I4546
tp2178
s(g6
I2
tp2179
(I4848
I4565
tp2180
ssba(iSample
Sample
p2181
(dp2182
g3
F1440427112.305006
sg4
(dp2183
(g6
I5
tp2184
(I4886
I4586
tp2185
s(g9
I7
tp2186
(I4856
I4727
tp2187
s(g9
I4
tp2188
(I4867
I4747
tp2189
s(g14
I6
tp2190
(I4821
I4645
tp2191
s(g14
I8
tp2192
(I4759
I4575
tp2193
s(g6
I2
tp2194
(I4871
I4585
tp2195
ssba(iSample
Sample
p2196
(dp2197
g3
F1440427116.39716
sg4
(dp2198
(g6
I5
tp2199
(I4917
I4613
tp2200
s(g9
I7
tp2201
(I4882
I4749
tp2202
s(g9
I4
tp2203
(I4893
I4772
tp2204
s(g14
I6
tp2205
(I4845
I4669
tp2206
s(g14
I8
tp2207
(I4783
I4599
tp2208
s(g6
I2
tp2209
(I4902
I4615
tp2210
ssba(iSample
Sample
p2211
(dp2212
g3
F1440427119.608296
sg4
(dp2213
(g6
I5
tp2214
(I4940
I4633
tp2215
s(g9
I7
tp2216
(I4905
I4772
tp2217
s(g9
I4
tp2218
(I4916
I4795
tp2219
s(g14
I6
tp2220
(I4868
I4689
tp2221
s(g14
I8
tp2222
(I4806
I4622
tp2223
s(g6
I2
tp2224
(I4925
I4637
tp2225
ssba(iSample
Sample
p2226
(dp2227
g3
F1440427122.715722
sg4
(dp2228
(g6
I5
tp2229
(I4964
I4655
tp2230
s(g9
I7
tp2231
(I4929
I4796
tp2232
s(g9
I4
tp2233
(I4940
I4818
tp2234
s(g14
I6
tp2235
(I4892
I4712
tp2236
s(g14
I8
tp2237
(I4830
I4645
tp2238
s(g6
I2
tp2239
(I4949
I4658
tp2240
ssba(iSample
Sample
p2241
(dp2242
g3
F1440427125.920473
sg4
(dp2243
(g6
I5
tp2244
(I4987
I4676
tp2245
s(g9
I7
tp2246
(I4952
I4816
tp2247
s(g9
I4
tp2248
(I4963
I4841
tp2249
s(g14
I6
tp2250
(I4915
I4735
tp2251
s(g14
I8
tp2252
(I4853
I4666
tp2253
s(g6
I2
tp2254
(I4972
I4678
tp2255
ssba(iSample
Sample
p2256
(dp2257
g3
F1440427129.025627
sg4
(dp2258
(g6
I5
tp2259
(I5010
I4694
tp2260
s(g9
I7
tp2261
(I4975
I4838
tp2262
s(g9
I4
tp2263
(I4986
I4860
tp2264
s(g14
I6
tp2265
(I4938
I4756
tp2266
s(g14
I8
tp2267
(I4876
I4689
tp2268
s(g6
I2
tp2269
(I4995
I4697
tp2270
ssba(iSample
Sample
p2271
(dp2272
g3
F1440427132.135502
sg4
(dp2273
(g6
I5
tp2274
(I5196
I4858
tp2275
s(g9
I7
tp2276
(I5162
I5014
tp2277
s(g9
I4
tp2278
(I5173
I5033
tp2279
s(g14
I6
tp2280
(I5125
I4935
tp2281
s(g14
I8
tp2282
(I5063
I4867
tp2283
s(g6
I2
tp2284
(I5181
I4862
tp2285
ssba(iSample
Sample
p2286
(dp2287
g3
F1440427157.405861
sg4
(dp2288
(g6
I5
tp2289
(I5220
I4877
tp2290
s(g9
I7
tp2291
(I5185
I5037
tp2292
s(g9
I4
tp2293
(I5196
I5055
tp2294
s(g14
I6
tp2295
(I5149
I4959
tp2296
s(g14
I8
tp2297
(I5087
I4891
tp2298
s(g6
I2
tp2299
(I5205
I4882
tp2300
ssba(iSample
Sample
p2301
(dp2302
g3
F1440427160.662968
sg4
(dp2303
(g6
I5
tp2304
(I5244
I4896
tp2305
s(g9
I7
tp2306
(I5209
I5059
tp2307
s(g9
I4
tp2308
(I5220
I5078
tp2309
s(g14
I6
tp2310
(I5172
I4982
tp2311
s(g14
I8
tp2312
(I5110
I4913
tp2313
s(g6
I2
tp2314
(I5229
I4904
tp2315
ssba(iSample
Sample
p2316
(dp2317
g3
F1440427163.774934
sg4
(dp2318
(g6
I5
tp2319
(I5270
I4921
tp2320
s(g9
I7
tp2321
(I5235
I5085
tp2322
s(g9
I4
tp2323
(I5246
I5103
tp2324
s(g14
I6
tp2325
(I5198
I5006
tp2326
s(g14
I8
tp2327
(I5136
I4939
tp2328
s(g6
I2
tp2329
(I5255
I4928
tp2330
ssba(iSample
Sample
p2331
(dp2332
g3
F1440427167.284791
sg4
(dp2333
(g6
I5
tp2334
(I5293
I4941
tp2335
s(g9
I7
tp2336
(I5258
I5107
tp2337
s(g9
I4
tp2338
(I5269
I5126
tp2339
s(g14
I6
tp2340
(I5221
I5029
tp2341
s(g14
I8
tp2342
(I5159
I4961
tp2343
s(g6
I2
tp2344
(I5278
I4949
tp2345
ssba(iSample
Sample
p2346
(dp2347
g3
F1440427170.430846
sg4
(dp2348
(g6
I5
tp2349
(I5317
I4962
tp2350
s(g9
I7
tp2351
(I5283
I5130
tp2352
s(g9
I4
tp2353
(I5294
I5148
tp2354
s(g14
I6
tp2355
(I5246
I5054
tp2356
s(g14
I8
tp2357
(I5184
I4986
tp2358
s(g6
I2
tp2359
(I5302
I4967
tp2360
ssba(iSample
Sample
p2361
(dp2362
g3
F1440427173.736781
sg4
(dp2363
(g6
I5
tp2364
(I5341
I4983
tp2365
s(g9
I7
tp2366
(I5314
I5159
tp2367
s(g9
I4
tp2368
(I5325
I5177
tp2369
s(g14
I6
tp2370
(I5278
I5086
tp2371
s(g14
I8
tp2372
(I5216
I5017
tp2373
s(g6
I2
tp2374
(I5326
I4988
tp2375
ssba(iSample
Sample
p2376
(dp2377
g3
F1440427178.094271
sg4
(dp2378
(g6
I5
tp2379
(I5374
I5010
tp2380
s(g9
I7
tp2381
(I5339
I5183
tp2382
s(g9
I4
tp2383
(I5350
I5201
tp2384
s(g14
I6
tp2385
(I5303
I5111
tp2386
s(g14
I8
tp2387
(I5241
I5042
tp2388
s(g6
I2
tp2389
(I5359
I5015
tp2390
ssba(iSample
Sample
p2391
(dp2392
g3
F1440427181.453937
sg4
(dp2393
(g6
I5
tp2394
(I5398
I5030
tp2395
s(g9
I7
tp2396
(I5363
I5205
tp2397
s(g9
I4
tp2398
(I5374
I5221
tp2399
s(g14
I6
tp2400
(I5326
I5134
tp2401
s(g14
I8
tp2402
(I5264
I5064
tp2403
s(g6
I2
tp2404
(I5383
I5033
tp2405
ssba(iSample
Sample
p2406
(dp2407
g3
F1440427184.574094
sg4
(dp2408
(g6
I5
tp2409
(I5421
I5048
tp2410
s(g9
I7
tp2411
(I5386
I5226
tp2412
s(g9
I4
tp2413
(I5397
I5243
tp2414
s(g14
I6
tp2415
(I5349
I5157
tp2416
s(g14
I8
tp2417
(I5287
I5086
tp2418
s(g6
I2
tp2419
(I5406
I5054
tp2420
ssba(iSample
Sample
p2421
(dp2422
g3
F1440427187.680537
sg4
(dp2423
(g6
I5
tp2424
(I5449
I5072
tp2425
s(g9
I7
tp2426
(I5414
I5250
tp2427
s(g9
I4
tp2428
(I5425
I5269
tp2429
s(g14
I6
tp2430
(I5378
I5185
tp2431
s(g14
I8
tp2432
(I5316
I5114
tp2433
s(g6
I2
tp2434
(I5434
I5077
tp2435
ssba(iSample
Sample
p2436
(dp2437
g3
F1440427191.590869
sg4
(dp2438
(g6
I5
tp2439
(I5473
I5093
tp2440
s(g9
I7
tp2441
(I5438
I5272
tp2442
s(g9
I4
tp2443
(I5449
I5290
tp2444
s(g14
I6
tp2445
(I5401
I5207
tp2446
s(g14
I8
tp2447
(I5339
I5135
tp2448
s(g6
I2
tp2449
(I5458
I5096
tp2450
ssba(iSample
Sample
p2451
(dp2452
g3
F1440427194.700658
sg4
(dp2453
(g6
I5
tp2454
(I5497
I5114
tp2455
s(g9
I7
tp2456
(I5462
I5293
tp2457
s(g9
I4
tp2458
(I5473
I5310
tp2459
s(g14
I6
tp2460
(I5425
I5229
tp2461
s(g14
I8
tp2462
(I5363
I5157
tp2463
s(g6
I2
tp2464
(I5482
I5116
tp2465
ssba(iSample
Sample
p2466
(dp2467
g3
F1440427197.91925
sg4
(dp2468
(g6
I5
tp2469
(I5520
I5133
tp2470
s(g9
I7
tp2471
(I5485
I5315
tp2472
s(g9
I4
tp2473
(I5496
I5331
tp2474
s(g14
I6
tp2475
(I5448
I5252
tp2476
s(g14
I8
tp2477
(I5386
I5177
tp2478
s(g6
I2
tp2479
(I5505
I5137
tp2480
ssba(iSample
Sample
p2481
(dp2482
g3
F1440427201.030246
sg4
(dp2483
(g6
I5
tp2484
(I5543
I5154
tp2485
s(g9
I7
tp2486
(I5509
I5337
tp2487
s(g9
I4
tp2488
(I5520
I5354
tp2489
s(g14
I6
tp2490
(I5472
I5276
tp2491
s(g14
I8
tp2492
(I5410
I5201
tp2493
s(g6
I2
tp2494
(I5528
I5158
tp2495
ssba(iSample
Sample
p2496
(dp2497
g3
F1440427204.283328
sg4
(dp2498
(g6
I5
tp2499
(I5567
I5176
tp2500
s(g9
I7
tp2501
(I5532
I5360
tp2502
s(g9
I4
tp2503
(I5543
I5377
tp2504
s(g14
I6
tp2505
(I5497
I5301
tp2506
s(g14
I8
tp2507
(I5435
I5226
tp2508
s(g6
I2
tp2509
(I5552
I5181
tp2510
ssba(iSample
Sample
p2511
(dp2512
g3
F1440427207.640857
sg4
(dp2513
(g6
I5
tp2514
(I5592
I5201
tp2515
s(g9
I7
tp2516
(I5560
I5388
tp2517
s(g9
I4
tp2518
(I5571
I5404
tp2519
s(g14
I6
tp2520
(I5524
I5328
tp2521
s(g14
I8
tp2522
(I5462
I5253
tp2523
s(g6
I2
tp2524
(I5577
I5204
tp2525
ssba(iSample
Sample
p2526
(dp2527
g3
F1440427211.355191
sg4
(dp2528
(g6
I5
tp2529
(I5620
I5227
tp2530
s(g9
I7
tp2531
(I5585
I5413
tp2532
s(g9
I4
tp2533
(I5596
I5429
tp2534
s(g14
I6
tp2535
(I5548
I5352
tp2536
s(g14
I8
tp2537
(I5486
I5277
tp2538
s(g6
I2
tp2539
(I5605
I5230
tp2540
ssba(iSample
Sample
p2541
(dp2542
g3
F1440427214.595442
sg4
(dp2543
(g6
I5
tp2544
(I5644
I5246
tp2545
s(g9
I7
tp2546
(I5609
I5437
tp2547
s(g9
I4
tp2548
(I5620
I5453
tp2549
s(g14
I6
tp2550
(I5572
I5376
tp2551
s(g14
I8
tp2552
(I5510
I5301
tp2553
s(g6
I2
tp2554
(I5629
I5252
tp2555
ssba(iSample
Sample
p2556
(dp2557
g3
F1440427217.881693
sg4
(dp2558
(g6
I5
tp2559
(I5668
I5269
tp2560
s(g9
I7
tp2561
(I5633
I5460
tp2562
s(g9
I4
tp2563
(I5644
I5477
tp2564
s(g14
I6
tp2565
(I5596
I5400
tp2566
s(g14
I8
tp2567
(I5534
I5325
tp2568
s(g6
I2
tp2569
(I5653
I5275
tp2570
ssba(iSample
Sample
p2571
(dp2572
g3
F1440427221.092745
sg4
(dp2573
(g6
I5
tp2574
(I5692
I5292
tp2575
s(g9
I7
tp2576
(I5657
I5483
tp2577
s(g9
I4
tp2578
(I5668
I5501
tp2579
s(g14
I6
tp2580
(I5620
I5424
tp2581
s(g14
I8
tp2582
(I5558
I5349
tp2583
s(g6
I2
tp2584
(I5677
I5298
tp2585
ssba(iSample
Sample
p2586
(dp2587
g3
F1440427224.248541
sg4
(dp2588
(g6
I5
tp2589
(I5715
I5313
tp2590
s(g9
I7
tp2591
(I5680
I5506
tp2592
s(g9
I4
tp2593
(I5691
I5523
tp2594
s(g14
I6
tp2595
(I5643
I5447
tp2596
s(g14
I8
tp2597
(I5581
I5372
tp2598
s(g6
I2
tp2599
(I5700
I5321
tp2600
ssba(iSample
Sample
p2601
(dp2602
g3
F1440427227.375474
sg4
(dp2603
(g6
I5
tp2604
(I5738
I5334
tp2605
s(g9
I7
tp2606
(I5703
I5529
tp2607
s(g9
I4
tp2608
(I5714
I5545
tp2609
s(g14
I6
tp2610
(I5666
I5470
tp2611
s(g14
I8
tp2612
(I5604
I5395
tp2613
s(g6
I2
tp2614
(I5723
I5343
tp2615
ssba(iSample
Sample
p2616
(dp2617
g3
F1440427230.479183
sg4
(dp2618
(g6
I5
tp2619
(I5761
I5355
tp2620
s(g9
I7
tp2621
(I5726
I5552
tp2622
s(g9
I4
tp2623
(I5737
I5568
tp2624
s(g14
I6
tp2625
(I5689
I5493
tp2626
s(g14
I8
tp2627
(I5627
I5418
tp2628
s(g6
I2
tp2629
(I5746
I5364
tp2630
ssba(iSample
Sample
p2631
(dp2632
g3
F1440427233.590426
sg4
(dp2633
(g6
I5
tp2634
(I5784
I5376
tp2635
s(g9
I7
tp2636
(I5749
I5575
tp2637
s(g9
I4
tp2638
(I5760
I5591
tp2639
s(g14
I6
tp2640
(I5712
I5516
tp2641
s(g14
I8
tp2642
(I5650
I5441
tp2643
s(g6
I2
tp2644
(I5769
I5386
tp2645
ssba(iSample
Sample
p2646
(dp2647
g3
F1440427236.705761
sg4
(dp2648
(g6
I5
tp2649
(I5807
I5399
tp2650
s(g9
I7
tp2651
(I5772
I5598
tp2652
s(g9
I4
tp2653
(I5783
I5614
tp2654
s(g14
I6
tp2655
(I5735
I5539
tp2656
s(g14
I8
tp2657
(I5673
I5464
tp2658
s(g6
I2
tp2659
(I5792
I5408
tp2660
ssba(iSample
Sample
p2661
(dp2662
g3
F1440427239.84321
sg4
(dp2663
(g6
I5
tp2664
(I5831
I5421
tp2665
s(g9
I7
tp2666
(I5796
I5621
tp2667
s(g9
I4
tp2668
(I5807
I5638
tp2669
s(g14
I6
tp2670
(I5759
I5563
tp2671
s(g14
I8
tp2672
(I5697
I5488
tp2673
s(g6
I2
tp2674
(I5816
I5430
tp2675
ssba(iSample
Sample
p2676
(dp2677
g3
F1440427243.049141
sg4
(dp2678
(g6
I5
tp2679
(I5854
I5443
tp2680
s(g9
I7
tp2681
(I5819
I5644
tp2682
s(g9
I4
tp2683
(I5830
I5661
tp2684
s(g14
I6
tp2685
(I5782
I5586
tp2686
s(g14
I8
tp2687
(I5720
I5511
tp2688
s(g6
I2
tp2689
(I5839
I5451
tp2690
ssba(iSample
Sample
p2691
(dp2692
g3
F1440427246.157723
sg4
(dp2693
(g6
I5
tp2694
(I5877
I5466
tp2695
s(g9
I7
tp2696
(I5845
I5670
tp2697
s(g9
I4
tp2698
(I5856
I5687
tp2699
s(g14
I6
tp2700
(I5808
I5612
tp2701
s(g14
I8
tp2702
(I5746
I5537
tp2703
s(g6
I2
tp2704
(I5862
I5473
tp2705
ssba(iSample
Sample
p2706
(dp2707
g3
F1440427249.671649
sg4
(dp2708
(g6
I5
tp2709
(I5903
I5492
tp2710
s(g9
I7
tp2711
(I5868
I5693
tp2712
s(g9
I4
tp2713
(I5879
I5709
tp2714
s(g14
I6
tp2715
(I5831
I5635
tp2716
s(g14
I8
tp2717
(I5769
I5560
tp2718
s(g6
I2
tp2719
(I5888
I5499
tp2720
ssba(iSample
Sample
p2721
(dp2722
g3
F1440427252.776674
sg4
(dp2723
(g6
I5
tp2724
(I5926
I5515
tp2725
s(g9
I7
tp2726
(I5891
I5716
tp2727
s(g9
I4
tp2728
(I5902
I5732
tp2729
s(g14
I6
tp2730
(I5854
I5658
tp2731
s(g14
I8
tp2732
(I5792
I5583
tp2733
s(g6
I2
tp2734
(I5911
I5521
tp2735
ssba(iSample
Sample
p2736
(dp2737
g3
F1440427255.891484
sg4
(dp2738
(g6
I5
tp2739
(I5950
I5537
tp2740
s(g9
I7
tp2741
(I5919
I5744
tp2742
s(g9
I4
tp2743
(I5930
I5759
tp2744
s(g14
I6
tp2745
(I5882
I5686
tp2746
s(g14
I8
tp2747
(I5820
I5611
tp2748
s(g6
I2
tp2749
(I5935
I5542
tp2750
ssba(iSample
Sample
p2751
(dp2752
g3
F1440427259.651014
sg4
(dp2753
(g6
I5
tp2754
(I5977
I5561
tp2755
s(g9
I7
tp2756
(I5942
I5767
tp2757
s(g9
I4
tp2758
(I5953
I5782
tp2759
s(g14
I6
tp2760
(I5905
I5709
tp2761
s(g14
I8
tp2762
(I5843
I5634
tp2763
s(g6
I2
tp2764
(I5962
I5566
tp2765
ssba(iSample
Sample
p2766
(dp2767
g3
F1440427262.758223
sg4
(dp2768
(g6
I5
tp2769
(I6000
I5582
tp2770
s(g9
I7
tp2771
(I5965
I5790
tp2772
s(g9
I4
tp2773
(I5976
I5804
tp2774
s(g14
I6
tp2775
(I5928
I5732
tp2776
s(g14
I8
tp2777
(I5866
I5657
tp2778
s(g6
I2
tp2779
(I5985
I5589
tp2780
ssba(iSample
Sample
p2781
(dp2782
g3
F1440427265.884841
sg4
(dp2783
(g6
I5
tp2784
(I6024
I5606
tp2785
s(g9
I7
tp2786
(I5989
I5813
tp2787
s(g9
I4
tp2788
(I6000
I5828
tp2789
s(g14
I6
tp2790
(I5960
I5764
tp2791
s(g14
I8
tp2792
(I5898
I5689
tp2793
s(g6
I2
tp2794
(I6009
I5613
tp2795
ssba(iSample
Sample
p2796
(dp2797
g3
F1440427270.191837
sg4
(dp2798
(g6
I5
tp2799
(I6055
I5635
tp2800
s(g9
I7
tp2801
(I6020
I5844
tp2802
s(g9
I4
tp2803
(I6031
I5859
tp2804
s(g14
I6
tp2805
(I5983
I5787
tp2806
s(g14
I8
tp2807
(I5921
I5712
tp2808
s(g6
I2
tp2809
(I6040
I5641
tp2810
ssba(iSample
Sample
p2811
(dp2812
g3
F1440427273.305966
sg4
(dp2813
(g6
I5
tp2814
(I6078
I5655
tp2815
s(g9
I7
tp2816
(I6043
I5867
tp2817
s(g9
I4
tp2818
(I6054
I5881
tp2819
s(g14
I6
tp2820
(I6006
I5810
tp2821
s(g14
I8
tp2822
(I5944
I5733
tp2823
s(g6
I2
tp2824
(I6063
I5662
tp2825
ssba(iSample
Sample
p2826
(dp2827
g3
F1440427276.410582
sg4
(dp2828
(g6
I5
tp2829
(I6101
I5677
tp2830
s(g9
I7
tp2831
(I6069
I5893
tp2832
s(g9
I4
tp2833
(I6080
I5907
tp2834
s(g14
I6
tp2835
(I6032
I5836
tp2836
s(g14
I8
tp2837
(I5970
I5759
tp2838
s(g6
I2
tp2839
(I6086
I5684
tp2840
ssba(iSample
Sample
p2841
(dp2842
g3
F1440427279.922202
sg4
(dp2843
(g6
I5
tp2844
(I6127
I5702
tp2845
s(g9
I7
tp2846
(I6092
I5916
tp2847
s(g9
I4
tp2848
(I6103
I5930
tp2849
s(g14
I6
tp2850
(I6055
I5859
tp2851
s(g14
I8
tp2852
(I5993
I5781
tp2853
s(g6
I2
tp2854
(I6112
I5709
tp2855
ssba(iSample
Sample
p2856
(dp2857
g3
F1440427283.030773
sg4
(dp2858
(g6
I5
tp2859
(I6150
I5723
tp2860
s(g9
I7
tp2861
(I6115
I5939
tp2862
s(g9
I4
tp2863
(I6126
I5953
tp2864
s(g14
I6
tp2865
(I6078
I5882
tp2866
s(g14
I8
tp2867
(I6016
I5804
tp2868
s(g6
I2
tp2869
(I6135
I5730
tp2870
ssba(iSample
Sample
p2871
(dp2872
g3
F1440427286.149457
sg4
(dp2873
(g6
I5
tp2874
(I6174
I5747
tp2875
s(g9
I7
tp2876
(I6139
I5963
tp2877
s(g9
I4
tp2878
(I6150
I5977
tp2879
s(g14
I6
tp2880
(I6104
I5908
tp2881
s(g14
I8
tp2882
(I6042
I5830
tp2883
s(g6
I2
tp2884
(I6159
I5754
tp2885
ssba(iSample
Sample
p2886
(dp2887
g3
F1440427289.611375
sg4
(dp2888
(g6
I5
tp2889
(I6199
I5771
tp2890
s(g9
I7
tp2891
(I6164
I5988
tp2892
s(g9
I4
tp2893
(I6175
I6002
tp2894
s(g14
I6
tp2895
(I6127
I5931
tp2896
s(g14
I8
tp2897
(I6065
I5853
tp2898
s(g6
I2
tp2899
(I6184
I5778
tp2900
ssba(iSample
Sample
p2901
(dp2902
g3
F1440427292.733831
sg4
(dp2903
(g6
I5
tp2904
(I6222
I5792
tp2905
s(g9
I7
tp2906
(I6188
I6011
tp2907
s(g9
I4
tp2908
(I6199
I6025
tp2909
s(g14
I6
tp2910
(I6151
I5955
tp2911
s(g14
I8
tp2912
(I6089
I5876
tp2913
s(g6
I2
tp2914
(I6207
I5801
tp2915
ssba(iSample
Sample
p2916
(dp2917
g3
F1440427296.067796
sg4
(dp2918
(g6
I5
tp2919
(I6247
I5817
tp2920
s(g9
I7
tp2921
(I6213
I6036
tp2922
s(g9
I4
tp2923
(I6224
I6050
tp2924
s(g14
I6
tp2925
(I6176
I5980
tp2926
s(g14
I8
tp2927
(I6114
I5901
tp2928
s(g6
I2
tp2929
(I6232
I5825
tp2930
ssba(iSample
Sample
p2931
(dp2932
g3
F1440427299.436919
sg4
(dp2933
(g6
I5
tp2934
(I6272
I5839
tp2935
s(g9
I7
tp2936
(I6237
I6060
tp2937
s(g9
I4
tp2938
(I6248
I6074
tp2939
s(g14
I6
tp2940
(I6200
I6004
tp2941
s(g14
I8
tp2942
(I6138
I5925
tp2943
s(g6
I2
tp2944
(I6257
I5849
tp2945
ssba(iSample
Sample
p2946
(dp2947
g3
F1440427302.595032
sg4
(dp2948
(g6
I5
tp2949
(I6297
I5861
tp2950
s(g9
I7
tp2951
(I6262
I6085
tp2952
s(g9
I4
tp2953
(I6273
I6099
tp2954
s(g14
I6
tp2955
(I6225
I6029
tp2956
s(g14
I8
tp2957
(I6163
I5950
tp2958
s(g6
I2
tp2959
(I6282
I5872
tp2960
ssba(iSample
Sample
p2961
(dp2962
g3
F1440427305.957122
sg4
(dp2963
(g6
I5
tp2964
(I6320
I5882
tp2965
s(g9
I7
tp2966
(I6285
I6106
tp2967
s(g9
I4
tp2968
(I6296
I6122
tp2969
s(g14
I6
tp2970
(I6248
I6052
tp2971
s(g14
I8
tp2972
(I6186
I5973
tp2973
s(g6
I2
tp2974
(I6305
I5894
tp2975
ssba(iSample
Sample
p2976
(dp2977
g3
F1440427309.07098
sg4
(dp2978
(g6
I5
tp2979
(I6343
I5905
tp2980
s(g9
I7
tp2981
(I6309
I6130
tp2982
s(g9
I4
tp2983
(I6320
I6146
tp2984
s(g14
I6
tp2985
(I6272
I6076
tp2986
s(g14
I8
tp2987
(I6210
I5997
tp2988
s(g6
I2
tp2989
(I6328
I5916
tp2990
ssba(iSample
Sample
p2991
(dp2992
g3
F1440427312.348883
sg4
(dp2993
(g6
I5
tp2994
(I6367
I5928
tp2995
s(g9
I7
tp2996
(I6332
I6152
tp2997
s(g9
I4
tp2998
(I6343
I6169
tp2999
s(g14
I6
tp3000
(I6295
I6099
tp3001
s(g14
I8
tp3002
(I6233
I6019
tp3003
s(g6
I2
tp3004
(I6352
I5939
tp3005
ssba.