(lp0
(iSample
Sample
p1
(dp2
S'timeStamp'
p3
F1440751368.783191
sS'moteSignal'
p4
(dp5
S'8031'
p6
(I-52
I237
tp7
ssS'moteData'
p8
(dp9
(g6
I5
tp10
(I37
I37
tp11
s(g6
I3
tp12
(I25
I25
tp13
ssba(iSample
Sample
p14
(dp15
g3
F1440751372.383142
sg4
(dp16
g6
(I-50
I241
tp17
ssg8
(dp18
(g6
I5
tp19
(I63
I63
tp20
s(g6
I3
tp21
(I51
I51
tp22
ssba(iSample
Sample
p23
(dp24
g3
F1440751375.7792
sg4
(dp25
g6
(I-52
I230
tp26
ssg8
(dp27
(g6
I5
tp28
(I88
I88
tp29
s(g6
I3
tp30
(I76
I76
tp31
ssba(iSample
Sample
p32
(dp33
g3
F1440751379.138031
sg4
(dp34
g6
(I-51
I242
tp35
ssg8
(dp36
(g6
I5
tp37
(I114
I114
tp38
s(g6
I3
tp39
(I102
I102
tp40
ssba(iSample
Sample
p41
(dp42
g3
F1440751382.657945
sg4
(dp43
g6
(I-47
I242
tp44
ssg8
(dp45
(g6
I5
tp46
(I139
I139
tp47
s(g6
I3
tp48
(I127
I127
tp49
ssba(iSample
Sample
p50
(dp51
g3
F1440751386.049772
sg4
(dp52
g6
(I-45
I242
tp53
ssg8
(dp54
(g6
I5
tp55
(I164
I164
tp56
s(g6
I3
tp57
(I152
I152
tp58
ssba(iSample
Sample
p59
(dp60
g3
F1440751389.432009
sg4
(dp61
g6
(I-47
I236
tp62
ssg8
(dp63
(g6
I5
tp64
(I189
I189
tp65
s(g6
I3
tp66
(I177
I177
tp67
ssba(iSample
Sample
p68
(dp69
g3
F1440751392.792336
sg4
(dp70
g6
(I-46
I241
tp71
ssg8
(dp72
(g6
I5
tp73
(I214
I214
tp74
s(g6
I3
tp75
(I202
I202
tp76
ssba(iSample
Sample
p77
(dp78
g3
F1440751396.204026
sg4
(dp79
g6
(I-46
I242
tp80
ssg8
(dp81
(g6
I5
tp82
(I240
I240
tp83
s(g6
I3
tp84
(I228
I228
tp85
ssba(iSample
Sample
p86
(dp87
g3
F1440751399.725453
sg4
(dp88
g6
(I-44
I242
tp89
ssg8
(dp90
(g6
I5
tp91
(I266
I266
tp92
s(g6
I3
tp93
(I254
I254
tp94
ssba(iSample
Sample
p95
(dp96
g3
F1440751403.239235
sg4
(dp97
g6
(I-45
I241
tp98
ssg8
(dp99
(g6
I5
tp100
(I292
I292
tp101
s(g6
I3
tp102
(I280
I280
tp103
ssba(iSample
Sample
p104
(dp105
g3
F1440751406.709697
sg4
(dp106
g6
(I-47
I236
tp107
ssg8
(dp108
(g6
I5
tp109
(I317
I317
tp110
s(g6
I3
tp111
(I305
I305
tp112
ssba(iSample
Sample
p113
(dp114
g3
F1440751410.120668
sg4
(dp115
g6
(I-45
I241
tp116
ssg8
(dp117
(g6
I5
tp118
(I343
I343
tp119
s(g6
I3
tp120
(I331
I331
tp121
ssba(iSample
Sample
p122
(dp123
g3
F1440751413.614328
sg4
(dp124
g6
(I-45
I241
tp125
ssg8
(dp126
(g6
I5
tp127
(I370
I370
tp128
s(g6
I3
tp129
(I358
I358
tp130
ssba(iSample
Sample
p131
(dp132
g3
F1440751417.21834
sg4
(dp133
g6
(I-41
I236
tp134
ssg8
(dp135
(g6
I5
tp136
(I395
I395
tp137
s(g6
I3
tp138
(I383
I383
tp139
ssba(iSample
Sample
p140
(dp141
g3
F1440751420.645444
sg4
(dp142
g6
(I-45
I242
tp143
ssg8
(dp144
(g6
I5
tp145
(I421
I421
tp146
s(g6
I3
tp147
(I409
I409
tp148
ssba(iSample
Sample
p149
(dp150
g3
F1440751424.153882
sg4
(dp151
g6
(I-52
I236
tp152
ssg8
(dp153
(g6
I5
tp154
(I447
I447
tp155
s(g6
I3
tp156
(I435
I435
tp157
ssba(iSample
Sample
p158
(dp159
g3
F1440751427.676376
sg4
(dp160
g6
(I-44
I242
tp161
ssg8
(dp162
(g6
I5
tp163
(I473
I473
tp164
s(g6
I3
tp165
(I461
I461
tp166
ssba(iSample
Sample
p167
(dp168
g3
F1440751431.151549
sg4
(dp169
g6
(I-44
I242
tp170
ssg8
(dp171
(g6
I5
tp172
(I498
I498
tp173
s(g6
I3
tp174
(I486
I486
tp175
ssba(iSample
Sample
p176
(dp177
g3
F1440751434.500476
sg4
(dp178
g6
(I-43
I242
tp179
ssg8
(dp180
(g6
I5
tp181
(I523
I523
tp182
s(g6
I3
tp183
(I511
I511
tp184
ssba(iSample
Sample
p185
(dp186
g3
F1440751437.917888
sg4
(dp187
g6
(I-44
I242
tp188
ssg8
(dp189
(g6
I5
tp190
(I548
I548
tp191
s(g6
I3
tp192
(I536
I536
tp193
ssba(iSample
Sample
p194
(dp195
g3
F1440751441.287261
sg4
(dp196
g6
(I-40
I242
tp197
ssg8
(dp198
(g6
I5
tp199
(I574
I574
tp200
s(g6
I3
tp201
(I562
I562
tp202
ssba(iSample
Sample
p203
(dp204
g3
F1440751444.846669
sg4
(dp205
g6
(I-44
I242
tp206
ssg8
(dp207
(g6
I5
tp208
(I600
I600
tp209
s(g6
I3
tp210
(I588
I588
tp211
ssba(iSample
Sample
p212
(dp213
g3
F1440751448.304389
sg4
(dp214
g6
(I-45
I242
tp215
ssg8
(dp216
(g6
I5
tp217
(I626
I626
tp218
s(g6
I3
tp219
(I614
I614
tp220
ssba(iSample
Sample
p221
(dp222
g3
F1440751451.82584
sg4
(dp223
g6
(I-48
I242
tp224
ssg8
(dp225
(g6
I5
tp226
(I651
I650
tp227
s(g6
I3
tp228
(I639
I639
tp229
ssba(iSample
Sample
p230
(dp231
g3
F1440751455.216908
sg4
(dp232
g6
(I-45
I241
tp233
ssg8
(dp234
(g6
I5
tp235
(I677
I676
tp236
s(g6
I3
tp237
(I665
I665
tp238
ssba(iSample
Sample
p239
(dp240
g3
F1440751458.740457
sg4
(dp241
g6
(I-46
I242
tp242
ssg8
(dp243
(g6
I5
tp244
(I703
I701
tp245
s(g6
I3
tp246
(I691
I690
tp247
ssba(iSample
Sample
p248
(dp249
g3
F1440751462.213325
sg4
(dp250
g6
(I-44
I242
tp251
ssg8
(dp252
(g6
I5
tp253
(I728
I726
tp254
s(g6
I3
tp255
(I716
I715
tp256
ssba(iSample
Sample
p257
(dp258
g3
F1440751465.588839
sg4
(dp259
g6
(I-44
I242
tp260
ssg8
(dp261
(g6
I5
tp262
(I753
I751
tp263
s(g6
I3
tp264
(I741
I740
tp265
ssba(iSample
Sample
p266
(dp267
g3
F1440751468.992217
sg4
(dp268
g6
(I-48
I231
tp269
ssg8
(dp270
(g6
I5
tp271
(I779
I777
tp272
s(g6
I3
tp273
(I767
I766
tp274
ssba(iSample
Sample
p275
(dp276
g3
F1440751472.523075
sg4
(dp277
g6
(I-45
I242
tp278
ssg8
(dp279
(g6
I5
tp280
(I805
I803
tp281
s(g6
I3
tp282
(I793
I792
tp283
ssba(iSample
Sample
p284
(dp285
g3
F1440751476.002018
sg4
(dp286
g6
(I-45
I242
tp287
ssg8
(dp288
(g6
I5
tp289
(I830
I828
tp290
s(g6
I3
tp291
(I818
I817
tp292
ssba(iSample
Sample
p293
(dp294
g3
F1440751479.391631
sg4
(dp295
g6
(I-44
I242
tp296
ssg8
(dp297
(g6
I5
tp298
(I856
I854
tp299
s(g6
I3
tp300
(I844
I843
tp301
ssba(iSample
Sample
p302
(dp303
g3
F1440751482.931484
sg4
(dp304
g6
(I-44
I239
tp305
ssg8
(dp306
(g6
I5
tp307
(I882
I880
tp308
s(g6
I3
tp309
(I870
I869
tp310
ssba(iSample
Sample
p311
(dp312
g3
F1440751486.423476
sg4
(dp313
g6
(I-44
I242
tp314
ssg8
(dp315
(g6
I5
tp316
(I908
I906
tp317
s(g6
I3
tp318
(I896
I895
tp319
ssba(iSample
Sample
p320
(dp321
g3
F1440751489.908982
sg4
(dp322
g6
(I-45
I239
tp323
ssg8
(dp324
(g6
I5
tp325
(I933
I931
tp326
s(g6
I3
tp327
(I921
I919
tp328
ssba(iSample
Sample
p329
(dp330
g3
F1440751493.291424
sg4
(dp331
g6
(I-45
I242
tp332
ssg8
(dp333
(g6
I5
tp334
(I958
I956
tp335
s(g6
I3
tp336
(I946
I944
tp337
ssba(iSample
Sample
p338
(dp339
g3
F1440751496.681326
sg4
(dp340
g6
(I-44
I242
tp341
ssg8
(dp342
(g6
I5
tp343
(I984
I982
tp344
s(g6
I3
tp345
(I972
I970
tp346
ssba(iSample
Sample
p347
(dp348
g3
F1440751500.201087
sg4
(dp349
g6
(I-45
I239
tp350
ssg8
(dp351
(g6
I5
tp352
(I1010
I1008
tp353
s(g6
I3
tp354
(I998
I996
tp355
ssba(iSample
Sample
p356
(dp357
g3
F1440751503.664559
sg4
(dp358
g6
(I-48
I242
tp359
ssg8
(dp360
(g6
I5
tp361
(I1035
I1033
tp362
s(g6
I3
tp363
(I1023
I1021
tp364
ssba(iSample
Sample
p365
(dp366
g3
F1440751507.083055
sg4
(dp367
g6
(I-46
I242
tp368
ssg8
(dp369
(g6
I5
tp370
(I1061
I1059
tp371
s(g6
I3
tp372
(I1049
I1047
tp373
ssba(iSample
Sample
p374
(dp375
g3
F1440751510.604451
sg4
(dp376
g6
(I-46
I242
tp377
ssg8
(dp378
(g6
I5
tp379
(I1087
I1085
tp380
s(g6
I3
tp381
(I1075
I1073
tp382
ssba(iSample
Sample
p383
(dp384
g3
F1440751514.089195
sg4
(dp385
g6
(I-45
I242
tp386
ssg8
(dp387
(g6
I5
tp388
(I1112
I1110
tp389
s(g6
I3
tp390
(I1100
I1098
tp391
ssba(iSample
Sample
p392
(dp393
g3
F1440751517.463853
sg4
(dp394
g6
(I-45
I242
tp395
ssg8
(dp396
(g6
I5
tp397
(I1137
I1135
tp398
s(g6
I3
tp399
(I1125
I1123
tp400
ssba(iSample
Sample
p401
(dp402
g3
F1440751520.848634
sg4
(dp403
g6
(I-48
I242
tp404
ssg8
(dp405
(g6
I5
tp406
(I1163
I1161
tp407
s(g6
I3
tp408
(I1151
I1149
tp409
ssba(iSample
Sample
p410
(dp411
g3
F1440751524.366676
sg4
(dp412
g6
(I-46
I242
tp413
ssg8
(dp414
(g6
I5
tp415
(I1189
I1187
tp416
s(g6
I3
tp417
(I1177
I1175
tp418
ssba(iSample
Sample
p419
(dp420
g3
F1440751527.900401
sg4
(dp421
g6
(I-46
I234
tp422
ssg8
(dp423
(g6
I5
tp424
(I1215
I1213
tp425
s(g6
I3
tp426
(I1203
I1201
tp427
ssba(iSample
Sample
p428
(dp429
g3
F1440751531.377671
sg4
(dp430
g6
(I-45
I242
tp431
ssg8
(dp432
(g6
I5
tp433
(I1240
I1238
tp434
s(g6
I3
tp435
(I1228
I1226
tp436
ssba(iSample
Sample
p437
(dp438
g3
F1440751534.760112
sg4
(dp439
g6
(I-45
I242
tp440
ssg8
(dp441
(g6
I5
tp442
(I1266
I1264
tp443
s(g6
I3
tp444
(I1254
I1252
tp445
ssba(iSample
Sample
p446
(dp447
g3
F1440751538.290297
sg4
(dp448
g6
(I-46
I241
tp449
ssg8
(dp450
(g6
I5
tp451
(I1292
I1290
tp452
s(g6
I3
tp453
(I1280
I1278
tp454
ssba(iSample
Sample
p455
(dp456
g3
F1440751541.776025
sg4
(dp457
g6
(I-46
I240
tp458
ssg8
(dp459
(g6
I5
tp460
(I1317
I1315
tp461
s(g6
I3
tp462
(I1305
I1303
tp463
ssba(iSample
Sample
p464
(dp465
g3
F1440751545.152833
sg4
(dp466
g6
(I-46
I242
tp467
ssg8
(dp468
(g6
I5
tp469
(I1342
I1340
tp470
s(g6
I3
tp471
(I1330
I1328
tp472
ssba(iSample
Sample
p473
(dp474
g3
F1440751548.536602
sg4
(dp475
g6
(I-45
I242
tp476
ssg8
(dp477
(g6
I5
tp478
(I1368
I1366
tp479
s(g6
I3
tp480
(I1356
I1354
tp481
ssba(iSample
Sample
p482
(dp483
g3
F1440751552.063894
sg4
(dp484
g6
(I-45
I242
tp485
ssg8
(dp486
(g6
I5
tp487
(I1394
I1392
tp488
s(g6
I3
tp489
(I1382
I1380
tp490
ssba(iSample
Sample
p491
(dp492
g3
F1440751555.54568
sg4
(dp493
g6
(I-49
I242
tp494
ssg8
(dp495
(g6
I5
tp496
(I1419
I1417
tp497
s(g6
I3
tp498
(I1407
I1405
tp499
ssba(iSample
Sample
p500
(dp501
g3
F1440751558.928219
sg4
(dp502
g6
(I-46
I242
tp503
ssg8
(dp504
(g6
I5
tp505
(I1444
I1442
tp506
s(g6
I3
tp507
(I1432
I1430
tp508
ssba(iSample
Sample
p509
(dp510
g3
F1440751562.330653
sg4
(dp511
g6
(I-46
I242
tp512
ssg8
(dp513
(g6
I5
tp514
(I1471
I1469
tp515
s(g6
I3
tp516
(I1459
I1457
tp517
ssba(iSample
Sample
p518
(dp519
g3
F1440751565.994565
sg4
(dp520
g6
(I-47
I242
tp521
ssg8
(dp522
(g6
I5
tp523
(I1497
I1495
tp524
s(g6
I3
tp525
(I1485
I1483
tp526
ssba(iSample
Sample
p527
(dp528
g3
F1440751569.476434
sg4
(dp529
g6
(I-48
I234
tp530
ssg8
(dp531
(g6
I5
tp532
(I1523
I1521
tp533
s(g6
I3
tp534
(I1511
I1509
tp535
ssba(iSample
Sample
p536
(dp537
g3
F1440751573.002718
sg4
(dp538
g6
(I-48
I242
tp539
ssg8
(dp540
(g6
I5
tp541
(I1549
I1547
tp542
s(g6
I3
tp543
(I1537
I1535
tp544
ssba(iSample
Sample
p545
(dp546
g3
F1440751576.498994
sg4
(dp547
g6
(I-45
I242
tp548
ssg8
(dp549
(g6
I5
tp550
(I1575
I1573
tp551
s(g6
I3
tp552
(I1563
I1561
tp553
ssba(iSample
Sample
p554
(dp555
g3
F1440751580.043562
sg4
(dp556
g6
(I-44
I242
tp557
ssg8
(dp558
(g6
I5
tp559
(I1601
I1599
tp560
s(g6
I3
tp561
(I1589
I1587
tp562
ssba(iSample
Sample
p563
(dp564
g3
F1440751583.537204
sg4
(dp565
g6
(I-48
I242
tp566
ssg8
(dp567
(g6
I5
tp568
(I1627
I1625
tp569
s(g6
I3
tp570
(I1615
I1613
tp571
ssba(iSample
Sample
p572
(dp573
g3
F1440751587.043003
sg4
(dp574
g6
(I-47
I236
tp575
ssg8
(dp576
(g6
I5
tp577
(I1654
I1652
tp578
s(g6
I3
tp579
(I1642
I1640
tp580
ssba(iSample
Sample
p581
(dp582
g3
F1440751590.677257
sg4
(dp583
g6
(I-46
I238
tp584
ssg8
(dp585
(g6
I5
tp586
(I1680
I1678
tp587
s(g6
I3
tp588
(I1668
I1666
tp589
ssba(iSample
Sample
p590
(dp591
g3
F1440751594.212212
sg4
(dp592
g6
(I-44
I242
tp593
ssg8
(dp594
(g6
I5
tp595
(I1706
I1704
tp596
s(g6
I3
tp597
(I1694
I1692
tp598
ssba(iSample
Sample
p599
(dp600
g3
F1440751597.70498
sg4
(dp601
g6
(I-45
I242
tp602
ssg8
(dp603
(g6
I5
tp604
(I1732
I1730
tp605
s(g6
I3
tp606
(I1720
I1718
tp607
ssba(iSample
Sample
p608
(dp609
g3
F1440751601.238758
sg4
(dp610
g6
(I-47
I242
tp611
ssg8
(dp612
(g6
I5
tp613
(I1759
I1757
tp614
s(g6
I3
tp615
(I1747
I1745
tp616
ssba(iSample
Sample
p617
(dp618
g3
F1440751604.881678
sg4
(dp619
g6
(I-47
I236
tp620
ssg8
(dp621
(g6
I5
tp622
(I1785
I1783
tp623
s(g6
I3
tp624
(I1773
I1771
tp625
ssba(iSample
Sample
p626
(dp627
g3
F1440751608.366714
sg4
(dp628
g6
(I-48
I242
tp629
ssg8
(dp630
(g6
I5
tp631
(I1811
I1809
tp632
s(g6
I3
tp633
(I1799
I1797
tp634
ssba(iSample
Sample
p635
(dp636
g3
F1440751611.9118
sg4
(dp637
g6
(I-49
I236
tp638
ssg8
(dp639
(g6
I5
tp640
(I1837
I1835
tp641
s(g6
I3
tp642
(I1825
I1823
tp643
ssba(iSample
Sample
p644
(dp645
g3
F1440751615.414669
sg4
(dp646
g6
(I-45
I241
tp647
ssg8
(dp648
(g6
I5
tp649
(I1863
I1861
tp650
s(g6
I3
tp651
(I1851
I1849
tp652
ssba(iSample
Sample
p653
(dp654
g3
F1440751618.919366
sg4
(dp655
g6
(I-44
I236
tp656
ssg8
(dp657
(g6
I5
tp658
(I1889
I1887
tp659
s(g6
I3
tp660
(I1877
I1875
tp661
ssba(iSample
Sample
p662
(dp663
g3
F1440751622.422984
sg4
(dp664
g6
(I-48
I242
tp665
ssg8
(dp666
(g6
I5
tp667
(I1915
I1913
tp668
s(g6
I3
tp669
(I1903
I1901
tp670
ssba(iSample
Sample
p671
(dp672
g3
F1440751625.92354
sg4
(dp673
g6
(I-45
I242
tp674
ssg8
(dp675
(g6
I5
tp676
(I1944
I1942
tp677
s(g6
I3
tp678
(I1932
I1930
tp679
ssba(iSample
Sample
p680
(dp681
g3
F1440751629.877596
sg4
(dp682
g6
(I-45
I242
tp683
ssg8
(dp684
(g6
I5
tp685
(I1970
I1968
tp686
s(g6
I3
tp687
(I1958
I1956
tp688
ssba(iSample
Sample
p689
(dp690
g3
F1440751633.370336
sg4
(dp691
g6
(I-44
I242
tp692
ssg8
(dp693
(g6
I5
tp694
(I1996
I1994
tp695
s(g6
I3
tp696
(I1984
I1982
tp697
ssba(iSample
Sample
p698
(dp699
g3
F1440751636.87249
sg4
(dp700
g6
(I-47
I242
tp701
ssg8
(dp702
(g6
I5
tp703
(I2022
I2020
tp704
s(g6
I3
tp705
(I2010
I2008
tp706
ssba(iSample
Sample
p707
(dp708
g3
F1440751640.376019
sg4
(dp709
g6
(I-46
I242
tp710
ssg8
(dp711
(g6
I5
tp712
(I2048
I2046
tp713
s(g6
I3
tp714
(I2036
I2034
tp715
ssba(iSample
Sample
p716
(dp717
g3
F1440751643.924568
sg4
(dp718
g6
(I-45
I241
tp719
ssg8
(dp720
(g6
I5
tp721
(I2074
I2072
tp722
s(g6
I3
tp723
(I2062
I2060
tp724
ssba(iSample
Sample
p725
(dp726
g3
F1440751647.429993
sg4
(dp727
g6
(I-45
I231
tp728
ssg8
(dp729
(g6
I5
tp730
(I2100
I2098
tp731
s(g6
I3
tp732
(I2088
I2086
tp733
ssba(iSample
Sample
p734
(dp735
g3
F1440751650.929233
sg4
(dp736
g6
(I-46
I242
tp737
ssg8
(dp738
(g6
I5
tp739
(I2126
I2124
tp740
s(g6
I3
tp741
(I2114
I2112
tp742
ssba(iSample
Sample
p743
(dp744
g3
F1440751654.443974
sg4
(dp745
g6
(I-45
I238
tp746
ssg8
(dp747
(g6
I5
tp748
(I2152
I2150
tp749
s(g6
I3
tp750
(I2140
I2138
tp751
ssba(iSample
Sample
p752
(dp753
g3
F1440751657.943046
sg4
(dp754
g6
(I-45
I242
tp755
ssg8
(dp756
(g6
I5
tp757
(I2178
I2176
tp758
s(g6
I3
tp759
(I2166
I2164
tp760
ssba(iSample
Sample
p761
(dp762
g3
F1440751661.452741
sg4
(dp763
g6
(I-44
I241
tp764
ssg8
(dp765
(g6
I5
tp766
(I2204
I2202
tp767
s(g6
I3
tp768
(I2192
I2190
tp769
ssba(iSample
Sample
p770
(dp771
g3
F1440751664.947057
sg4
(dp772
g6
(I-45
I242
tp773
ssg8
(dp774
(g6
I5
tp775
(I2229
I2227
tp776
s(g6
I3
tp777
(I2217
I2215
tp778
ssba(iSample
Sample
p779
(dp780
g3
F1440751668.344766
sg4
(dp781
g6
(I-47
I242
tp782
ssg8
(dp783
(g6
I5
tp784
(I2255
I2253
tp785
s(g6
I3
tp786
(I2243
I2241
tp787
ssba(iSample
Sample
p788
(dp789
g3
F1440751671.83866
sg4
(dp790
g6
(I-46
I236
tp791
ssg8
(dp792
(g6
I5
tp793
(I2281
I2279
tp794
s(g6
I3
tp795
(I2269
I2267
tp796
ssba(iSample
Sample
p797
(dp798
g3
F1440751675.386597
sg4
(dp799
g6
(I-47
I242
tp800
ssg8
(dp801
(g6
I5
tp802
(I2307
I2305
tp803
s(g6
I3
tp804
(I2295
I2293
tp805
ssba(iSample
Sample
p806
(dp807
g3
F1440751678.863956
sg4
(dp808
g6
(I-52
I242
tp809
ssg8
(dp810
(g6
I5
tp811
(I2333
I2331
tp812
s(g6
I3
tp813
(I2321
I2319
tp814
ssba.