(lp0
(iSample
Sample
p1
(dp2
S'moteRSSI'
p3
(dp4
S'85d2'
p5
I-41
ssS'timeStamp'
p6
F1440509304.06916
sS'moteData'
p7
(dp8
(g5
I4
tp9
(I27
I27
tp10
s(g5
I5
tp11
(I40
I40
tp12
ssba(iSample
Sample
p13
(dp14
g3
(dp15
g5
I-40
ssg6
F1440509306.636452
sg7
(dp16
(g5
I4
tp17
(I46
I46
tp18
s(g5
I5
tp19
(I59
I59
tp20
ssba(iSample
Sample
p21
(dp22
g3
(dp23
g5
I-41
ssg6
F1440509309.110486
sg7
(dp24
(g5
I4
tp25
(I64
I64
tp26
s(g5
I5
tp27
(I77
I77
tp28
ssba(iSample
Sample
p29
(dp30
g3
(dp31
g5
I-40
ssg6
F1440509311.525431
sg7
(dp32
(g5
I4
tp33
(I82
I82
tp34
s(g5
I5
tp35
(I95
I95
tp36
ssba(iSample
Sample
p37
(dp38
g3
(dp39
g5
I-39
ssg6
F1440509313.936808
sg7
(dp40
(g5
I4
tp41
(I100
I99
tp42
s(g5
I5
tp43
(I113
I113
tp44
ssba(iSample
Sample
p45
(dp46
g3
(dp47
g5
I-41
ssg6
F1440509316.326077
sg7
(dp48
(g5
I4
tp49
(I118
I117
tp50
s(g5
I5
tp51
(I131
I131
tp52
ssba(iSample
Sample
p53
(dp54
g3
(dp55
g5
I-42
ssg6
F1440509318.77667
sg7
(dp56
(g5
I4
tp57
(I136
I135
tp58
s(g5
I5
tp59
(I149
I149
tp60
ssba(iSample
Sample
p61
(dp62
g3
(dp63
g5
I-38
ssg6
F1440509321.231106
sg7
(dp64
(g5
I4
tp65
(I154
I153
tp66
s(g5
I5
tp67
(I167
I167
tp68
ssba(iSample
Sample
p69
(dp70
g3
(dp71
g5
I-39
ssg6
F1440509323.64031
sg7
(dp72
(g5
I4
tp73
(I172
I171
tp74
s(g5
I5
tp75
(I185
I185
tp76
ssba(iSample
Sample
p77
(dp78
g3
(dp79
g5
I-42
ssg6
F1440509326.104238
sg7
(dp80
(g5
I4
tp81
(I190
I189
tp82
s(g5
I5
tp83
(I203
I203
tp84
ssba(iSample
Sample
p85
(dp86
g3
(dp87
g5
I-41
ssg6
F1440509328.504314
sg7
(dp88
(g5
I4
tp89
(I208
I207
tp90
s(g5
I5
tp91
(I221
I220
tp92
ssba(iSample
Sample
p93
(dp94
g3
(dp95
g5
I-52
ssg6
F1440509330.940468
sg7
(dp96
(g5
I4
tp97
(I226
I224
tp98
s(g5
I5
tp99
(I239
I238
tp100
ssba(iSample
Sample
p101
(dp102
g3
(dp103
g5
I-46
ssg6
F1440509333.438848
sg7
(dp104
(g5
I4
tp105
(I245
I243
tp106
s(g5
I5
tp107
(I258
I257
tp108
ssba(iSample
Sample
p109
(dp110
g3
(dp111
g5
I-48
ssg6
F1440509335.971803
sg7
(dp112
(g5
I4
tp113
(I263
I261
tp114
s(g5
I5
tp115
(I276
I275
tp116
ssba(iSample
Sample
p117
(dp118
g3
(dp119
g5
I-52
ssg6
F1440509338.437817
sg7
(dp120
(g5
I4
tp121
(I281
I279
tp122
s(g5
I5
tp123
(I294
I292
tp124
ssba(iSample
Sample
p125
(dp126
g3
(dp127
g5
I-46
ssg6
F1440509340.793063
sg7
(dp128
(g5
I4
tp129
(I299
I297
tp130
s(g5
I5
tp131
(I312
I308
tp132
ssba(iSample
Sample
p133
(dp134
g3
(dp135
g5
I-48
ssg6
F1440509343.282694
sg7
(dp136
(g5
I4
tp137
(I317
I314
tp138
s(g5
I5
tp139
(I330
I325
tp140
ssba(iSample
Sample
p141
(dp142
g3
(dp143
g5
I-45
ssg6
F1440509345.68564
sg7
(dp144
(g5
I4
tp145
(I335
I332
tp146
s(g5
I5
tp147
(I348
I343
tp148
ssba(iSample
Sample
p149
(dp150
g3
(dp151
g5
I-46
ssg6
F1440509348.11703
sg7
(dp152
(g5
I4
tp153
(I353
I350
tp154
s(g5
I5
tp155
(I366
I361
tp156
ssba(iSample
Sample
p157
(dp158
g3
(dp159
g5
I-54
ssg6
F1440509350.535266
sg7
(dp160
(g5
I4
tp161
(I371
I368
tp162
s(g5
I5
tp163
(I384
I379
tp164
ssba(iSample
Sample
p165
(dp166
g3
(dp167
g5
I-47
ssg6
F1440509352.926291
sg7
(dp168
(g5
I4
tp169
(I389
I385
tp170
s(g5
I5
tp171
(I402
I396
tp172
ssba(iSample
Sample
p173
(dp174
g3
(dp175
g5
I-50
ssg6
F1440509355.358975
sg7
(dp176
(g5
I4
tp177
(I407
I403
tp178
s(g5
I5
tp179
(I420
I413
tp180
ssba(iSample
Sample
p181
(dp182
g3
(dp183
g5
I-50
ssg6
F1440509357.85127
sg7
(dp184
(g5
I4
tp185
(I425
I421
tp186
s(g5
I5
tp187
(I438
I431
tp188
ssba(iSample
Sample
p189
(dp190
g3
(dp191
g5
I-44
ssg6
F1440509360.267103
sg7
(dp192
(g5
I4
tp193
(I443
I439
tp194
s(g5
I5
tp195
(I456
I449
tp196
ssba(iSample
Sample
p197
(dp198
g3
(dp199
g5
I-45
ssg6
F1440509362.661348
sg7
(dp200
(g5
I4
tp201
(I464
I459
tp202
s(g5
I5
tp203
(I477
I469
tp204
ssba(iSample
Sample
p205
(dp206
g3
(dp207
g5
I-51
ssg6
F1440509365.513933
sg7
(dp208
(g5
I4
tp209
(I482
I477
tp210
s(g5
I5
tp211
(I495
I487
tp212
ssba(iSample
Sample
p213
(dp214
g3
(dp215
g5
I-54
ssg6
F1440509367.9674
sg7
(dp216
(g5
I4
tp217
(I500
I495
tp218
s(g5
I5
tp219
(I513
I505
tp220
ssba(iSample
Sample
p221
(dp222
g3
(dp223
g5
I-60
ssg6
F1440509370.438349
sg7
(dp224
(g5
I4
tp225
(I518
I512
tp226
s(g5
I5
tp227
(I531
I522
tp228
ssba(iSample
Sample
p229
(dp230
g3
(dp231
g5
I-46
ssg6
F1440509372.850857
sg7
(dp232
(g5
I4
tp233
(I536
I530
tp234
s(g5
I5
tp235
(I549
I540
tp236
ssba(iSample
Sample
p237
(dp238
g3
(dp239
g5
I-54
ssg6
F1440509375.261654
sg7
(dp240
(g5
I4
tp241
(I554
I548
tp242
s(g5
I5
tp243
(I567
I557
tp244
ssba(iSample
Sample
p245
(dp246
g3
(dp247
g5
I-63
ssg6
F1440509377.670053
sg7
(dp248
(g5
I4
tp249
(I572
I566
tp250
s(g5
I5
tp251
(I585
I575
tp252
ssba(iSample
Sample
p253
(dp254
g3
(dp255
g5
I-63
ssg6
F1440509380.119909
sg7
(dp256
(g5
I4
tp257
(I590
I584
tp258
s(g5
I5
tp259
(I603
I593
tp260
ssba(iSample
Sample
p261
(dp262
g3
(dp263
g5
I-46
ssg6
F1440509382.53306
sg7
(dp264
(g5
I4
tp265
(I608
I602
tp266
s(g5
I5
tp267
(I621
I611
tp268
ssba(iSample
Sample
p269
(dp270
g3
(dp271
g5
I-54
ssg6
F1440509384.991014
sg7
(dp272
(g5
I4
tp273
(I626
I620
tp274
s(g5
I5
tp275
(I639
I629
tp276
ssba(iSample
Sample
p277
(dp278
g3
(dp279
g5
I-54
ssg6
F1440509387.397128
sg7
(dp280
(g5
I4
tp281
(I644
I638
tp282
s(g5
I5
tp283
(I657
I647
tp284
ssba(iSample
Sample
p285
(dp286
g3
(dp287
g5
I-52
ssg6
F1440509389.896001
sg7
(dp288
(g5
I4
tp289
(I662
I656
tp290
s(g5
I5
tp291
(I675
I665
tp292
ssba(iSample
Sample
p293
(dp294
g3
(dp295
g5
I-46
ssg6
F1440509392.258921
sg7
(dp296
(g5
I4
tp297
(I680
I674
tp298
s(g5
I5
tp299
(I693
I683
tp300
ssba(iSample
Sample
p301
(dp302
g3
(dp303
g5
I-47
ssg6
F1440509394.778498
sg7
(dp304
(g5
I4
tp305
(I699
I693
tp306
s(g5
I5
tp307
(I712
I702
tp308
ssba(iSample
Sample
p309
(dp310
g3
(dp311
g5
I-50
ssg6
F1440509397.277428
sg7
(dp312
(g5
I4
tp313
(I717
I711
tp314
s(g5
I5
tp315
(I730
I720
tp316
ssba(iSample
Sample
p317
(dp318
g3
(dp319
g5
I-48
ssg6
F1440509399.731441
sg7
(dp320
(g5
I4
tp321
(I735
I729
tp322
s(g5
I5
tp323
(I748
I737
tp324
ssba(iSample
Sample
p325
(dp326
g3
(dp327
g5
I-51
ssg6
F1440509402.123977
sg7
(dp328
(g5
I4
tp329
(I753
I747
tp330
s(g5
I5
tp331
(I766
I755
tp332
ssba(iSample
Sample
p333
(dp334
g3
(dp335
g5
I-59
ssg6
F1440509404.573376
sg7
(dp336
(g5
I4
tp337
(I771
I765
tp338
s(g5
I5
tp339
(I784
I773
tp340
ssba(iSample
Sample
p341
(dp342
g3
(dp343
g5
I-48
ssg6
F1440509406.972882
sg7
(dp344
(g5
I4
tp345
(I789
I783
tp346
s(g5
I5
tp347
(I802
I791
tp348
ssba(iSample
Sample
p349
(dp350
g3
(dp351
g5
I-47
ssg6
F1440509409.415081
sg7
(dp352
(g5
I4
tp353
(I807
I801
tp354
s(g5
I5
tp355
(I820
I809
tp356
ssba(iSample
Sample
p357
(dp358
g3
(dp359
g5
I-54
ssg6
F1440509411.897366
sg7
(dp360
(g5
I4
tp361
(I825
I819
tp362
s(g5
I5
tp363
(I838
I827
tp364
ssba(iSample
Sample
p365
(dp366
g3
(dp367
g5
I-47
ssg6
F1440509414.290492
sg7
(dp368
(g5
I4
tp369
(I843
I837
tp370
s(g5
I5
tp371
(I856
I845
tp372
ssba(iSample
Sample
p373
(dp374
g3
(dp375
g5
I-49
ssg6
F1440509416.700629
sg7
(dp376
(g5
I4
tp377
(I861
I854
tp378
s(g5
I5
tp379
(I874
I863
tp380
ssba(iSample
Sample
p381
(dp382
g3
(dp383
g5
I-48
ssg6
F1440509419.153039
sg7
(dp384
(g5
I4
tp385
(I879
I872
tp386
s(g5
I5
tp387
(I892
I881
tp388
ssba(iSample
Sample
p389
(dp390
g3
(dp391
g5
I-51
ssg6
F1440509421.582751
sg7
(dp392
(g5
I4
tp393
(I897
I890
tp394
s(g5
I5
tp395
(I910
I899
tp396
ssba(iSample
Sample
p397
(dp398
g3
(dp399
g5
I-61
ssg6
F1440509424.011202
sg7
(dp400
(g5
I4
tp401
(I915
I908
tp402
s(g5
I5
tp403
(I928
I916
tp404
ssba(iSample
Sample
p405
(dp406
g3
(dp407
g5
I-48
ssg6
F1440509426.424479
sg7
(dp408
(g5
I4
tp409
(I933
I925
tp410
s(g5
I5
tp411
(I946
I934
tp412
ssba(iSample
Sample
p413
(dp414
g3
(dp415
g5
I-48
ssg6
F1440509428.908368
sg7
(dp416
(g5
I4
tp417
(I951
I943
tp418
s(g5
I5
tp419
(I964
I951
tp420
ssba(iSample
Sample
p421
(dp422
g3
(dp423
g5
I-57
ssg6
F1440509431.314127
sg7
(dp424
(g5
I4
tp425
(I969
I961
tp426
s(g5
I5
tp427
(I982
I969
tp428
ssba(iSample
Sample
p429
(dp430
g3
(dp431
g5
I-48
ssg6
F1440509433.759779
sg7
(dp432
(g5
I4
tp433
(I987
I979
tp434
s(g5
I5
tp435
(I1000
I986
tp436
ssba(iSample
Sample
p437
(dp438
g3
(dp439
g5
I-51
ssg6
F1440509436.17987
sg7
(dp440
(g5
I4
tp441
(I1005
I997
tp442
s(g5
I5
tp443
(I1018
I1004
tp444
ssba(iSample
Sample
p445
(dp446
g3
(dp447
g5
I-48
ssg6
F1440509438.581024
sg7
(dp448
(g5
I4
tp449
(I1023
I1015
tp450
s(g5
I5
tp451
(I1036
I1022
tp452
ssba(iSample
Sample
p453
(dp454
g3
(dp455
g5
I-55
ssg6
F1440509441.051602
sg7
(dp456
(g5
I4
tp457
(I1041
I1033
tp458
s(g5
I5
tp459
(I1054
I1039
tp460
ssba(iSample
Sample
p461
(dp462
g3
(dp463
g5
I-55
ssg6
F1440509443.457797
sg7
(dp464
(g5
I4
tp465
(I1059
I1051
tp466
s(g5
I5
tp467
(I1072
I1056
tp468
ssba(iSample
Sample
p469
(dp470
g3
(dp471
g5
I-47
ssg6
F1440509445.861642
sg7
(dp472
(g5
I4
tp473
(I1077
I1069
tp474
s(g5
I5
tp475
(I1090
I1074
tp476
ssba(iSample
Sample
p477
(dp478
g3
(dp479
g5
I-45
ssg6
F1440509448.370786
sg7
(dp480
(g5
I4
tp481
(I1095
I1087
tp482
s(g5
I5
tp483
(I1108
I1092
tp484
ssba.