(lp0
(iSample
Sample
p1
(dp2
S'moteRSSI'
p3
(dp4
S'85d2'
p5
I-36
ssS'timeStamp'
p6
F1440505233.715862
sS'moteData'
p7
(dp8
(g5
I3
tp9
(I21666
I21648
tp10
s(g5
I5
tp11
(I21652
I21631
tp12
ssba(iSample
Sample
p13
(dp14
g3
(dp15
g5
I-33
ssg6
F1440505236.233665
sg7
(dp16
(g5
I3
tp17
(I21685
I21667
tp18
s(g5
I5
tp19
(I21671
I21650
tp20
ssba(iSample
Sample
p21
(dp22
g3
(dp23
g5
I-36
ssg6
F1440505238.75383
sg7
(dp24
(g5
I3
tp25
(I21703
I21685
tp26
s(g5
I5
tp27
(I21689
I21668
tp28
ssba(iSample
Sample
p29
(dp30
g3
(dp31
g5
I-36
ssg6
F1440505241.220056
sg7
(dp32
(g5
I3
tp33
(I21721
I21703
tp34
s(g5
I5
tp35
(I21707
I21686
tp36
ssba(iSample
Sample
p37
(dp38
g3
(dp39
g5
I-35
ssg6
F1440505243.599917
sg7
(dp40
(g5
I3
tp41
(I21739
I21721
tp42
s(g5
I5
tp43
(I21725
I21704
tp44
ssba(iSample
Sample
p45
(dp46
g3
(dp47
g5
I-35
ssg6
F1440505246.022923
sg7
(dp48
(g5
I3
tp49
(I21757
I21739
tp50
s(g5
I5
tp51
(I21743
I21722
tp52
ssba(iSample
Sample
p53
(dp54
g3
(dp55
g5
I-36
ssg6
F1440505248.425967
sg7
(dp56
(g5
I3
tp57
(I21775
I21757
tp58
s(g5
I5
tp59
(I21761
I21740
tp60
ssba(iSample
Sample
p61
(dp62
g3
(dp63
g5
I-35
ssg6
F1440505250.933728
sg7
(dp64
(g5
I3
tp65
(I21793
I21775
tp66
s(g5
I5
tp67
(I21779
I21758
tp68
ssba(iSample
Sample
p69
(dp70
g3
(dp71
g5
I-34
ssg6
F1440505253.319087
sg7
(dp72
(g5
I3
tp73
(I21811
I21793
tp74
s(g5
I5
tp75
(I21797
I21776
tp76
ssba(iSample
Sample
p77
(dp78
g3
(dp79
g5
I-33
ssg6
F1440505255.754881
sg7
(dp80
(g5
I3
tp81
(I21829
I21811
tp82
s(g5
I5
tp83
(I21815
I21794
tp84
ssba(iSample
Sample
p85
(dp86
g3
(dp87
g5
I-35
ssg6
F1440505258.193246
sg7
(dp88
(g5
I3
tp89
(I21847
I21829
tp90
s(g5
I5
tp91
(I21833
I21812
tp92
ssba(iSample
Sample
p93
(dp94
g3
(dp95
g5
I-34
ssg6
F1440505260.578621
sg7
(dp96
(g5
I3
tp97
(I21865
I21847
tp98
s(g5
I5
tp99
(I21851
I21830
tp100
ssba(iSample
Sample
p101
(dp102
g3
(dp103
g5
I-33
ssg6
F1440505263.031829
sg7
(dp104
(g5
I3
tp105
(I21883
I21865
tp106
s(g5
I5
tp107
(I21869
I21848
tp108
ssba(iSample
Sample
p109
(dp110
g3
(dp111
g5
I-35
ssg6
F1440505265.451366
sg7
(dp112
(g5
I3
tp113
(I21901
I21883
tp114
s(g5
I5
tp115
(I21887
I21866
tp116
ssba(iSample
Sample
p117
(dp118
g3
(dp119
g5
I-32
ssg6
F1440505267.853654
sg7
(dp120
(g5
I3
tp121
(I21918
I21900
tp122
s(g5
I5
tp123
(I21904
I21883
tp124
ssba(iSample
Sample
p125
(dp126
g3
(dp127
g5
I-32
ssg6
F1440505270.166258
sg7
(dp128
(g5
I3
tp129
(I21936
I21918
tp130
s(g5
I5
tp131
(I21922
I21901
tp132
ssba(iSample
Sample
p133
(dp134
g3
(dp135
g5
I-34
ssg6
F1440505272.647965
sg7
(dp136
(g5
I3
tp137
(I21954
I21936
tp138
s(g5
I5
tp139
(I21940
I21919
tp140
ssba(iSample
Sample
p141
(dp142
g3
(dp143
g5
I-33
ssg6
F1440505275.049188
sg7
(dp144
(g5
I3
tp145
(I21972
I21954
tp146
s(g5
I5
tp147
(I21958
I21937
tp148
ssba(iSample
Sample
p149
(dp150
g3
(dp151
g5
I-34
ssg6
F1440505277.464976
sg7
(dp152
(g5
I3
tp153
(I21990
I21972
tp154
s(g5
I5
tp155
(I21976
I21955
tp156
ssba(iSample
Sample
p157
(dp158
g3
(dp159
g5
I-31
ssg6
F1440505279.918373
sg7
(dp160
(g5
I3
tp161
(I22008
I21990
tp162
s(g5
I5
tp163
(I21994
I21973
tp164
ssba(iSample
Sample
p165
(dp166
g3
(dp167
g5
I-33
ssg6
F1440505282.350607
sg7
(dp168
(g5
I3
tp169
(I22029
I22011
tp170
s(g5
I5
tp171
(I22015
I21994
tp172
ssba(iSample
Sample
p173
(dp174
g3
(dp175
g5
I-36
ssg6
F1440505285.159619
sg7
(dp176
(g5
I3
tp177
(I22047
I22029
tp178
s(g5
I5
tp179
(I22033
I22012
tp180
ssba(iSample
Sample
p181
(dp182
g3
(dp183
g5
I-35
ssg6
F1440505287.628007
sg7
(dp184
(g5
I3
tp185
(I22065
I22047
tp186
s(g5
I5
tp187
(I22051
I22030
tp188
ssba(iSample
Sample
p189
(dp190
g3
(dp191
g5
I-34
ssg6
F1440505290.052191
sg7
(dp192
(g5
I3
tp193
(I22083
I22065
tp194
s(g5
I5
tp195
(I22069
I22048
tp196
ssba(iSample
Sample
p197
(dp198
g3
(dp199
g5
I-32
ssg6
F1440505292.453271
sg7
(dp200
(g5
I3
tp201
(I22101
I22083
tp202
s(g5
I5
tp203
(I22087
I22066
tp204
ssba(iSample
Sample
p205
(dp206
g3
(dp207
g5
I-35
ssg6
F1440505294.906766
sg7
(dp208
(g5
I3
tp209
(I22119
I22101
tp210
s(g5
I5
tp211
(I22105
I22084
tp212
ssba(iSample
Sample
p213
(dp214
g3
(dp215
g5
I-32
ssg6
F1440505297.327513
sg7
(dp216
(g5
I3
tp217
(I22140
I22122
tp218
s(g5
I5
tp219
(I22126
I22105
tp220
ssba(iSample
Sample
p221
(dp222
g3
(dp223
g5
I-32
ssg6
F1440505300.164802
sg7
(dp224
(g5
I3
tp225
(I22158
I22140
tp226
s(g5
I5
tp227
(I22144
I22123
tp228
ssba(iSample
Sample
p229
(dp230
g3
(dp231
g5
I-36
ssg6
F1440505302.56843
sg7
(dp232
(g5
I3
tp233
(I22175
I22156
tp234
s(g5
I5
tp235
(I22161
I22140
tp236
ssba(iSample
Sample
p237
(dp238
g3
(dp239
g5
I-33
ssg6
F1440505304.866411
sg7
(dp240
(g5
I3
tp241
(I22192
I22173
tp242
s(g5
I5
tp243
(I22178
I22157
tp244
ssba(iSample
Sample
p245
(dp246
g3
(dp247
g5
I-34
ssg6
F1440505307.167044
sg7
(dp248
(g5
I3
tp249
(I22210
I22191
tp250
s(g5
I5
tp251
(I22196
I22175
tp252
ssba(iSample
Sample
p253
(dp254
g3
(dp255
g5
I-33
ssg6
F1440505309.631894
sg7
(dp256
(g5
I3
tp257
(I22228
I22209
tp258
s(g5
I5
tp259
(I22214
I22193
tp260
ssba(iSample
Sample
p261
(dp262
g3
(dp263
g5
I-33
ssg6
F1440505312.06461
sg7
(dp264
(g5
I3
tp265
(I22246
I22227
tp266
s(g5
I5
tp267
(I22232
I22211
tp268
ssba(iSample
Sample
p269
(dp270
g3
(dp271
g5
I-33
ssg6
F1440505314.497755
sg7
(dp272
(g5
I3
tp273
(I22264
I22245
tp274
s(g5
I5
tp275
(I22250
I22229
tp276
ssba(iSample
Sample
p277
(dp278
g3
(dp279
g5
I-34
ssg6
F1440505316.897927
sg7
(dp280
(g5
I3
tp281
(I22282
I22263
tp282
s(g5
I5
tp283
(I22268
I22247
tp284
ssba(iSample
Sample
p285
(dp286
g3
(dp287
g5
I-32
ssg6
F1440505319.355681
sg7
(dp288
(g5
I3
tp289
(I22300
I22281
tp290
s(g5
I5
tp291
(I22286
I22265
tp292
ssba(iSample
Sample
p293
(dp294
g3
(dp295
g5
I-32
ssg6
F1440505321.788138
sg7
(dp296
(g5
I3
tp297
(I22318
I22299
tp298
s(g5
I5
tp299
(I22304
I22283
tp300
ssba(iSample
Sample
p301
(dp302
g3
(dp303
g5
I-32
ssg6
F1440505324.226789
sg7
(dp304
(g5
I3
tp305
(I22336
I22317
tp306
s(g5
I5
tp307
(I22322
I22301
tp308
ssba(iSample
Sample
p309
(dp310
g3
(dp311
g5
I-35
ssg6
F1440505326.616702
sg7
(dp312
(g5
I3
tp313
(I22355
I22336
tp314
s(g5
I5
tp315
(I22341
I22320
tp316
ssba(iSample
Sample
p317
(dp318
g3
(dp319
g5
I-32
ssg6
F1440505329.227433
sg7
(dp320
(g5
I3
tp321
(I22373
I22354
tp322
s(g5
I5
tp323
(I22359
I22338
tp324
ssba(iSample
Sample
p325
(dp326
g3
(dp327
g5
I-34
ssg6
F1440505331.644053
sg7
(dp328
(g5
I3
tp329
(I22391
I22372
tp330
s(g5
I5
tp331
(I22377
I22356
tp332
ssba(iSample
Sample
p333
(dp334
g3
(dp335
g5
I-33
ssg6
F1440505334.035092
sg7
(dp336
(g5
I3
tp337
(I22408
I22389
tp338
s(g5
I5
tp339
(I22394
I22373
tp340
ssba(iSample
Sample
p341
(dp342
g3
(dp343
g5
I-34
ssg6
F1440505336.341499
sg7
(dp344
(g5
I3
tp345
(I22426
I22407
tp346
s(g5
I5
tp347
(I22412
I22391
tp348
ssba(iSample
Sample
p349
(dp350
g3
(dp351
g5
I-32
ssg6
F1440505338.795403
sg7
(dp352
(g5
I3
tp353
(I22444
I22425
tp354
s(g5
I5
tp355
(I22430
I22409
tp356
ssba(iSample
Sample
p357
(dp358
g3
(dp359
g5
I-35
ssg6
F1440505341.187138
sg7
(dp360
(g5
I3
tp361
(I22461
I22442
tp362
s(g5
I5
tp363
(I22447
I22426
tp364
ssba(iSample
Sample
p365
(dp366
g3
(dp367
g5
I-32
ssg6
F1440505343.490387
sg7
(dp368
(g5
I3
tp369
(I22478
I22459
tp370
s(g5
I5
tp371
(I22464
I22443
tp372
ssba(iSample
Sample
p373
(dp374
g3
(dp375
g5
I-32
ssg6
F1440505345.801203
sg7
(dp376
(g5
I3
tp377
(I22496
I22477
tp378
s(g5
I5
tp379
(I22482
I22461
tp380
ssba(iSample
Sample
p381
(dp382
g3
(dp383
g5
I-34
ssg6
F1440505348.240457
sg7
(dp384
(g5
I3
tp385
(I22514
I22495
tp386
s(g5
I5
tp387
(I22500
I22479
tp388
ssba(iSample
Sample
p389
(dp390
g3
(dp391
g5
I-33
ssg6
F1440505350.666646
sg7
(dp392
(g5
I3
tp393
(I22532
I22513
tp394
s(g5
I5
tp395
(I22518
I22497
tp396
ssba(iSample
Sample
p397
(dp398
g3
(dp399
g5
I-33
ssg6
F1440505353.171042
sg7
(dp400
(g5
I3
tp401
(I22550
I22531
tp402
s(g5
I5
tp403
(I22536
I22515
tp404
ssba(iSample
Sample
p405
(dp406
g3
(dp407
g5
I-32
ssg6
F1440505355.525594
sg7
(dp408
(g5
I3
tp409
(I22568
I22549
tp410
s(g5
I5
tp411
(I22554
I22533
tp412
ssba(iSample
Sample
p413
(dp414
g3
(dp415
g5
I-34
ssg6
F1440505357.975972
sg7
(dp416
(g5
I3
tp417
(I22586
I22567
tp418
s(g5
I5
tp419
(I22572
I22551
tp420
ssba(iSample
Sample
p421
(dp422
g3
(dp423
g5
I-31
ssg6
F1440505360.39214
sg7
(dp424
(g5
I3
tp425
(I22604
I22585
tp426
s(g5
I5
tp427
(I22590
I22569
tp428
ssba(iSample
Sample
p429
(dp430
g3
(dp431
g5
I-33
ssg6
F1440505362.807907
sg7
(dp432
(g5
I3
tp433
(I22621
I22602
tp434
s(g5
I5
tp435
(I22607
I22586
tp436
ssba(iSample
Sample
p437
(dp438
g3
(dp439
g5
I-36
ssg6
F1440505365.141181
sg7
(dp440
(g5
I3
tp441
(I22639
I22620
tp442
s(g5
I5
tp443
(I22625
I22604
tp444
ssba(iSample
Sample
p445
(dp446
g3
(dp447
g5
I-35
ssg6
F1440505367.550312
sg7
(dp448
(g5
I3
tp449
(I22657
I22638
tp450
s(g5
I5
tp451
(I22643
I22622
tp452
ssba(iSample
Sample
p453
(dp454
g3
(dp455
g5
I-32
ssg6
F1440505369.999373
sg7
(dp456
(g5
I3
tp457
(I22675
I22656
tp458
s(g5
I5
tp459
(I22661
I22640
tp460
ssba(iSample
Sample
p461
(dp462
g3
(dp463
g5
I-31
ssg6
F1440505372.412313
sg7
(dp464
(g5
I3
tp465
(I22693
I22674
tp466
s(g5
I5
tp467
(I22679
I22658
tp468
ssba(iSample
Sample
p469
(dp470
g3
(dp471
g5
I-35
ssg6
F1440505374.834048
sg7
(dp472
(g5
I3
tp473
(I22711
I22692
tp474
s(g5
I5
tp475
(I22697
I22676
tp476
ssba(iSample
Sample
p477
(dp478
g3
(dp479
g5
I-36
ssg6
F1440505377.295262
sg7
(dp480
(g5
I3
tp481
(I22729
I22710
tp482
s(g5
I5
tp483
(I22715
I22694
tp484
ssba.