(lp0
(iSample
Sample
p1
(dp2
S'timeStamp'
p3
F1440420698.586634
sS'moteData'
p4
(dp5
(S'8031'
p6
I6
tp7
(I40264
I38561
tp8
s(S'85d2'
p9
I3
tp10
(I40134
I39621
tp11
s(S'8054'
p12
I5
tp13
(I40280
I39600
tp14
s(g9
I4
tp15
(I40244
I39683
tp16
s(g6
I2
tp17
(I40255
I38643
tp18
s(g12
I8
tp19
(I40269
I39642
tp20
ssba(iSample
Sample
p21
(dp22
g3
F1440420701.602356
sg4
(dp23
(g6
I6
tp24
(I40286
I38583
tp25
s(g9
I3
tp26
(I40156
I39643
tp27
s(g12
I5
tp28
(I40302
I39622
tp29
s(g9
I4
tp30
(I40266
I39705
tp31
s(g6
I2
tp32
(I40277
I38665
tp33
s(g12
I8
tp34
(I40291
I39664
tp35
ssba(iSample
Sample
p36
(dp37
g3
F1440420704.594347
sg4
(dp38
(g6
I6
tp39
(I40310
I38606
tp40
s(g9
I3
tp41
(I40180
I39667
tp42
s(g12
I5
tp43
(I40325
I39645
tp44
s(g9
I4
tp45
(I40290
I39729
tp46
s(g6
I2
tp47
(I40301
I38689
tp48
s(g12
I8
tp49
(I40314
I39687
tp50
ssba(iSample
Sample
p51
(dp52
g3
F1440420707.80662
sg4
(dp53
(g6
I6
tp54
(I40334
I38630
tp55
s(g9
I3
tp56
(I40204
I39691
tp57
s(g12
I5
tp58
(I40348
I39667
tp59
s(g9
I4
tp60
(I40314
I39752
tp61
s(g6
I2
tp62
(I40325
I38713
tp63
s(g12
I8
tp64
(I40337
I39710
tp65
ssba(iSample
Sample
p66
(dp67
g3
F1440420711.022663
sg4
(dp68
(g6
I6
tp69
(I40358
I38654
tp70
s(g9
I3
tp71
(I40228
I39715
tp72
s(g12
I5
tp73
(I40372
I39691
tp74
s(g9
I4
tp75
(I40338
I39775
tp76
s(g6
I2
tp77
(I40349
I38737
tp78
s(g12
I8
tp79
(I40361
I39734
tp80
ssba(iSample
Sample
p81
(dp82
g3
F1440420714.229377
sg4
(dp83
(g6
I6
tp84
(I40381
I38675
tp85
s(g9
I3
tp86
(I40251
I39737
tp87
s(g12
I5
tp88
(I40396
I39715
tp89
s(g9
I4
tp90
(I40361
I39798
tp91
s(g6
I2
tp92
(I40372
I38760
tp93
s(g12
I8
tp94
(I40385
I39758
tp95
ssba(iSample
Sample
p96
(dp97
g3
F1440420717.359617
sg4
(dp98
(g6
I6
tp99
(I40403
I38697
tp100
s(g9
I3
tp101
(I40273
I39759
tp102
s(g12
I5
tp103
(I40419
I39738
tp104
s(g9
I4
tp105
(I40383
I39820
tp106
s(g6
I2
tp107
(I40394
I38781
tp108
s(g12
I8
tp109
(I40408
I39781
tp110
ssba(iSample
Sample
p111
(dp112
g3
F1440420720.258891
sg4
(dp113
(g6
I6
tp114
(I40424
I38718
tp115
s(g9
I3
tp116
(I40297
I39783
tp117
s(g12
I5
tp118
(I40440
I39759
tp119
s(g9
I4
tp120
(I40407
I39844
tp121
s(g6
I2
tp122
(I40415
I38802
tp123
s(g12
I8
tp124
(I40429
I39802
tp125
ssba(iSample
Sample
p126
(dp127
g3
F1440420723.511835
sg4
(dp128
(g6
I6
tp129
(I40453
I38747
tp130
s(g9
I3
tp131
(I40323
I39808
tp132
s(g12
I5
tp133
(I40465
I39783
tp134
s(g9
I4
tp135
(I40433
I39869
tp136
s(g6
I2
tp137
(I40444
I38831
tp138
s(g12
I8
tp139
(I40454
I39827
tp140
ssba(iSample
Sample
p141
(dp142
g3
F1440420727.014309
sg4
(dp143
(g6
I6
tp144
(I40476
I38770
tp145
s(g9
I3
tp146
(I40346
I39831
tp147
s(g12
I5
tp148
(I40491
I39809
tp149
s(g9
I4
tp150
(I40456
I39891
tp151
s(g6
I2
tp152
(I40467
I38853
tp153
s(g12
I8
tp154
(I40480
I39852
tp155
ssba(iSample
Sample
p156
(dp157
g3
F1440420730.162654
sg4
(dp158
(g6
I6
tp159
(I40499
I38792
tp160
s(g9
I3
tp161
(I40370
I39855
tp162
s(g12
I5
tp163
(I40514
I39832
tp164
s(g9
I4
tp165
(I40480
I39915
tp166
s(g6
I2
tp167
(I40490
I38875
tp168
s(g12
I8
tp169
(I40503
I39875
tp170
ssba(iSample
Sample
p171
(dp172
g3
F1440420733.4162
sg4
(dp173
(g6
I6
tp174
(I40523
I38816
tp175
s(g9
I3
tp176
(I40393
I39878
tp177
s(g12
I5
tp178
(I40538
I39856
tp179
s(g9
I4
tp180
(I40503
I39938
tp181
s(g6
I2
tp182
(I40514
I38899
tp183
s(g12
I8
tp184
(I40527
I39899
tp185
ssba(iSample
Sample
p186
(dp187
g3
F1440420736.46448
sg4
(dp188
(g6
I6
tp189
(I40544
I38837
tp190
s(g9
I3
tp191
(I40414
I39899
tp192
s(g12
I5
tp193
(I40560
I39878
tp194
s(g9
I4
tp195
(I40524
I39959
tp196
s(g6
I2
tp197
(I40535
I38920
tp198
s(g12
I8
tp199
(I40549
I39921
tp200
ssba(iSample
Sample
p201
(dp202
g3
F1440420739.350177
sg4
(dp203
(g6
I6
tp204
(I40567
I38860
tp205
s(g9
I3
tp206
(I40437
I39921
tp207
s(g12
I5
tp208
(I40582
I39900
tp209
s(g9
I4
tp210
(I40547
I39982
tp211
s(g6
I2
tp212
(I40558
I38943
tp213
s(g12
I8
tp214
(I40571
I39943
tp215
ssba(iSample
Sample
p216
(dp217
g3
F1440420742.46639
sg4
(dp218
(g6
I6
tp219
(I40589
I38882
tp220
s(g9
I3
tp221
(I40460
I39944
tp222
s(g12
I5
tp223
(I40605
I39922
tp224
s(g9
I4
tp225
(I40570
I40005
tp226
s(g6
I2
tp227
(I40580
I38965
tp228
s(g12
I8
tp229
(I40594
I39966
tp230
ssba(iSample
Sample
p231
(dp232
g3
F1440420745.579502
sg4
(dp233
(g6
I6
tp234
(I40612
I38904
tp235
s(g9
I3
tp236
(I40482
I39966
tp237
s(g12
I5
tp238
(I40628
I39945
tp239
s(g9
I4
tp240
(I40592
I40027
tp241
s(g6
I2
tp242
(I40603
I38988
tp243
s(g12
I8
tp244
(I40617
I39989
tp245
ssba(iSample
Sample
p246
(dp247
g3
F1440420748.572653
sg4
(dp248
(g6
I6
tp249
(I40634
I38926
tp250
s(g9
I3
tp251
(I40504
I39988
tp252
s(g12
I5
tp253
(I40650
I39967
tp254
s(g9
I4
tp255
(I40614
I40048
tp256
s(g6
I2
tp257
(I40625
I39010
tp258
s(g12
I8
tp259
(I40639
I40011
tp260
ssba(iSample
Sample
p261
(dp262
g3
F1440420751.508627
sg4
(dp263
(g6
I6
tp264
(I40658
I38950
tp265
s(g9
I3
tp266
(I40528
I40011
tp267
s(g12
I5
tp268
(I40674
I39991
tp269
s(g9
I4
tp270
(I40638
I40072
tp271
s(g6
I2
tp272
(I40649
I39034
tp273
s(g12
I8
tp274
(I40663
I40034
tp275
ssba(iSample
Sample
p276
(dp277
g3
F1440420754.77986
sg4
(dp278
(g6
I6
tp279
(I40680
I38972
tp280
s(g9
I3
tp281
(I40550
I40032
tp282
s(g12
I5
tp283
(I40696
I40012
tp284
s(g9
I4
tp285
(I40660
I40094
tp286
s(g6
I2
tp287
(I40671
I39056
tp288
s(g12
I8
tp289
(I40685
I40056
tp290
ssba(iSample
Sample
p291
(dp292
g3
F1440420757.693063
sg4
(dp293
(g6
I6
tp294
(I40702
I38994
tp295
s(g9
I3
tp296
(I40572
I40054
tp297
s(g12
I5
tp298
(I40718
I40034
tp299
s(g9
I4
tp300
(I40682
I40116
tp301
s(g6
I2
tp302
(I40693
I39078
tp303
s(g12
I8
tp304
(I40707
I40078
tp305
ssba(iSample
Sample
p306
(dp307
g3
F1440420760.689128
sg4
(dp308
(g6
I6
tp309
(I40725
I39017
tp310
s(g9
I3
tp311
(I40595
I40077
tp312
s(g12
I5
tp313
(I40740
I40056
tp314
s(g9
I4
tp315
(I40705
I40138
tp316
s(g6
I2
tp317
(I40716
I39100
tp318
s(g12
I8
tp319
(I40729
I40100
tp320
ssba(iSample
Sample
p321
(dp322
g3
F1440420763.865522
sg4
(dp323
(g6
I6
tp324
(I40747
I39038
tp325
s(g9
I3
tp326
(I40617
I40099
tp327
s(g12
I5
tp328
(I40763
I40079
tp329
s(g9
I4
tp330
(I40727
I40160
tp331
s(g6
I2
tp332
(I40738
I39122
tp333
s(g12
I8
tp334
(I40752
I40123
tp335
ssba(iSample
Sample
p336
(dp337
g3
F1440420766.718591
sg4
(dp338
(g6
I6
tp339
(I40770
I39061
tp340
s(g9
I3
tp341
(I40640
I40121
tp342
s(g12
I5
tp343
(I40785
I40101
tp344
s(g9
I4
tp345
(I40750
I40183
tp346
s(g6
I2
tp347
(I40761
I39145
tp348
s(g12
I8
tp349
(I40774
I40145
tp350
ssba(iSample
Sample
p351
(dp352
g3
F1440420769.863644
sg4
(dp353
(g6
I6
tp354
(I40792
I39083
tp355
s(g9
I3
tp356
(I40662
I40141
tp357
s(g12
I5
tp358
(I40808
I40123
tp359
s(g9
I4
tp360
(I40772
I40205
tp361
s(g6
I2
tp362
(I40783
I39166
tp363
s(g12
I8
tp364
(I40797
I40168
tp365
ssba(iSample
Sample
p366
(dp367
g3
F1440420772.835448
sg4
(dp368
(g6
I6
tp369
(I40815
I39106
tp370
s(g9
I3
tp371
(I40686
I40165
tp372
s(g12
I5
tp373
(I40830
I40145
tp374
s(g9
I4
tp375
(I40796
I40229
tp376
s(g6
I2
tp377
(I40806
I39189
tp378
s(g12
I8
tp379
(I40819
I40189
tp380
ssba(iSample
Sample
p381
(dp382
g3
F1440420776.0849
sg4
(dp383
(g6
I6
tp384
(I40839
I39130
tp385
s(g9
I3
tp386
(I40709
I40188
tp387
s(g12
I5
tp388
(I40854
I40169
tp389
s(g9
I4
tp390
(I40819
I40251
tp391
s(g6
I2
tp392
(I40830
I39212
tp393
s(g12
I8
tp394
(I40843
I40213
tp395
ssba(iSample
Sample
p396
(dp397
g3
F1440420779.238478
sg4
(dp398
(g6
I6
tp399
(I40862
I39152
tp400
s(g9
I3
tp401
(I40733
I40212
tp402
s(g12
I5
tp403
(I40877
I40192
tp404
s(g9
I4
tp405
(I40843
I40275
tp406
s(g6
I2
tp407
(I40853
I39235
tp408
s(g12
I8
tp409
(I40866
I40236
tp410
ssba(iSample
Sample
p411
(dp412
g3
F1440420782.463456
sg4
(dp413
(g6
I6
tp414
(I40889
I39179
tp415
s(g9
I3
tp416
(I40759
I40238
tp417
s(g12
I5
tp418
(I40903
I40217
tp419
s(g9
I4
tp420
(I40869
I40301
tp421
s(g6
I2
tp422
(I40880
I39262
tp423
s(g12
I8
tp424
(I40892
I40261
tp425
ssba(iSample
Sample
p426
(dp427
g3
F1440420785.96289
sg4
(dp428
(g6
I6
tp429
(I40911
I39201
tp430
s(g9
I3
tp431
(I40781
I40259
tp432
s(g12
I5
tp433
(I40927
I40241
tp434
s(g9
I4
tp435
(I40891
I40321
tp436
s(g6
I2
tp437
(I40902
I39284
tp438
s(g12
I8
tp439
(I40916
I40284
tp440
ssba(iSample
Sample
p441
(dp442
g3
F1440420788.94511
sg4
(dp443
(g6
I6
tp444
(I40933
I39223
tp445
s(g9
I3
tp446
(I40803
I40281
tp447
s(g12
I5
tp448
(I40949
I40263
tp449
s(g9
I4
tp450
(I40913
I40343
tp451
s(g6
I2
tp452
(I40924
I39305
tp453
s(g12
I8
tp454
(I40938
I40305
tp455
ssba(iSample
Sample
p456
(dp457
g3
F1440420791.848466
sg4
(dp458
(g6
I6
tp459
(I40955
I39245
tp460
s(g9
I3
tp461
(I40825
I40303
tp462
s(g12
I5
tp463
(I40971
I40284
tp464
s(g9
I4
tp465
(I40935
I40365
tp466
s(g6
I2
tp467
(I40946
I39327
tp468
s(g12
I8
tp469
(I40960
I40326
tp470
ssba(iSample
Sample
p471
(dp472
g3
F1440420794.858452
sg4
(dp473
(g6
I6
tp474
(I40978
I39268
tp475
s(g9
I3
tp476
(I40848
I40326
tp477
s(g12
I5
tp478
(I40993
I40306
tp479
s(g9
I4
tp480
(I40958
I40388
tp481
s(g6
I2
tp482
(I40969
I39350
tp483
s(g12
I8
tp484
(I40982
I40348
tp485
ssba(iSample
Sample
p486
(dp487
g3
F1440420798.000689
sg4
(dp488
(g6
I6
tp489
(I41000
I39290
tp490
s(g9
I3
tp491
(I40870
I40348
tp492
s(g12
I5
tp493
(I41016
I40325
tp494
s(g9
I4
tp495
(I40980
I40410
tp496
s(g6
I2
tp497
(I40991
I39371
tp498
s(g12
I8
tp499
(I41005
I40370
tp500
ssba(iSample
Sample
p501
(dp502
g3
F1440420800.906513
sg4
(dp503
(g6
I6
tp504
(I41023
I39313
tp505
s(g9
I3
tp506
(I40893
I40371
tp507
s(g12
I5
tp508
(I41038
I40347
tp509
s(g9
I4
tp510
(I41003
I40432
tp511
s(g6
I2
tp512
(I41014
I39394
tp513
s(g12
I8
tp514
(I41027
I40392
tp515
ssba(iSample
Sample
p516
(dp517
g3
F1440420804.029145
sg4
(dp518
(g6
I6
tp519
(I41045
I39335
tp520
s(g9
I3
tp521
(I40915
I40392
tp522
s(g12
I5
tp523
(I41061
I40369
tp524
s(g9
I4
tp525
(I41025
I40454
tp526
s(g6
I2
tp527
(I41036
I39416
tp528
s(g12
I8
tp529
(I41050
I40414
tp530
ssba(iSample
Sample
p531
(dp532
g3
F1440420807.050533
sg4
(dp533
(g6
I6
tp534
(I41067
I39357
tp535
s(g9
I3
tp536
(I40937
I40413
tp537
s(g12
I5
tp538
(I41083
I40391
tp539
s(g9
I4
tp540
(I41047
I40476
tp541
s(g6
I2
tp542
(I41058
I39438
tp543
s(g12
I8
tp544
(I41072
I40436
tp545
ssba(iSample
Sample
p546
(dp547
g3
F1440420810.003779
sg4
(dp548
(g6
I6
tp549
(I41098
I39388
tp550
s(g9
I3
tp551
(I40969
I40445
tp552
s(g12
I5
tp553
(I41113
I40421
tp554
s(g9
I4
tp555
(I41079
I40507
tp556
s(g6
I2
tp557
(I41089
I39468
tp558
s(g12
I8
tp559
(I41102
I40466
tp560
ssba(iSample
Sample
p561
(dp562
g3
F1440420814.29855
sg4
(dp563
(g6
I6
tp564
(I41122
I39412
tp565
s(g9
I3
tp566
(I40995
I40471
tp567
s(g12
I5
tp568
(I41137
I40445
tp569
s(g9
I4
tp570
(I41105
I40533
tp571
s(g6
I2
tp572
(I41113
I39492
tp573
s(g12
I8
tp574
(I41126
I40490
tp575
ssba(iSample
Sample
p576
(dp577
g3
F1440420817.859652
sg4
(dp578
(g6
I6
tp579
(I41148
I39438
tp580
s(g9
I3
tp581
(I41019
I40495
tp582
s(g12
I5
tp583
(I41163
I40471
tp584
s(g9
I4
tp585
(I41129
I40557
tp586
s(g6
I2
tp587
(I41139
I39517
tp588
s(g12
I8
tp589
(I41152
I40515
tp590
ssba(iSample
Sample
p591
(dp592
g3
F1440420821.057841
sg4
(dp593
(g6
I6
tp594
(I41172
I39462
tp595
s(g9
I3
tp596
(I41042
I40518
tp597
s(g12
I5
tp598
(I41188
I40496
tp599
s(g9
I4
tp600
(I41152
I40580
tp601
s(g6
I2
tp602
(I41163
I39541
tp603
s(g12
I8
tp604
(I41177
I40540
tp605
ssba(iSample
Sample
p606
(dp607
g3
F1440420824.234665
sg4
(dp608
(g6
I6
tp609
(I41194
I39483
tp610
s(g9
I3
tp611
(I41064
I40540
tp612
s(g12
I5
tp613
(I41210
I40518
tp614
s(g9
I4
tp615
(I41174
I40602
tp616
s(g6
I2
tp617
(I41185
I39562
tp618
s(g12
I8
tp619
(I41199
I40562
tp620
ssba(iSample
Sample
p621
(dp622
g3
F1440420827.130835
sg4
(dp623
(g6
I6
tp624
(I41217
I39506
tp625
s(g9
I3
tp626
(I41088
I40564
tp627
s(g12
I5
tp628
(I41232
I40540
tp629
s(g9
I4
tp630
(I41198
I40626
tp631
s(g6
I2
tp632
(I41208
I39585
tp633
s(g12
I8
tp634
(I41221
I40584
tp635
ssba(iSample
Sample
p636
(dp637
g3
F1440420830.371716
sg4
(dp638
(g6
I6
tp639
(I41241
I39529
tp640
s(g9
I3
tp641
(I41112
I40588
tp642
s(g12
I5
tp643
(I41256
I40564
tp644
s(g9
I4
tp645
(I41222
I40650
tp646
s(g6
I2
tp647
(I41232
I39609
tp648
s(g12
I8
tp649
(I41245
I40608
tp650
ssba(iSample
Sample
p651
(dp652
g3
F1440420833.579074
sg4
(dp653
(g6
I6
tp654
(I41264
I39552
tp655
s(g9
I3
tp656
(I41135
I40611
tp657
s(g12
I5
tp658
(I41280
I40587
tp659
s(g9
I4
tp660
(I41245
I40673
tp661
s(g6
I2
tp662
(I41255
I39632
tp663
s(g12
I8
tp664
(I41269
I40632
tp665
ssba(iSample
Sample
p666
(dp667
g3
F1440420836.710062
sg4
(dp668
(g6
I6
tp669
(I41288
I39576
tp670
s(g9
I3
tp671
(I41159
I40634
tp672
s(g12
I5
tp673
(I41303
I40610
tp674
s(g9
I4
tp675
(I41269
I40697
tp676
s(g6
I2
tp677
(I41279
I39656
tp678
s(g12
I8
tp679
(I41292
I40655
tp680
ssba(iSample
Sample
p681
(dp682
g3
F1440420840.027167
sg4
(dp683
(g6
I6
tp684
(I41316
I39603
tp685
s(g9
I3
tp686
(I41186
I40661
tp687
s(g12
I5
tp688
(I41330
I40637
tp689
s(g9
I4
tp690
(I41296
I40724
tp691
s(g6
I2
tp692
(I41307
I39684
tp693
s(g12
I8
tp694
(I41319
I40682
tp695
ssba(iSample
Sample
p696
(dp697
g3
F1440420843.598798
sg4
(dp698
(g6
I6
tp699
(I41338
I39624
tp700
s(g9
I3
tp701
(I41208
I40683
tp702
s(g12
I5
tp703
(I41354
I40661
tp704
s(g9
I4
tp705
(I41318
I40746
tp706
s(g6
I2
tp707
(I41329
I39705
tp708
s(g12
I8
tp709
(I41343
I40706
tp710
ssba(iSample
Sample
p711
(dp712
g3
F1440420846.60992
sg4
(dp713
(g6
I6
tp714
(I41360
I39646
tp715
s(g9
I3
tp716
(I41230
I40705
tp717
s(g12
I5
tp718
(I41376
I40683
tp719
s(g9
I4
tp720
(I41340
I40768
tp721
s(g6
I2
tp722
(I41351
I39727
tp723
s(g12
I8
tp724
(I41365
I40728
tp725
ssba(iSample
Sample
p726
(dp727
g3
F1440420849.52487
sg4
(dp728
(g6
I6
tp729
(I41382
I39667
tp730
s(g9
I3
tp731
(I41252
I40727
tp732
s(g12
I5
tp733
(I41398
I40705
tp734
s(g9
I4
tp735
(I41362
I40790
tp736
s(g6
I2
tp737
(I41373
I39749
tp738
s(g12
I8
tp739
(I41387
I40750
tp740
ssba(iSample
Sample
p741
(dp742
g3
F1440420852.55401
sg4
(dp743
(g6
I6
tp744
(I41404
I39688
tp745
s(g9
I3
tp746
(I41274
I40749
tp747
s(g12
I5
tp748
(I41420
I40727
tp749
s(g9
I4
tp750
(I41384
I40812
tp751
s(g6
I2
tp752
(I41395
I39771
tp753
s(g12
I8
tp754
(I41409
I40772
tp755
ssba(iSample
Sample
p756
(dp757
g3
F1440420855.47036
sg4
(dp758
(g6
I6
tp759
(I41426
I39708
tp760
s(g9
I3
tp761
(I41296
I40771
tp762
s(g12
I5
tp763
(I41442
I40749
tp764
s(g9
I4
tp765
(I41406
I40834
tp766
s(g6
I2
tp767
(I41417
I39792
tp768
s(g12
I8
tp769
(I41431
I40794
tp770
ssba(iSample
Sample
p771
(dp772
g3
F1440420858.452397
sg4
(dp773
(g6
I6
tp774
(I41451
I39733
tp775
s(g9
I3
tp776
(I41321
I40796
tp777
s(g12
I5
tp778
(I41467
I40774
tp779
s(g9
I4
tp780
(I41431
I40859
tp781
s(g6
I2
tp782
(I41442
I39816
tp783
s(g12
I8
tp784
(I41456
I40819
tp785
ssba(iSample
Sample
p786
(dp787
g3
F1440420861.820106
sg4
(dp788
(g6
I6
tp789
(I41473
I39754
tp790
s(g9
I3
tp791
(I41343
I40818
tp792
s(g12
I5
tp793
(I41489
I40796
tp794
s(g9
I4
tp795
(I41453
I40881
tp796
s(g6
I2
tp797
(I41464
I39838
tp798
s(g12
I8
tp799
(I41478
I40841
tp800
ssba(iSample
Sample
p801
(dp802
g3
F1440420864.80119
sg4
(dp803
(g6
I6
tp804
(I41496
I39776
tp805
s(g9
I3
tp806
(I41368
I40843
tp807
s(g12
I5
tp808
(I41511
I40818
tp809
s(g9
I4
tp810
(I41478
I40906
tp811
s(g6
I2
tp812
(I41487
I39861
tp813
s(g12
I8
tp814
(I41500
I40863
tp815
ssba(iSample
Sample
p816
(dp817
g3
F1440420868.194577
sg4
(dp818
(g6
I6
tp819
(I41521
I39799
tp820
s(g9
I3
tp821
(I41391
I40866
tp822
s(g12
I5
tp823
(I41536
I40843
tp824
s(g9
I4
tp825
(I41501
I40929
tp826
s(g6
I2
tp827
(I41512
I39885
tp828
s(g12
I8
tp829
(I41525
I40888
tp830
ssba(iSample
Sample
p831
(dp832
g3
F1440420871.283667
sg4
(dp833
(g6
I6
tp834
(I41545
I39823
tp835
s(g9
I3
tp836
(I41415
I40890
tp837
s(g12
I5
tp838
(I41560
I40867
tp839
s(g9
I4
tp840
(I41525
I40953
tp841
s(g6
I2
tp842
(I41536
I39907
tp843
s(g12
I8
tp844
(I41549
I40912
tp845
ssba(iSample
Sample
p846
(dp847
g3
F1440420874.547589
sg4
(dp848
(g6
I6
tp849
(I41571
I39848
tp850
s(g9
I3
tp851
(I41441
I40915
tp852
s(g12
I5
tp853
(I41587
I40894
tp854
s(g9
I4
tp855
(I41551
I40979
tp856
s(g6
I2
tp857
(I41562
I39930
tp858
s(g12
I8
tp859
(I41576
I40939
tp860
ssba(iSample
Sample
p861
(dp862
g3
F1440420878.060653
sg4
(dp863
(g6
I6
tp864
(I41593
I39870
tp865
s(g9
I3
tp866
(I41464
I40938
tp867
s(g12
I5
tp868
(I41609
I40916
tp869
s(g9
I4
tp870
(I41574
I41002
tp871
s(g6
I2
tp872
(I41584
I39951
tp873
s(g12
I8
tp874
(I41598
I40961
tp875
ssba(iSample
Sample
p876
(dp877
g3
F1440420881.176158
sg4
(dp878
(g6
I6
tp879
(I41617
I39893
tp880
s(g9
I3
tp881
(I41487
I40961
tp882
s(g12
I5
tp883
(I41632
I40939
tp884
s(g9
I4
tp885
(I41597
I41025
tp886
s(g6
I2
tp887
(I41608
I39974
tp888
s(g12
I8
tp889
(I41621
I40984
tp890
ssba(iSample
Sample
p891
(dp892
g3
F1440420884.263988
sg4
(dp893
(g6
I6
tp894
(I41640
I39915
tp895
s(g9
I3
tp896
(I41510
I40984
tp897
s(g12
I5
tp898
(I41655
I40962
tp899
s(g9
I4
tp900
(I41620
I41048
tp901
s(g6
I2
tp902
(I41631
I39997
tp903
s(g12
I8
tp904
(I41644
I41007
tp905
ssba(iSample
Sample
p906
(dp907
g3
F1440420887.365971
sg4
(dp908
(g6
I6
tp909
(I41663
I39937
tp910
s(g9
I3
tp911
(I41533
I41007
tp912
s(g12
I5
tp913
(I41678
I40985
tp914
s(g9
I4
tp915
(I41643
I41071
tp916
s(g6
I2
tp917
(I41654
I40019
tp918
s(g12
I8
tp919
(I41667
I41030
tp920
ssba(iSample
Sample
p921
(dp922
g3
F1440420890.490713
sg4
(dp923
(g6
I6
tp924
(I41685
I39958
tp925
s(g9
I3
tp926
(I41555
I41029
tp927
s(g12
I5
tp928
(I41701
I41008
tp929
s(g9
I4
tp930
(I41665
I41093
tp931
s(g6
I2
tp932
(I41676
I40040
tp933
s(g12
I8
tp934
(I41690
I41053
tp935
ssba(iSample
Sample
p936
(dp937
g3
F1440420893.437941
sg4
(dp938
(g6
I6
tp939
(I41709
I39982
tp940
s(g9
I3
tp941
(I41581
I41055
tp942
s(g12
I5
tp943
(I41723
I41030
tp944
s(g9
I4
tp945
(I41691
I41119
tp946
s(g6
I2
tp947
(I41700
I40064
tp948
s(g12
I8
tp949
(I41712
I41075
tp950
ssba(iSample
Sample
p951
(dp952
g3
F1440420896.991721
sg4
(dp953
(g6
I6
tp954
(I41733
I40005
tp955
s(g9
I3
tp956
(I41603
I41077
tp957
s(g12
I5
tp958
(I41749
I41056
tp959
s(g9
I4
tp960
(I41713
I41141
tp961
s(g6
I2
tp962
(I41724
I40087
tp963
s(g12
I8
tp964
(I41738
I41101
tp965
ssba(iSample
Sample
p966
(dp967
g3
F1440420899.928095
sg4
(dp968
(g6
I6
tp969
(I41759
I40031
tp970
s(g9
I3
tp971
(I41630
I41104
tp972
s(g12
I5
tp973
(I41771
I41078
tp974
s(g9
I4
tp975
(I41740
I41168
tp976
s(g6
I2
tp977
(I41750
I40112
tp978
s(g12
I8
tp979
(I41760
I41123
tp980
ssba(iSample
Sample
p981
(dp982
g3
F1440420903.552772
sg4
(dp983
(g6
I6
tp984
(I41784
I40055
tp985
s(g9
I3
tp986
(I41658
I41132
tp987
s(g12
I5
tp988
(I41799
I41106
tp989
s(g9
I4
tp990
(I41768
I41196
tp991
s(g6
I2
tp992
(I41775
I40135
tp993
s(g12
I8
tp994
(I41788
I41151
tp995
ssba(iSample
Sample
p996
(dp997
g3
F1440420907.307181
sg4
(dp998
(g6
I6
tp999
(I41811
I40080
tp1000
s(g9
I3
tp1001
(I41681
I41155
tp1002
s(g12
I5
tp1003
(I41826
I41133
tp1004
s(g9
I4
tp1005
(I41791
I41219
tp1006
s(g6
I2
tp1007
(I41802
I40162
tp1008
s(g12
I8
tp1009
(I41815
I41178
tp1010
ssba(iSample
Sample
p1011
(dp1012
g3
F1440420910.484771
sg4
(dp1013
(g6
I6
tp1014
(I41833
I40101
tp1015
s(g9
I3
tp1016
(I41703
I41177
tp1017
s(g12
I5
tp1018
(I41849
I41156
tp1019
s(g9
I4
tp1020
(I41813
I41241
tp1021
s(g6
I2
tp1022
(I41824
I40184
tp1023
s(g12
I8
tp1024
(I41838
I41201
tp1025
ssba(iSample
Sample
p1026
(dp1027
g3
F1440420913.389533
sg4
(dp1028
(g6
I6
tp1029
(I41856
I40124
tp1030
s(g9
I3
tp1031
(I41726
I41200
tp1032
s(g12
I5
tp1033
(I41871
I41178
tp1034
s(g9
I4
tp1035
(I41836
I41264
tp1036
s(g6
I2
tp1037
(I41847
I40206
tp1038
s(g12
I8
tp1039
(I41860
I41223
tp1040
ssba(iSample
Sample
p1041
(dp1042
g3
F1440420916.534176
sg4
(dp1043
(g6
I6
tp1044
(I41879
I40146
tp1045
s(g9
I3
tp1046
(I41749
I41223
tp1047
s(g12
I5
tp1048
(I41894
I41201
tp1049
s(g9
I4
tp1050
(I41859
I41287
tp1051
s(g6
I2
tp1052
(I41870
I40228
tp1053
s(g12
I8
tp1054
(I41883
I41246
tp1055
ssba(iSample
Sample
p1056
(dp1057
g3
F1440420919.645685
sg4
(dp1058
(g6
I6
tp1059
(I41903
I40169
tp1060
s(g9
I3
tp1061
(I41773
I41247
tp1062
s(g12
I5
tp1063
(I41919
I41226
tp1064
s(g9
I4
tp1065
(I41883
I41311
tp1066
s(g6
I2
tp1067
(I41894
I40252
tp1068
s(g12
I8
tp1069
(I41908
I41271
tp1070
ssba(iSample
Sample
p1071
(dp1072
g3
F1440420922.853727
sg4
(dp1073
(g6
I6
tp1074
(I41925
I40190
tp1075
s(g9
I3
tp1076
(I41795
I41269
tp1077
s(g12
I5
tp1078
(I41941
I41248
tp1079
s(g9
I4
tp1080
(I41905
I41333
tp1081
s(g6
I2
tp1082
(I41916
I40273
tp1083
s(g12
I8
tp1084
(I41930
I41293
tp1085
ssba(iSample
Sample
p1086
(dp1087
g3
F1440420925.849021
sg4
(dp1088
(g6
I6
tp1089
(I41948
I40212
tp1090
s(g9
I3
tp1091
(I41819
I41293
tp1092
s(g12
I5
tp1093
(I41963
I41270
tp1094
s(g9
I4
tp1095
(I41929
I41357
tp1096
s(g6
I2
tp1097
(I41939
I40293
tp1098
s(g12
I8
tp1099
(I41952
I41315
tp1100
ssba(iSample
Sample
p1101
(dp1102
g3
F1440420929.095564
sg4
(dp1103
(g6
I6
tp1104
(I41973
I40237
tp1105
s(g9
I3
tp1106
(I41843
I41317
tp1107
s(g12
I5
tp1108
(I41987
I41294
tp1109
s(g9
I4
tp1110
(I41953
I41381
tp1111
s(g6
I2
tp1112
(I41964
I40318
tp1113
s(g12
I8
tp1114
(I41976
I41339
tp1115
ssba(iSample
Sample
p1116
(dp1117
g3
F1440420932.327855
sg4
(dp1118
(g6
I6
tp1119
(I41995
I40258
tp1120
s(g9
I3
tp1121
(I41867
I41341
tp1122
s(g12
I5
tp1123
(I42011
I41318
tp1124
s(g9
I4
tp1125
(I41977
I41405
tp1126
s(g6
I2
tp1127
(I41986
I40340
tp1128
s(g12
I8
tp1129
(I42000
I41363
tp1130
ssba(iSample
Sample
p1131
(dp1132
g3
F1440420935.543475
sg4
(dp1133
(g6
I6
tp1134
(I42019
I40282
tp1135
s(g9
I3
tp1136
(I41892
I41366
tp1137
s(g12
I5
tp1138
(I42035
I41342
tp1139
s(g9
I4
tp1140
(I42002
I41430
tp1141
s(g6
I2
tp1142
(I42010
I40364
tp1143
s(g12
I8
tp1144
(I42024
I41387
tp1145
ssba(iSample
Sample
p1146
(dp1147
g3
F1440420938.998441
sg4
(dp1148
(g6
I6
tp1149
(I42045
I40307
tp1150
s(g9
I3
tp1151
(I41916
I41390
tp1152
s(g12
I5
tp1153
(I42060
I41367
tp1154
s(g9
I4
tp1155
(I42026
I41454
tp1156
s(g6
I2
tp1157
(I42036
I40389
tp1158
s(g12
I8
tp1159
(I42049
I41412
tp1160
ssba(iSample
Sample
p1161
(dp1162
g3
F1440420942.205564
sg4
(dp1163
(g6
I6
tp1164
(I42070
I40332
tp1165
s(g9
I3
tp1166
(I41940
I41414
tp1167
s(g12
I5
tp1168
(I42084
I41391
tp1169
s(g9
I4
tp1170
(I42050
I41478
tp1171
s(g6
I2
tp1172
(I42061
I40414
tp1173
s(g12
I8
tp1174
(I42073
I41436
tp1175
ssba(iSample
Sample
p1176
(dp1177
g3
F1440420945.432328
sg4
(dp1178
(g6
I6
tp1179
(I42093
I40352
tp1180
s(g9
I3
tp1181
(I41964
I41438
tp1182
s(g12
I5
tp1183
(I42108
I41415
tp1184
s(g9
I4
tp1185
(I42074
I41502
tp1186
s(g6
I2
tp1187
(I42084
I40437
tp1188
s(g12
I8
tp1189
(I42097
I41460
tp1190
ssba(iSample
Sample
p1191
(dp1192
g3
F1440420948.639689
sg4
(dp1193
(g6
I6
tp1194
(I42116
I40374
tp1195
s(g9
I3
tp1196
(I41987
I41461
tp1197
s(g12
I5
tp1198
(I42132
I41439
tp1199
s(g9
I4
tp1200
(I42097
I41525
tp1201
s(g6
I2
tp1202
(I42107
I40458
tp1203
s(g12
I8
tp1204
(I42121
I41484
tp1205
ssba(iSample
Sample
p1206
(dp1207
g3
F1440420951.785916
sg4
(dp1208
(g6
I6
tp1209
(I42141
I40399
tp1210
s(g9
I3
tp1211
(I42011
I41485
tp1212
s(g12
I5
tp1213
(I42155
I41462
tp1214
s(g9
I4
tp1215
(I42121
I41549
tp1216
s(g6
I2
tp1217
(I42132
I40483
tp1218
s(g12
I8
tp1219
(I42144
I41507
tp1220
ssba(iSample
Sample
p1221
(dp1222
g3
F1440420955.038694
sg4
(dp1223
(g6
I6
tp1224
(I42163
I40419
tp1225
s(g9
I3
tp1226
(I42034
I41508
tp1227
s(g12
I5
tp1228
(I42179
I41486
tp1229
s(g9
I4
tp1230
(I42144
I41572
tp1231
s(g6
I2
tp1232
(I42154
I40504
tp1233
s(g12
I8
tp1234
(I42168
I41531
tp1235
ssba(iSample
Sample
p1236
(dp1237
g3
F1440420958.134535
sg4
(dp1238
(g6
I6
tp1239
(I42187
I40441
tp1240
s(g9
I3
tp1241
(I42057
I41531
tp1242
s(g12
I5
tp1243
(I42202
I41509
tp1244
s(g9
I4
tp1245
(I42167
I41595
tp1246
s(g6
I2
tp1247
(I42178
I40527
tp1248
s(g12
I8
tp1249
(I42191
I41554
tp1250
ssba(iSample
Sample
p1251
(dp1252
g3
F1440420961.211878
sg4
(dp1253
(g6
I6
tp1254
(I42210
I40463
tp1255
s(g9
I3
tp1256
(I42080
I41554
tp1257
s(g12
I5
tp1258
(I42226
I41533
tp1259
s(g9
I4
tp1260
(I42190
I41618
tp1261
s(g6
I2
tp1262
(I42201
I40549
tp1263
s(g12
I8
tp1264
(I42215
I41578
tp1265
ssba(iSample
Sample
p1266
(dp1267
g3
F1440420964.324022
sg4
(dp1268
(g6
I6
tp1269
(I42232
I40484
tp1270
s(g9
I3
tp1271
(I42102
I41576
tp1272
s(g12
I5
tp1273
(I42248
I41555
tp1274
s(g9
I4
tp1275
(I42212
I41640
tp1276
s(g6
I2
tp1277
(I42223
I40569
tp1278
s(g12
I8
tp1279
(I42237
I41600
tp1280
ssba(iSample
Sample
p1281
(dp1282
g3
F1440420967.342435
sg4
(dp1283
(g6
I6
tp1284
(I42254
I40506
tp1285
s(g9
I3
tp1286
(I42124
I41598
tp1287
s(g12
I5
tp1288
(I42270
I41577
tp1289
s(g9
I4
tp1290
(I42234
I41662
tp1291
s(g6
I2
tp1292
(I42245
I40590
tp1293
s(g12
I8
tp1294
(I42259
I41622
tp1295
ssba(iSample
Sample
p1296
(dp1297
g3
F1440420970.305619
sg4
(dp1298
(g6
I6
tp1299
(I42276
I40528
tp1300
s(g9
I3
tp1301
(I42146
I41620
tp1302
s(g12
I5
tp1303
(I42292
I41599
tp1304
s(g9
I4
tp1305
(I42256
I41684
tp1306
s(g6
I2
tp1307
(I42267
I40612
tp1308
s(g12
I8
tp1309
(I42281
I41644
tp1310
ssba(iSample
Sample
p1311
(dp1312
g3
F1440420973.254508
sg4
(dp1313
(g6
I6
tp1314
(I42302
I40553
tp1315
s(g9
I3
tp1316
(I42173
I41647
tp1317
s(g12
I5
tp1318
(I42317
I41624
tp1319
s(g9
I4
tp1320
(I42283
I41711
tp1321
s(g6
I2
tp1322
(I42293
I40636
tp1323
s(g12
I8
tp1324
(I42306
I41669
tp1325
ssba(iSample
Sample
p1326
(dp1327
g3
F1440420976.903046
sg4
(dp1328
(g6
I6
tp1329
(I42328
I40579
tp1330
s(g9
I3
tp1331
(I42201
I41675
tp1332
s(g12
I5
tp1333
(I42341
I41648
tp1334
s(g9
I4
tp1335
(I42311
I41739
tp1336
s(g6
I2
tp1337
(I42319
I40659
tp1338
s(g12
I8
tp1339
(I42330
I41693
tp1340
ssba(iSample
Sample
p1341
(dp1342
g3
F1440420980.673313
sg4
(dp1343
(g6
I6
tp1344
(I42353
I40602
tp1345
s(g9
I3
tp1346
(I42223
I41697
tp1347
s(g12
I5
tp1348
(I42369
I41676
tp1349
s(g9
I4
tp1350
(I42333
I41761
tp1351
s(g6
I2
tp1352
(I42344
I40683
tp1353
s(g12
I8
tp1354
(I42358
I41721
tp1355
ssba(iSample
Sample
p1356
(dp1357
g3
F1440420983.688403
sg4
(dp1358
(g6
I6
tp1359
(I42375
I40622
tp1360
s(g9
I3
tp1361
(I42245
I41719
tp1362
s(g12
I5
tp1363
(I42391
I41698
tp1364
s(g9
I4
tp1365
(I42355
I41783
tp1366
s(g6
I2
tp1367
(I42366
I40705
tp1368
s(g12
I8
tp1369
(I42380
I41743
tp1370
ssba(iSample
Sample
p1371
(dp1372
g3
F1440420986.651696
sg4
(dp1373
(g6
I6
tp1374
(I42397
I40644
tp1375
s(g9
I3
tp1376
(I42267
I41741
tp1377
s(g12
I5
tp1378
(I42413
I41720
tp1379
s(g9
I4
tp1380
(I42377
I41805
tp1381
s(g6
I2
tp1382
(I42388
I40727
tp1383
s(g12
I8
tp1384
(I42402
I41765
tp1385
ssba(iSample
Sample
p1386
(dp1387
g3
F1440420989.5617
sg4
(dp1388
(g6
I6
tp1389
(I42419
I40665
tp1390
s(g9
I3
tp1391
(I42290
I41764
tp1392
s(g12
I5
tp1393
(I42435
I41742
tp1394
s(g9
I4
tp1395
(I42400
I41828
tp1396
s(g6
I2
tp1397
(I42410
I40747
tp1398
s(g12
I8
tp1399
(I42424
I41787
tp1400
ssba(iSample
Sample
p1401
(dp1402
g3
F1440420992.737852
sg4
(dp1403
(g6
I6
tp1404
(I42442
I40688
tp1405
s(g9
I3
tp1406
(I42312
I41786
tp1407
s(g12
I5
tp1408
(I42458
I41765
tp1409
s(g9
I4
tp1410
(I42422
I41850
tp1411
s(g6
I2
tp1412
(I42433
I40770
tp1413
s(g12
I8
tp1414
(I42447
I41810
tp1415
ssba(iSample
Sample
p1416
(dp1417
g3
F1440420995.652329
sg4
(dp1418
(g6
I6
tp1419
(I42464
I40709
tp1420
s(g9
I3
tp1421
(I42334
I41808
tp1422
s(g12
I5
tp1423
(I42480
I41786
tp1424
s(g9
I4
tp1425
(I42444
I41871
tp1426
s(g6
I2
tp1427
(I42455
I40790
tp1428
s(g12
I8
tp1429
(I42469
I41832
tp1430
ssba(iSample
Sample
p1431
(dp1432
g3
F1440420998.663083
sg4
(dp1433
(g6
I6
tp1434
(I42486
I40730
tp1435
s(g9
I3
tp1436
(I42356
I41830
tp1437
s(g12
I5
tp1438
(I42502
I41808
tp1439
s(g9
I4
tp1440
(I42466
I41893
tp1441
s(g6
I2
tp1442
(I42477
I40811
tp1443
s(g12
I8
tp1444
(I42491
I41854
tp1445
ssba(iSample
Sample
p1446
(dp1447
g3
F1440421001.691151
sg4
(dp1448
(g6
I6
tp1449
(I42509
I40750
tp1450
s(g9
I3
tp1451
(I42382
I41856
tp1452
s(g12
I5
tp1453
(I42524
I41830
tp1454
s(g9
I4
tp1455
(I42492
I41919
tp1456
s(g6
I2
tp1457
(I42500
I40834
tp1458
s(g12
I8
tp1459
(I42513
I41876
tp1460
ssba(iSample
Sample
p1461
(dp1462
g3
F1440421005.150005
sg4
(dp1463
(g6
I6
tp1464
(I42534
I40775
tp1465
s(g9
I3
tp1466
(I42404
I41878
tp1467
s(g12
I5
tp1468
(I42550
I41856
tp1469
s(g9
I4
tp1470
(I42514
I41941
tp1471
s(g6
I2
tp1472
(I42525
I40858
tp1473
s(g12
I8
tp1474
(I42539
I41902
tp1475
ssba(iSample
Sample
p1476
(dp1477
g3
F1440421008.088175
sg4
(dp1478
(g6
I6
tp1479
(I42556
I40795
tp1480
s(g9
I3
tp1481
(I42426
I41900
tp1482
s(g12
I5
tp1483
(I42572
I41878
tp1484
s(g9
I4
tp1485
(I42536
I41963
tp1486
s(g6
I2
tp1487
(I42547
I40879
tp1488
s(g12
I8
tp1489
(I42561
I41924
tp1490
ssba(iSample
Sample
p1491
(dp1492
g3
F1440421011.072512
sg4
(dp1493
(g6
I6
tp1494
(I42581
I40820
tp1495
s(g9
I3
tp1496
(I42453
I41927
tp1497
s(g12
I5
tp1498
(I42594
I41900
tp1499
s(g9
I4
tp1500
(I42563
I41990
tp1501
s(g6
I2
tp1502
(I42572
I40902
tp1503
s(g12
I8
tp1504
(I42583
I41946
tp1505
ssba(iSample
Sample
p1506
(dp1507
g3
F1440421014.728018
sg4
(dp1508
(g6
I6
tp1509
(I42606
I40844
tp1510
s(g9
I3
tp1511
(I42476
I41950
tp1512
s(g12
I5
tp1513
(I42621
I41927
tp1514
s(g9
I4
tp1515
(I42586
I42013
tp1516
s(g6
I2
tp1517
(I42597
I40926
tp1518
s(g12
I8
tp1519
(I42610
I41973
tp1520
ssba(iSample
Sample
p1521
(dp1522
g3
F1440421017.852131
sg4
(dp1523
(g6
I6
tp1524
(I42628
I40866
tp1525
s(g9
I3
tp1526
(I42498
I41972
tp1527
s(g12
I5
tp1528
(I42644
I41950
tp1529
s(g9
I4
tp1530
(I42608
I42035
tp1531
s(g6
I2
tp1532
(I42619
I40948
tp1533
s(g12
I8
tp1534
(I42633
I41996
tp1535
ssba(iSample
Sample
p1536
(dp1537
g3
F1440421020.75886
sg4
(dp1538
(g6
I6
tp1539
(I42650
I40888
tp1540
s(g9
I3
tp1541
(I42521
I41995
tp1542
s(g12
I5
tp1543
(I42666
I41972
tp1544
s(g9
I4
tp1545
(I42631
I42058
tp1546
s(g6
I2
tp1547
(I42641
I40970
tp1548
s(g12
I8
tp1549
(I42655
I42018
tp1550
ssba(iSample
Sample
p1551
(dp1552
g3
F1440421023.872066
sg4
(dp1553
(g6
I6
tp1554
(I42676
I40913
tp1555
s(g9
I3
tp1556
(I42546
I42020
tp1557
s(g12
I5
tp1558
(I42689
I41995
tp1559
s(g9
I4
tp1560
(I42656
I42083
tp1561
s(g6
I2
tp1562
(I42667
I40994
tp1563
s(g12
I8
tp1564
(I42678
I42041
tp1565
ssba(iSample
Sample
p1566
(dp1567
g3
F1440421027.354632
sg4
(dp1568
(g6
I6
tp1569
(I42699
I40936
tp1570
s(g9
I3
tp1571
(I42569
I42043
tp1572
s(g12
I5
tp1573
(I42715
I42021
tp1574
s(g9
I4
tp1575
(I42679
I42106
tp1576
s(g6
I2
tp1577
(I42690
I41017
tp1578
s(g12
I8
tp1579
(I42704
I42067
tp1580
ssba(iSample
Sample
p1581
(dp1582
g3
F1440421030.429045
sg4
(dp1583
(g6
I6
tp1584
(I42722
I40958
tp1585
s(g9
I3
tp1586
(I42593
I42067
tp1587
s(g12
I5
tp1588
(I42737
I42043
tp1589
s(g9
I4
tp1590
(I42703
I42130
tp1591
s(g6
I2
tp1592
(I42713
I41039
tp1593
s(g12
I8
tp1594
(I42726
I42089
tp1595
ssba(iSample
Sample
p1596
(dp1597
g3
F1440421033.653032
sg4
(dp1598
(g6
I6
tp1599
(I42745
I40981
tp1600
s(g9
I3
tp1601
(I42615
I42089
tp1602
s(g12
I5
tp1603
(I42761
I42067
tp1604
s(g9
I4
tp1605
(I42725
I42152
tp1606
s(g6
I2
tp1607
(I42736
I41062
tp1608
s(g12
I8
tp1609
(I42750
I42113
tp1610
ssba(iSample
Sample
p1611
(dp1612
g3
F1440421036.559407
sg4
(dp1613
(g6
I6
tp1614
(I42771
I41006
tp1615
s(g9
I3
tp1616
(I42641
I42115
tp1617
s(g12
I5
tp1618
(I42786
I42092
tp1619
s(g9
I4
tp1620
(I42751
I42178
tp1621
s(g6
I2
tp1622
(I42762
I41088
tp1623
s(g12
I8
tp1624
(I42775
I42138
tp1625
ssba(iSample
Sample
p1626
(dp1627
g3
F1440421040.069556
sg4
(dp1628
(g6
I6
tp1629
(I42793
I41026
tp1630
s(g9
I3
tp1631
(I42664
I42138
tp1632
s(g12
I5
tp1633
(I42809
I42115
tp1634
s(g9
I4
tp1635
(I42774
I42201
tp1636
s(g6
I2
tp1637
(I42784
I41109
tp1638
s(g12
I8
tp1639
(I42798
I42161
tp1640
ssba(iSample
Sample
p1641
(dp1642
g3
F1440421043.172173
sg4
(dp1643
(g6
I6
tp1644
(I42817
I41049
tp1645
s(g9
I3
tp1646
(I42690
I42164
tp1647
s(g12
I5
tp1648
(I42832
I42138
tp1649
s(g9
I4
tp1650
(I42800
I42227
tp1651
s(g6
I2
tp1652
(I42808
I41132
tp1653
s(g12
I8
tp1654
(I42821
I42184
tp1655
ssba(iSample
Sample
p1656
(dp1657
g3
F1440421046.750717
sg4
(dp1658
(g6
I6
tp1659
(I42842
I41073
tp1660
s(g9
I3
tp1661
(I42712
I42186
tp1662
s(g12
I5
tp1663
(I42858
I42164
tp1664
s(g9
I4
tp1665
(I42822
I42249
tp1666
s(g6
I2
tp1667
(I42833
I41156
tp1668
s(g12
I8
tp1669
(I42847
I42209
tp1670
ssba(iSample
Sample
p1671
(dp1672
g3
F1440421049.700823
sg4
(dp1673
(g6
I6
tp1674
(I42865
I41094
tp1675
s(g9
I3
tp1676
(I42735
I42209
tp1677
s(g12
I5
tp1678
(I42880
I42186
tp1679
s(g9
I4
tp1680
(I42845
I42272
tp1681
s(g6
I2
tp1682
(I42856
I41179
tp1683
s(g12
I8
tp1684
(I42869
I42231
tp1685
ssba(iSample
Sample
p1686
(dp1687
g3
F1440421052.840513
sg4
(dp1688
(g6
I6
tp1689
(I42887
I41116
tp1690
s(g9
I3
tp1691
(I42757
I42231
tp1692
s(g12
I5
tp1693
(I42903
I42209
tp1694
s(g9
I4
tp1695
(I42867
I42294
tp1696
s(g6
I2
tp1697
(I42878
I41200
tp1698
s(g12
I8
tp1699
(I42892
I42254
tp1700
ssba(iSample
Sample
p1701
(dp1702
g3
F1440421055.808625
sg4
(dp1703
(g6
I6
tp1704
(I42909
I41138
tp1705
s(g9
I3
tp1706
(I42779
I42253
tp1707
s(g12
I5
tp1708
(I42925
I42231
tp1709
s(g9
I4
tp1710
(I42889
I42316
tp1711
s(g6
I2
tp1712
(I42900
I41221
tp1713
s(g12
I8
tp1714
(I42914
I42276
tp1715
ssba(iSample
Sample
p1716
(dp1717
g3
F1440421058.756877
sg4
(dp1718
(g6
I6
tp1719
(I42931
I41159
tp1720
s(g9
I3
tp1721
(I42802
I42276
tp1722
s(g12
I5
tp1723
(I42947
I42253
tp1724
s(g9
I4
tp1725
(I42912
I42339
tp1726
s(g6
I2
tp1727
(I42922
I41242
tp1728
s(g12
I8
tp1729
(I42936
I42298
tp1730
ssba(iSample
Sample
p1731
(dp1732
g3
F1440421061.823231
sg4
(dp1733
(g6
I6
tp1734
(I42954
I41182
tp1735
s(g9
I3
tp1736
(I42824
I42297
tp1737
s(g12
I5
tp1738
(I42970
I42276
tp1739
s(g9
I4
tp1740
(I42934
I42361
tp1741
s(g6
I2
tp1742
(I42945
I41265
tp1743
s(g12
I8
tp1744
(I42959
I42321
tp1745
ssba(iSample
Sample
p1746
(dp1747
g3
F1440421064.821939
sg4
(dp1748
(g6
I6
tp1749
(I42977
I41203
tp1750
s(g9
I3
tp1751
(I42850
I42323
tp1752
s(g12
I5
tp1753
(I42992
I42298
tp1754
s(g9
I4
tp1755
(I42960
I42387
tp1756
s(g6
I2
tp1757
(I42968
I41286
tp1758
s(g12
I8
tp1759
(I42981
I42343
tp1760
ssba(iSample
Sample
p1761
(dp1762
g3
F1440421068.386274
sg4
(dp1763
(g6
I6
tp1764
(I43003
I41226
tp1765
s(g9
I3
tp1766
(I42873
I42346
tp1767
s(g12
I5
tp1768
(I43018
I42323
tp1769
s(g9
I4
tp1770
(I42983
I42410
tp1771
s(g6
I2
tp1772
(I42994
I41310
tp1773
s(g12
I8
tp1774
(I43007
I42369
tp1775
ssba(iSample
Sample
p1776
(dp1777
g3
F1440421071.46075
sg4
(dp1778
(g6
I6
tp1779
(I43026
I41249
tp1780
s(g9
I3
tp1781
(I42896
I42369
tp1782
s(g12
I5
tp1783
(I43041
I42346
tp1784
s(g9
I4
tp1785
(I43006
I42433
tp1786
s(g6
I2
tp1787
(I43017
I41332
tp1788
s(g12
I8
tp1789
(I43030
I42392
tp1790
ssba(iSample
Sample
p1791
(dp1792
g3
F1440421074.556739
sg4
(dp1793
(g6
I6
tp1794
(I43048
I41269
tp1795
s(g9
I3
tp1796
(I42922
I42395
tp1797
s(g12
I5
tp1798
(I43064
I42369
tp1799
s(g9
I4
tp1800
(I43032
I42459
tp1801
s(g6
I2
tp1802
(I43039
I41352
tp1803
s(g12
I8
tp1804
(I43053
I42415
tp1805
ssba(iSample
Sample
p1806
(dp1807
g3
F1440421078.058319
sg4
(dp1808
(g6
I6
tp1809
(I43075
I41295
tp1810
s(g9
I3
tp1811
(I42945
I42418
tp1812
s(g12
I5
tp1813
(I43090
I42395
tp1814
s(g9
I4
tp1815
(I43055
I42482
tp1816
s(g6
I2
tp1817
(I43066
I41379
tp1818
s(g12
I8
tp1819
(I43079
I42441
tp1820
ssba(iSample
Sample
p1821
(dp1822
g3
F1440421081.215254
sg4
(dp1823
(g6
I6
tp1824
(I43098
I41317
tp1825
s(g9
I3
tp1826
(I42968
I42441
tp1827
s(g12
I5
tp1828
(I43113
I42418
tp1829
s(g9
I4
tp1830
(I43078
I42505
tp1831
s(g6
I2
tp1832
(I43089
I41401
tp1833
s(g12
I8
tp1834
(I43102
I42463
tp1835
ssba(iSample
Sample
p1836
(dp1837
g3
F1440421084.32769
sg4
(dp1838
(g6
I6
tp1839
(I43121
I41339
tp1840
s(g9
I3
tp1841
(I42991
I42464
tp1842
s(g12
I5
tp1843
(I43136
I42441
tp1844
s(g9
I4
tp1845
(I43101
I42528
tp1846
s(g6
I2
tp1847
(I43112
I41423
tp1848
s(g12
I8
tp1849
(I43125
I42486
tp1850
ssba(iSample
Sample
p1851
(dp1852
g3
F1440421087.371974
sg4
(dp1853
(g6
I6
tp1854
(I43144
I41360
tp1855
s(g9
I3
tp1856
(I43015
I42488
tp1857
s(g12
I5
tp1858
(I43159
I42464
tp1859
s(g9
I4
tp1860
(I43125
I42552
tp1861
s(g6
I2
tp1862
(I43135
I41446
tp1863
s(g12
I8
tp1864
(I43148
I42509
tp1865
ssba(iSample
Sample
p1866
(dp1867
g3
F1440421090.621138
sg4
(dp1868
(g6
I6
tp1869
(I43169
I41385
tp1870
s(g9
I3
tp1871
(I43039
I42512
tp1872
s(g12
I5
tp1873
(I43185
I42490
tp1874
s(g9
I4
tp1875
(I43149
I42576
tp1876
s(g6
I2
tp1877
(I43160
I41470
tp1878
s(g12
I8
tp1879
(I43174
I42535
tp1880
ssba(iSample
Sample
p1881
(dp1882
g3
F1440421093.845893
sg4
(dp1883
(g6
I6
tp1884
(I43191
I41405
tp1885
s(g9
I3
tp1886
(I43062
I42535
tp1887
s(g12
I5
tp1888
(I43207
I42511
tp1889
s(g9
I4
tp1890
(I43172
I42599
tp1891
s(g6
I2
tp1892
(I43182
I41492
tp1893
s(g12
I8
tp1894
(I43196
I42557
tp1895
ssba(iSample
Sample
p1896
(dp1897
g3
F1440421096.992666
sg4
(dp1898
(g6
I6
tp1899
(I43214
I41428
tp1900
s(g9
I3
tp1901
(I43084
I42557
tp1902
s(g12
I5
tp1903
(I43230
I42534
tp1904
s(g9
I4
tp1905
(I43194
I42621
tp1906
s(g6
I2
tp1907
(I43205
I41514
tp1908
s(g12
I8
tp1909
(I43219
I42580
tp1910
ssba(iSample
Sample
p1911
(dp1912
g3
F1440421099.941874
sg4
(dp1913
(g6
I6
tp1914
(I43237
I41450
tp1915
s(g9
I3
tp1916
(I43107
I42580
tp1917
s(g12
I5
tp1918
(I43252
I42556
tp1919
s(g9
I4
tp1920
(I43217
I42644
tp1921
s(g6
I2
tp1922
(I43228
I41537
tp1923
s(g12
I8
tp1924
(I43241
I42602
tp1925
ssba(iSample
Sample
p1926
(dp1927
g3
F1440421103.065459
sg4
(dp1928
(g6
I6
tp1929
(I43261
I41472
tp1930
s(g9
I3
tp1931
(I43133
I42606
tp1932
s(g12
I5
tp1933
(I43275
I42579
tp1934
s(g9
I4
tp1935
(I43243
I42670
tp1936
s(g6
I2
tp1937
(I43252
I41561
tp1938
s(g12
I8
tp1939
(I43264
I42625
tp1940
ssba(iSample
Sample
p1941
(dp1942
g3
F1440421106.567156
sg4
(dp1943
(g6
I6
tp1944
(I43285
I41496
tp1945
s(g9
I3
tp1946
(I43155
I42628
tp1947
s(g12
I5
tp1948
(I43301
I42605
tp1949
s(g9
I4
tp1950
(I43265
I42692
tp1951
s(g6
I2
tp1952
(I43276
I41584
tp1953
s(g12
I8
tp1954
(I43290
I42651
tp1955
ssba(iSample
Sample
p1956
(dp1957
g3
F1440421109.587469
sg4
(dp1958
(g6
I6
tp1959
(I43307
I41517
tp1960
s(g9
I3
tp1961
(I43178
I42651
tp1962
s(g12
I5
tp1963
(I43323
I42627
tp1964
s(g9
I4
tp1965
(I43288
I42715
tp1966
s(g6
I2
tp1967
(I43298
I41604
tp1968
s(g12
I8
tp1969
(I43312
I42673
tp1970
ssba(iSample
Sample
p1971
(dp1972
g3
F1440421112.635649
sg4
(dp1973
(g6
I6
tp1974
(I43331
I41541
tp1975
s(g9
I3
tp1976
(I43201
I42674
tp1977
s(g12
I5
tp1978
(I43346
I42650
tp1979
s(g9
I4
tp1980
(I43311
I42738
tp1981
s(g6
I2
tp1982
(I43322
I41627
tp1983
s(g12
I8
tp1984
(I43335
I42696
tp1985
ssba(iSample
Sample
p1986
(dp1987
g3
F1440421115.707787
sg4
(dp1988
(g6
I6
tp1989
(I43355
I41565
tp1990
s(g9
I3
tp1991
(I43226
I42699
tp1992
s(g12
I5
tp1993
(I43369
I42673
tp1994
s(g9
I4
tp1995
(I43336
I42763
tp1996
s(g6
I2
tp1997
(I43346
I41650
tp1998
s(g12
I8
tp1999
(I43358
I42719
tp2000
ssba(iSample
Sample
p2001
(dp2002
g3
F1440421119.181869
sg4
(dp2003
(g6
I6
tp2004
(I43381
I41591
tp2005
s(g9
I3
tp2006
(I43252
I42725
tp2007
s(g12
I5
tp2008
(I43394
I42698
tp2009
s(g9
I4
tp2010
(I43362
I42789
tp2011
s(g6
I2
tp2012
(I43372
I41676
tp2013
s(g12
I8
tp2014
(I43383
I42744
tp2015
ssba(iSample
Sample
p2016
(dp2017
g3
F1440421122.632339
sg4
(dp2018
(g6
I6
tp2019
(I43405
I41614
tp2020
s(g9
I3
tp2021
(I43275
I42748
tp2022
s(g12
I5
tp2023
(I43420
I42724
tp2024
s(g9
I4
tp2025
(I43385
I42812
tp2026
s(g6
I2
tp2027
(I43396
I41699
tp2028
s(g12
I8
tp2029
(I43409
I42770
tp2030
ssba(iSample
Sample
p2031
(dp2032
g3
F1440421125.697121
sg4
(dp2033
(g6
I6
tp2034
(I43427
I41635
tp2035
s(g9
I3
tp2036
(I43297
I42770
tp2037
s(g12
I5
tp2038
(I43443
I42747
tp2039
s(g9
I4
tp2040
(I43407
I42834
tp2041
s(g6
I2
tp2042
(I43418
I41720
tp2043
s(g12
I8
tp2044
(I43432
I42792
tp2045
ssba(iSample
Sample
p2046
(dp2047
g3
F1440421128.75284
sg4
(dp2048
(g6
I6
tp2049
(I43450
I41658
tp2050
s(g9
I3
tp2051
(I43320
I42793
tp2052
s(g12
I5
tp2053
(I43465
I42769
tp2054
s(g9
I4
tp2055
(I43430
I42857
tp2056
s(g6
I2
tp2057
(I43441
I41743
tp2058
s(g12
I8
tp2059
(I43454
I42814
tp2060
ssba(iSample
Sample
p2061
(dp2062
g3
F1440421131.859051
sg4
(dp2063
(g6
I6
tp2064
(I43473
I41680
tp2065
s(g9
I3
tp2066
(I43344
I42817
tp2067
s(g12
I5
tp2068
(I43488
I42792
tp2069
s(g9
I4
tp2070
(I43454
I42881
tp2071
s(g6
I2
tp2072
(I43464
I41764
tp2073
s(g12
I8
tp2074
(I43477
I42837
tp2075
ssba(iSample
Sample
p2076
(dp2077
g3
F1440421135.059709
sg4
(dp2078
(g6
I6
tp2079
(I43496
I41703
tp2080
s(g9
I3
tp2081
(I43367
I42840
tp2082
s(g12
I5
tp2083
(I43512
I42815
tp2084
s(g9
I4
tp2085
(I43477
I42904
tp2086
s(g6
I2
tp2087
(I43487
I41786
tp2088
s(g12
I8
tp2089
(I43501
I42861
tp2090
ssba(iSample
Sample
p2091
(dp2092
g3
F1440421138.157517
sg4
(dp2093
(g6
I6
tp2094
(I43520
I41724
tp2095
s(g9
I3
tp2096
(I43390
I42863
tp2097
s(g12
I5
tp2098
(I43535
I42838
tp2099
s(g9
I4
tp2100
(I43500
I42927
tp2101
s(g6
I2
tp2102
(I43511
I41809
tp2103
s(g12
I8
tp2104
(I43524
I42884
tp2105
ssba(iSample
Sample
p2106
(dp2107
g3
F1440421141.279344
sg4
(dp2108
(g6
I6
tp2109
(I43542
I41746
tp2110
s(g9
I3
tp2111
(I43413
I42886
tp2112
s(g12
I5
tp2113
(I43558
I42861
tp2114
s(g9
I4
tp2115
(I43523
I42950
tp2116
s(g6
I2
tp2117
(I43533
I41831
tp2118
s(g12
I8
tp2119
(I43547
I42907
tp2120
ssba(iSample
Sample
p2121
(dp2122
g3
F1440421144.375239
sg4
(dp2123
(g6
I6
tp2124
(I43569
I41772
tp2125
s(g9
I3
tp2126
(I43439
I42912
tp2127
s(g12
I5
tp2128
(I43584
I42887
tp2129
s(g9
I4
tp2130
(I43549
I42976
tp2131
s(g6
I2
tp2132
(I43560
I41858
tp2133
s(g12
I8
tp2134
(I43573
I42933
tp2135
ssba(iSample
Sample
p2136
(dp2137
g3
F1440421147.938226
sg4
(dp2138
(g6
I6
tp2139
(I43592
I41794
tp2140
s(g9
I3
tp2141
(I43462
I42935
tp2142
s(g12
I5
tp2143
(I43607
I42910
tp2144
s(g9
I4
tp2145
(I43572
I42999
tp2146
s(g6
I2
tp2147
(I43583
I41880
tp2148
s(g12
I8
tp2149
(I43596
I42956
tp2150
ssba(iSample
Sample
p2151
(dp2152
g3
F1440421151.010241
sg4
(dp2153
(g6
I6
tp2154
(I43614
I41815
tp2155
s(g9
I3
tp2156
(I43484
I42957
tp2157
s(g12
I5
tp2158
(I43630
I42933
tp2159
s(g9
I4
tp2160
(I43594
I43021
tp2161
s(g6
I2
tp2162
(I43605
I41902
tp2163
s(g12
I8
tp2164
(I43619
I42979
tp2165
ssba(iSample
Sample
p2166
(dp2167
g3
F1440421153.963817
sg4
(dp2168
(g6
I6
tp2169
(I43637
I41838
tp2170
s(g9
I3
tp2171
(I43508
I42981
tp2172
s(g12
I5
tp2173
(I43652
I42955
tp2174
s(g9
I4
tp2175
(I43618
I43045
tp2176
s(g6
I2
tp2177
(I43628
I41925
tp2178
s(g12
I8
tp2179
(I43641
I43001
tp2180
ssba(iSample
Sample
p2181
(dp2182
g3
F1440421157.208408
sg4
(dp2183
(g6
I6
tp2184
(I43660
I41860
tp2185
s(g9
I3
tp2186
(I43531
I43004
tp2187
s(g12
I5
tp2188
(I43676
I42979
tp2189
s(g9
I4
tp2190
(I43641
I43068
tp2191
s(g6
I2
tp2192
(I43651
I41947
tp2193
s(g12
I8
tp2194
(I43665
I43025
tp2195
ssba(iSample
Sample
p2196
(dp2197
g3
F1440421160.261897
sg4
(dp2198
(g6
I6
tp2199
(I43684
I41883
tp2200
s(g9
I3
tp2201
(I43554
I43027
tp2202
s(g12
I5
tp2203
(I43699
I43002
tp2204
s(g9
I4
tp2205
(I43664
I43091
tp2206
s(g6
I2
tp2207
(I43675
I41969
tp2208
s(g12
I8
tp2209
(I43688
I43048
tp2210
ssba(iSample
Sample
p2211
(dp2212
g3
F1440421163.403221
sg4
(dp2213
(g6
I6
tp2214
(I43707
I41906
tp2215
s(g9
I3
tp2216
(I43580
I43053
tp2217
s(g12
I5
tp2218
(I43722
I43025
tp2219
s(g9
I4
tp2220
(I43690
I43117
tp2221
s(g6
I2
tp2222
(I43698
I41991
tp2223
s(g12
I8
tp2224
(I43711
I43071
tp2225
ssba(iSample
Sample
p2226
(dp2227
g3
F1440421166.916789
sg4
(dp2228
(g6
I6
tp2229
(I43736
I41933
tp2230
s(g9
I3
tp2231
(I43607
I43080
tp2232
s(g12
I5
tp2233
(I43751
I43054
tp2234
s(g9
I4
tp2235
(I43717
I43144
tp2236
s(g6
I2
tp2237
(I43727
I42019
tp2238
s(g12
I8
tp2239
(I43740
I43100
tp2240
ssba(iSample
Sample
p2241
(dp2242
g3
F1440421170.539236
sg4
(dp2243
(g6
I6
tp2244
(I43759
I41955
tp2245
s(g9
I3
tp2246
(I43629
I43102
tp2247
s(g12
I5
tp2248
(I43775
I43077
tp2249
s(g9
I4
tp2250
(I43739
I43166
tp2251
s(g6
I2
tp2252
(I43750
I42042
tp2253
s(g12
I8
tp2254
(I43764
I43124
tp2255
ssba(iSample
Sample
p2256
(dp2257
g3
F1440421173.556482
sg4
(dp2258
(g6
I6
tp2259
(I43781
I41975
tp2260
s(g9
I3
tp2261
(I43651
I43124
tp2262
s(g12
I5
tp2263
(I43797
I43099
tp2264
s(g9
I4
tp2265
(I43761
I43188
tp2266
s(g6
I2
tp2267
(I43772
I42062
tp2268
s(g12
I8
tp2269
(I43786
I43146
tp2270
ssba(iSample
Sample
p2271
(dp2272
g3
F1440421176.522302
sg4
(dp2273
(g6
I6
tp2274
(I43803
I41996
tp2275
s(g9
I3
tp2276
(I43676
I43149
tp2277
s(g12
I5
tp2278
(I43819
I43121
tp2279
s(g9
I4
tp2280
(I43786
I43213
tp2281
s(g6
I2
tp2282
(I43794
I42082
tp2283
s(g12
I8
tp2284
(I43808
I43168
tp2285
ssba(iSample
Sample
p2286
(dp2287
g3
F1440421179.923703
sg4
(dp2288
(g6
I6
tp2289
(I43828
I42020
tp2290
s(g9
I3
tp2291
(I43698
I43171
tp2292
s(g12
I5
tp2293
(I43844
I43146
tp2294
s(g9
I4
tp2295
(I43808
I43235
tp2296
s(g6
I2
tp2297
(I43819
I42107
tp2298
s(g12
I8
tp2299
(I43833
I43193
tp2300
ssba(iSample
Sample
p2301
(dp2302
g3
F1440421182.858827
sg4
(dp2303
(g6
I6
tp2304
(I43851
I42041
tp2305
s(g9
I3
tp2306
(I43721
I43194
tp2307
s(g12
I5
tp2308
(I43866
I43168
tp2309
s(g9
I4
tp2310
(I43831
I43258
tp2311
s(g6
I2
tp2312
(I43842
I42128
tp2313
s(g12
I8
tp2314
(I43855
I43215
tp2315
ssba(iSample
Sample
p2316
(dp2317
g3
F1440421185.971412
sg4
(dp2318
(g6
I6
tp2319
(I43874
I42064
tp2320
s(g9
I3
tp2321
(I43744
I43217
tp2322
s(g12
I5
tp2323
(I43889
I43191
tp2324
s(g9
I4
tp2325
(I43854
I43281
tp2326
s(g6
I2
tp2327
(I43865
I42151
tp2328
s(g12
I8
tp2329
(I43878
I43238
tp2330
ssba(iSample
Sample
p2331
(dp2332
g3
F1440421189.082127
sg4
(dp2333
(g6
I6
tp2334
(I43896
I42086
tp2335
s(g9
I3
tp2336
(I43767
I43240
tp2337
s(g12
I5
tp2338
(I43912
I43214
tp2339
s(g9
I4
tp2340
(I43877
I43304
tp2341
s(g6
I2
tp2342
(I43887
I42173
tp2343
s(g12
I8
tp2344
(I43901
I43261
tp2345
ssba(iSample
Sample
p2346
(dp2347
g3
F1440421192.139077
sg4
(dp2348
(g6
I6
tp2349
(I43920
I42109
tp2350
s(g9
I3
tp2351
(I43790
I43263
tp2352
s(g12
I5
tp2353
(I43936
I43238
tp2354
s(g9
I4
tp2355
(I43900
I43327
tp2356
s(g6
I2
tp2357
(I43911
I42195
tp2358
s(g12
I8
tp2359
(I43925
I43285
tp2360
ssba(iSample
Sample
p2361
(dp2362
g3
F1440421195.248524
sg4
(dp2363
(g6
I6
tp2364
(I43944
I42132
tp2365
s(g9
I3
tp2366
(I43815
I43288
tp2367
s(g12
I5
tp2368
(I43958
I43260
tp2369
s(g9
I4
tp2370
(I43925
I43352
tp2371
s(g6
I2
tp2372
(I43935
I42219
tp2373
s(g12
I8
tp2374
(I43947
I43307
tp2375
ssba(iSample
Sample
p2376
(dp2377
g3
F1440421198.697354
sg4
(dp2378
(g6
I6
tp2379
(I43967
I42155
tp2380
s(g9
I3
tp2381
(I43837
I43310
tp2382
s(g12
I5
tp2383
(I43983
I43284
tp2384
s(g9
I4
tp2385
(I43947
I43374
tp2386
s(g6
I2
tp2387
(I43958
I42241
tp2388
s(g12
I8
tp2389
(I43972
I43332
tp2390
ssba(iSample
Sample
p2391
(dp2392
g3
F1440421201.625977
sg4
(dp2393
(g6
I6
tp2394
(I43990
I42177
tp2395
s(g9
I3
tp2396
(I43861
I43334
tp2397
s(g12
I5
tp2398
(I44005
I43306
tp2399
s(g9
I4
tp2400
(I43971
I43398
tp2401
s(g6
I2
tp2402
(I43981
I42263
tp2403
s(g12
I8
tp2404
(I43994
I43354
tp2405
ssba(iSample
Sample
p2406
(dp2407
g3
F1440421204.868851
sg4
(dp2408
(g6
I6
tp2409
(I44014
I42201
tp2410
s(g9
I3
tp2411
(I43885
I43358
tp2412
s(g12
I5
tp2413
(I44029
I43330
tp2414
s(g9
I4
tp2415
(I43995
I43422
tp2416
s(g6
I2
tp2417
(I44005
I42286
tp2418
s(g12
I8
tp2419
(I44018
I43378
tp2420
ssba(iSample
Sample
p2421
(dp2422
g3
F1440421208.110837
sg4
(dp2423
(g6
I6
tp2424
(I44039
I42225
tp2425
s(g9
I3
tp2426
(I43909
I43382
tp2427
s(g12
I5
tp2428
(I44053
I43354
tp2429
s(g9
I4
tp2430
(I44019
I43446
tp2431
s(g6
I2
tp2432
(I44030
I42310
tp2433
s(g12
I8
tp2434
(I44042
I43402
tp2435
ssba(iSample
Sample
p2436
(dp2437
g3
F1440421211.351557
sg4
(dp2438
(g6
I6
tp2439
(I44062
I42247
tp2440
s(g9
I3
tp2441
(I43933
I43406
tp2442
s(g12
I5
tp2443
(I44077
I43378
tp2444
s(g9
I4
tp2445
(I44043
I43470
tp2446
s(g6
I2
tp2447
(I44053
I42330
tp2448
s(g12
I8
tp2449
(I44066
I43426
tp2450
ssba(iSample
Sample
p2451
(dp2452
g3
F1440421214.578545
sg4
(dp2453
(g6
I6
tp2454
(I44088
I42273
tp2455
s(g9
I3
tp2456
(I43958
I43431
tp2457
s(g12
I5
tp2458
(I44101
I43402
tp2459
s(g9
I4
tp2460
(I44068
I43495
tp2461
s(g6
I2
tp2462
(I44079
I42356
tp2463
s(g12
I8
tp2464
(I44090
I43450
tp2465
ssba(iSample
Sample
p2466
(dp2467
g3
F1440421217.966166
sg4
(dp2468
(g6
I6
tp2469
(I44114
I42298
tp2470
s(g9
I3
tp2471
(I43985
I43458
tp2472
s(g12
I5
tp2473
(I44129
I43430
tp2474
s(g9
I4
tp2475
(I44095
I43522
tp2476
s(g6
I2
tp2477
(I44105
I42381
tp2478
s(g12
I8
tp2479
(I44118
I43478
tp2480
ssba(iSample
Sample
p2481
(dp2482
g3
F1440421221.631625
sg4
(dp2483
(g6
I6
tp2484
(I44137
I42321
tp2485
s(g9
I3
tp2486
(I44007
I43480
tp2487
s(g12
I5
tp2488
(I44153
I43454
tp2489
s(g9
I4
tp2490
(I44117
I43544
tp2491
s(g6
I2
tp2492
(I44128
I42402
tp2493
s(g12
I8
tp2494
(I44142
I43502
tp2495
ssba(iSample
Sample
p2496
(dp2497
g3
F1440421224.640402
sg4
(dp2498
(g6
I6
tp2499
(I44162
I42346
tp2500
s(g9
I3
tp2501
(I44033
I43506
tp2502
s(g12
I5
tp2503
(I44175
I43476
tp2504
s(g9
I4
tp2505
(I44143
I43570
tp2506
s(g6
I2
tp2507
(I44153
I42427
tp2508
s(g12
I8
tp2509
(I44164
I43524
tp2510
ssba(iSample
Sample
p2511
(dp2512
g3
F1440421228.141603
sg4
(dp2513
(g6
I6
tp2514
(I44187
I42371
tp2515
s(g9
I3
tp2516
(I44057
I43530
tp2517
s(g12
I5
tp2518
(I44203
I43504
tp2519
s(g9
I4
tp2520
(I44167
I43594
tp2521
s(g6
I2
tp2522
(I44178
I42452
tp2523
s(g12
I8
tp2524
(I44192
I43552
tp2525
ssba(iSample
Sample
p2526
(dp2527
g3
F1440421231.326278
sg4
(dp2528
(g6
I6
tp2529
(I44209
I42392
tp2530
s(g9
I3
tp2531
(I44082
I43555
tp2532
s(g12
I5
tp2533
(I44225
I43526
tp2534
s(g9
I4
tp2535
(I44192
I43619
tp2536
s(g6
I2
tp2537
(I44200
I42473
tp2538
s(g12
I8
tp2539
(I44214
I43574
tp2540
ssba(iSample
Sample
p2541
(dp2542
g3
F1440421234.731676
sg4
(dp2543
(g6
I6
tp2544
(I44234
I42416
tp2545
s(g9
I3
tp2546
(I44106
I43579
tp2547
s(g12
I5
tp2548
(I44250
I43551
tp2549
s(g9
I4
tp2550
(I44216
I43643
tp2551
s(g6
I2
tp2552
(I44225
I42498
tp2553
s(g12
I8
tp2554
(I44239
I43599
tp2555
ssba(iSample
Sample
p2556
(dp2557
g3
F1440421237.945267
sg4
(dp2558
(g6
I6
tp2559
(I44259
I42440
tp2560
s(g9
I3
tp2561
(I44130
I43603
tp2562
s(g12
I5
tp2563
(I44274
I43575
tp2564
s(g9
I4
tp2565
(I44240
I43667
tp2566
s(g6
I2
tp2567
(I44250
I42522
tp2568
s(g12
I8
tp2569
(I44263
I43623
tp2570
ssba(iSample
Sample
p2571
(dp2572
g3
F1440421241.201881
sg4
(dp2573
(g6
I6
tp2574
(I44283
I42464
tp2575
s(g9
I3
tp2576
(I44153
I43626
tp2577
s(g12
I5
tp2578
(I44298
I43599
tp2579
s(g9
I4
tp2580
(I44263
I43690
tp2581
s(g6
I2
tp2582
(I44274
I42545
tp2583
s(g12
I8
tp2584
(I44287
I43647
tp2585
ssba(iSample
Sample
p2586
(dp2587
g3
F1440421244.372377
sg4
(dp2588
(g6
I6
tp2589
(I44308
I42488
tp2590
s(g9
I3
tp2591
(I44180
I43653
tp2592
s(g12
I5
tp2593
(I44323
I43624
tp2594
s(g9
I4
tp2595
(I44290
I43717
tp2596
s(g6
I2
tp2597
(I44299
I42570
tp2598
s(g12
I8
tp2599
(I44312
I43672
tp2600
ssba(iSample
Sample
p2601
(dp2602
g3
F1440421247.975877
sg4
(dp2603
(g6
I6
tp2604
(I44332
I42511
tp2605
s(g9
I3
tp2606
(I44203
I43676
tp2607
s(g12
I5
tp2608
(I44348
I43649
tp2609
s(g9
I4
tp2610
(I44313
I43740
tp2611
s(g6
I2
tp2612
(I44323
I42590
tp2613
s(g12
I8
tp2614
(I44337
I43697
tp2615
ssba(iSample
Sample
p2616
(dp2617
g3
F1440421251.086884
sg4
(dp2618
(g6
I6
tp2619
(I44355
I42532
tp2620
s(g9
I3
tp2621
(I44225
I43698
tp2622
s(g12
I5
tp2623
(I44371
I43672
tp2624
s(g9
I4
tp2625
(I44335
I43762
tp2626
s(g6
I2
tp2627
(I44346
I42611
tp2628
s(g12
I8
tp2629
(I44360
I43720
tp2630
ssba(iSample
Sample
p2631
(dp2632
g3
F1440421254.071539
sg4
(dp2633
(g6
I6
tp2634
(I44377
I42553
tp2635
s(g9
I3
tp2636
(I44250
I43723
tp2637
s(g12
I5
tp2638
(I44393
I43694
tp2639
s(g9
I4
tp2640
(I44360
I43787
tp2641
s(g6
I2
tp2642
(I44368
I42633
tp2643
s(g12
I8
tp2644
(I44382
I43742
tp2645
ssba(iSample
Sample
p2646
(dp2647
g3
F1440421257.379327
sg4
(dp2648
(g6
I6
tp2649
(I44402
I42577
tp2650
s(g9
I3
tp2651
(I44272
I43745
tp2652
s(g12
I5
tp2653
(I44418
I43719
tp2654
s(g9
I4
tp2655
(I44382
I43809
tp2656
s(g6
I2
tp2657
(I44393
I42657
tp2658
s(g12
I8
tp2659
(I44407
I43767
tp2660
ssba(iSample
Sample
p2661
(dp2662
g3
F1440421260.343075
sg4
(dp2663
(g6
I6
tp2664
(I44424
I42599
tp2665
s(g9
I3
tp2666
(I44294
I43767
tp2667
s(g12
I5
tp2668
(I44440
I43741
tp2669
s(g9
I4
tp2670
(I44404
I43831
tp2671
s(g6
I2
tp2672
(I44415
I42678
tp2673
s(g12
I8
tp2674
(I44429
I43789
tp2675
ssba(iSample
Sample
p2676
(dp2677
g3
F1440421263.367518
sg4
(dp2678
(g6
I6
tp2679
(I44447
I42622
tp2680
s(g9
I3
tp2681
(I44317
I43790
tp2682
s(g12
I5
tp2683
(I44462
I43763
tp2684
s(g9
I4
tp2685
(I44427
I43854
tp2686
s(g6
I2
tp2687
(I44438
I42701
tp2688
s(g12
I8
tp2689
(I44451
I43811
tp2690
ssba(iSample
Sample
p2691
(dp2692
g3
F1440421266.461033
sg4
(dp2693
(g6
I6
tp2694
(I44470
I42643
tp2695
s(g9
I3
tp2696
(I44340
I43813
tp2697
s(g12
I5
tp2698
(I44485
I43786
tp2699
s(g9
I4
tp2700
(I44450
I43877
tp2701
s(g6
I2
tp2702
(I44461
I42723
tp2703
s(g12
I8
tp2704
(I44474
I43834
tp2705
ssba(iSample
Sample
p2706
(dp2707
g3
F1440421269.542879
sg4
(dp2708
(g6
I6
tp2709
(I44492
I42664
tp2710
s(g9
I3
tp2711
(I44362
I43835
tp2712
s(g12
I5
tp2713
(I44508
I43809
tp2714
s(g9
I4
tp2715
(I44472
I43899
tp2716
s(g6
I2
tp2717
(I44483
I42745
tp2718
s(g12
I8
tp2719
(I44497
I43857
tp2720
ssba(iSample
Sample
p2721
(dp2722
g3
F1440421272.49658
sg4
(dp2723
(g6
I6
tp2724
(I44515
I42686
tp2725
s(g9
I3
tp2726
(I44385
I43858
tp2727
s(g12
I5
tp2728
(I44531
I43832
tp2729
s(g9
I4
tp2730
(I44495
I43922
tp2731
s(g6
I2
tp2732
(I44506
I42766
tp2733
s(g12
I8
tp2734
(I44520
I43880
tp2735
ssba(iSample
Sample
p2736
(dp2737
g3
F1440421275.609117
sg4
(dp2738
(g6
I6
tp2739
(I44537
I42706
tp2740
s(g9
I3
tp2741
(I44407
I43880
tp2742
s(g12
I5
tp2743
(I44553
I43854
tp2744
s(g9
I4
tp2745
(I44517
I43944
tp2746
s(g6
I2
tp2747
(I44528
I42785
tp2748
s(g12
I8
tp2749
(I44542
I43902
tp2750
ssba(iSample
Sample
p2751
(dp2752
g3
F1440421278.56757
sg4
(dp2753
(g6
I6
tp2754
(I44562
I42730
tp2755
s(g9
I3
tp2756
(I44433
I43906
tp2757
s(g12
I5
tp2758
(I44576
I43877
tp2759
s(g9
I4
tp2760
(I44543
I43970
tp2761
s(g6
I2
tp2762
(I44553
I42810
tp2763
s(g12
I8
tp2764
(I44565
I43925
tp2765
ssba(iSample
Sample
p2766
(dp2767
g3
F1440421282.123482
sg4
(dp2768
(g6
I6
tp2769
(I44586
I42753
tp2770
s(g9
I3
tp2771
(I44463
I43936
tp2772
s(g12
I5
tp2773
(I44601
I43902
tp2774
s(g9
I4
tp2775
(I44573
I44000
tp2776
s(g6
I2
tp2777
(I44577
I42831
tp2778
s(g12
I8
tp2779
(I44590
I43950
tp2780
ssba(iSample
Sample
p2781
(dp2782
g3
F1440421286.176226
sg4
(dp2783
(g6
I6
tp2784
(I44616
I42781
tp2785
s(g9
I3
tp2786
(I44486
I43959
tp2787
s(g12
I5
tp2788
(I44631
I43931
tp2789
s(g9
I4
tp2790
(I44596
I44023
tp2791
s(g6
I2
tp2792
(I44607
I42860
tp2793
s(g12
I8
tp2794
(I44620
I43980
tp2795
ssba(iSample
Sample
p2796
(dp2797
g3
F1440421289.274453
sg4
(dp2798
(g6
I6
tp2799
(I44642
I42806
tp2800
s(g9
I3
tp2801
(I44513
I43986
tp2802
s(g12
I5
tp2803
(I44657
I43957
tp2804
s(g9
I4
tp2805
(I44623
I44050
tp2806
s(g6
I2
tp2807
(I44633
I42884
tp2808
s(g12
I8
tp2809
(I44646
I44006
tp2810
ssba(iSample
Sample
p2811
(dp2812
g3
F1440421292.927058
sg4
(dp2813
(g6
I6
tp2814
(I44666
I42829
tp2815
s(g9
I3
tp2816
(I44537
I44010
tp2817
s(g12
I5
tp2818
(I44681
I43981
tp2819
s(g9
I4
tp2820
(I44647
I44074
tp2821
s(g6
I2
tp2822
(I44657
I42908
tp2823
s(g12
I8
tp2824
(I44670
I44030
tp2825
ssba(iSample
Sample
p2826
(dp2827
g3
F1440421296.177223
sg4
(dp2828
(g6
I6
tp2829
(I44689
I42852
tp2830
s(g9
I3
tp2831
(I44560
I44033
tp2832
s(g12
I5
tp2833
(I44705
I44005
tp2834
s(g9
I4
tp2835
(I44670
I44097
tp2836
s(g6
I2
tp2837
(I44680
I42930
tp2838
s(g12
I8
tp2839
(I44694
I44054
tp2840
ssba(iSample
Sample
p2841
(dp2842
g3
F1440421299.257414
sg4
(dp2843
(g6
I6
tp2844
(I44714
I42876
tp2845
s(g9
I3
tp2846
(I44584
I44057
tp2847
s(g12
I5
tp2848
(I44728
I44028
tp2849
s(g9
I4
tp2850
(I44694
I44121
tp2851
s(g6
I2
tp2852
(I44705
I42955
tp2853
s(g12
I8
tp2854
(I44717
I44077
tp2855
ssba(iSample
Sample
p2856
(dp2857
g3
F1440421302.523167
sg4
(dp2858
(g6
I6
tp2859
(I44737
I42898
tp2860
s(g9
I3
tp2861
(I44607
I44080
tp2862
s(g12
I5
tp2863
(I44752
I44052
tp2864
s(g9
I4
tp2865
(I44717
I44144
tp2866
s(g6
I2
tp2867
(I44728
I42976
tp2868
s(g12
I8
tp2869
(I44741
I44101
tp2870
ssba(iSample
Sample
p2871
(dp2872
g3
F1440421305.582133
sg4
(dp2873
(g6
I6
tp2874
(I44759
I42919
tp2875
s(g9
I3
tp2876
(I44630
I44103
tp2877
s(g12
I5
tp2878
(I44775
I44075
tp2879
s(g9
I4
tp2880
(I44740
I44167
tp2881
s(g6
I2
tp2882
(I44750
I42998
tp2883
s(g12
I8
tp2884
(I44764
I44124
tp2885
ssba(iSample
Sample
p2886
(dp2887
g3
F1440421308.692338
sg4
(dp2888
(g6
I6
tp2889
(I44782
I42941
tp2890
s(g9
I3
tp2891
(I44652
I44125
tp2892
s(g12
I5
tp2893
(I44798
I44098
tp2894
s(g9
I4
tp2895
(I44762
I44189
tp2896
s(g6
I2
tp2897
(I44773
I43020
tp2898
s(g12
I8
tp2899
(I44787
I44147
tp2900
ssba(iSample
Sample
p2901
(dp2902
g3
F1440421311.749073
sg4
(dp2903
(g6
I6
tp2904
(I44805
I42964
tp2905
s(g9
I3
tp2906
(I44675
I44148
tp2907
s(g12
I5
tp2908
(I44820
I44120
tp2909
s(g9
I4
tp2910
(I44785
I44212
tp2911
s(g6
I2
tp2912
(I44796
I43043
tp2913
s(g12
I8
tp2914
(I44809
I44169
tp2915
ssba(iSample
Sample
p2916
(dp2917
g3
F1440421314.864287
sg4
(dp2918
(g6
I6
tp2919
(I44827
I42986
tp2920
s(g9
I3
tp2921
(I44698
I44171
tp2922
s(g12
I5
tp2923
(I44843
I44143
tp2924
s(g9
I4
tp2925
(I44808
I44235
tp2926
s(g6
I2
tp2927
(I44818
I43063
tp2928
s(g12
I8
tp2929
(I44832
I44192
tp2930
ssba(iSample
Sample
p2931
(dp2932
g3
F1440421317.905846
sg4
(dp2933
(g6
I6
tp2934
(I44851
I43010
tp2935
s(g9
I3
tp2936
(I44722
I44195
tp2937
s(g12
I5
tp2938
(I44866
I44166
tp2939
s(g9
I4
tp2940
(I44832
I44259
tp2941
s(g6
I2
tp2942
(I44842
I43086
tp2943
s(g12
I8
tp2944
(I44855
I44215
tp2945
ssba(iSample
Sample
p2946
(dp2947
g3
F1440421321.139118
sg4
(dp2948
(g6
I6
tp2949
(I44874
I43031
tp2950
s(g9
I3
tp2951
(I44744
I44217
tp2952
s(g12
I5
tp2953
(I44890
I44190
tp2954
s(g9
I4
tp2955
(I44854
I44281
tp2956
s(g6
I2
tp2957
(I44865
I43109
tp2958
s(g12
I8
tp2959
(I44879
I44239
tp2960
ssba(iSample
Sample
p2961
(dp2962
g3
F1440421324.092843
sg4
(dp2963
(g6
I6
tp2964
(I44896
I43051
tp2965
s(g9
I3
tp2966
(I44768
I44241
tp2967
s(g12
I5
tp2968
(I44912
I44212
tp2969
s(g9
I4
tp2970
(I44878
I44305
tp2971
s(g6
I2
tp2972
(I44887
I43128
tp2973
s(g12
I8
tp2974
(I44901
I44261
tp2975
ssba(iSample
Sample
p2976
(dp2977
g3
F1440421327.3932
sg4
(dp2978
(g6
I6
tp2979
(I44920
I43075
tp2980
s(g9
I3
tp2981
(I44790
I44263
tp2982
s(g12
I5
tp2983
(I44936
I44236
tp2984
s(g9
I4
tp2985
(I44900
I44327
tp2986
s(g6
I2
tp2987
(I44911
I43151
tp2988
s(g12
I8
tp2989
(I44925
I44285
tp2990
ssba(iSample
Sample
p2991
(dp2992
g3
F1440421330.301201
sg4
(dp2993
(g6
I6
tp2994
(I44942
I43096
tp2995
s(g9
I3
tp2996
(I44812
I44285
tp2997
s(g12
I5
tp2998
(I44958
I44258
tp2999
s(g9
I4
tp3000
(I44922
I44349
tp3001
s(g6
I2
tp3002
(I44933
I43172
tp3003
s(g12
I8
tp3004
(I44947
I44307
tp3005
ssba.