(lp0
(iSample
Sample
p1
(dp2
S'timeStamp'
p3
F1440580932.676682
sS'moteSignal'
p4
(dp5
S'f53b'
p6
(I-43
I107
tp7
ssS'moteData'
p8
(dp9
(g6
I5
tp10
(I26510
I26469
tp11
s(g6
I3
tp12
(I26518
I26474
tp13
ssba(iSample
Sample
p14
(dp15
g3
F1440580935.305708
sg4
(dp16
g6
(I-42
I108
tp17
ssg8
(dp18
(g6
I5
tp19
(I26529
I26488
tp20
s(g6
I3
tp21
(I26537
I26493
tp22
ssba(iSample
Sample
p23
(dp24
g3
F1440580937.661342
sg4
(dp25
g6
(I-44
I107
tp26
ssg8
(dp27
(g6
I5
tp28
(I26546
I26505
tp29
s(g6
I3
tp30
(I26554
I26510
tp31
ssba(iSample
Sample
p32
(dp33
g3
F1440580939.961348
sg4
(dp34
g6
(I-44
I107
tp35
ssg8
(dp36
(g6
I5
tp37
(I26564
I26523
tp38
s(g6
I3
tp39
(I26572
I26528
tp40
ssba(iSample
Sample
p41
(dp42
g3
F1440580942.42875
sg4
(dp43
g6
(I-43
I107
tp44
ssg8
(dp45
(g6
I5
tp46
(I26582
I26541
tp47
s(g6
I3
tp48
(I26590
I26546
tp49
ssba(iSample
Sample
p50
(dp51
g3
F1440580944.905077
sg4
(dp52
g6
(I-42
I107
tp53
ssg8
(dp54
(g6
I5
tp55
(I26600
I26559
tp56
s(g6
I3
tp57
(I26608
I26564
tp58
ssba(iSample
Sample
p59
(dp60
g3
F1440580947.272688
sg4
(dp61
g6
(I-43
I107
tp62
ssg8
(dp63
(g6
I5
tp64
(I26618
I26577
tp65
s(g6
I3
tp66
(I26626
I26582
tp67
ssba(iSample
Sample
p68
(dp69
g3
F1440580949.689342
sg4
(dp70
g6
(I-42
I107
tp71
ssg8
(dp72
(g6
I5
tp73
(I26636
I26595
tp74
s(g6
I3
tp75
(I26644
I26600
tp76
ssba(iSample
Sample
p77
(dp78
g3
F1440580952.17416
sg4
(dp79
g6
(I-43
I107
tp80
ssg8
(dp81
(g6
I5
tp82
(I26654
I26613
tp83
s(g6
I3
tp84
(I26662
I26618
tp85
ssba(iSample
Sample
p86
(dp87
g3
F1440580954.646496
sg4
(dp88
g6
(I-43
I107
tp89
ssg8
(dp90
(g6
I5
tp91
(I26672
I26631
tp92
s(g6
I3
tp93
(I26680
I26636
tp94
ssba(iSample
Sample
p95
(dp96
g3
F1440580957.021995
sg4
(dp97
g6
(I-44
I107
tp98
ssg8
(dp99
(g6
I5
tp100
(I26690
I26649
tp101
s(g6
I3
tp102
(I26698
I26654
tp103
ssba(iSample
Sample
p104
(dp105
g3
F1440580959.435578
sg4
(dp106
g6
(I-43
I107
tp107
ssg8
(dp108
(g6
I5
tp109
(I26708
I26667
tp110
s(g6
I3
tp111
(I26716
I26672
tp112
ssba(iSample
Sample
p113
(dp114
g3
F1440580961.867385
sg4
(dp115
g6
(I-43
I107
tp116
ssg8
(dp117
(g6
I5
tp118
(I26726
I26685
tp119
s(g6
I3
tp120
(I26734
I26690
tp121
ssba(iSample
Sample
p122
(dp123
g3
F1440580964.300561
sg4
(dp124
g6
(I-42
I107
tp125
ssg8
(dp126
(g6
I5
tp127
(I26744
I26703
tp128
s(g6
I3
tp129
(I26752
I26708
tp130
ssba(iSample
Sample
p131
(dp132
g3
F1440580966.727295
sg4
(dp133
g6
(I-44
I107
tp134
ssg8
(dp135
(g6
I5
tp136
(I26762
I26721
tp137
s(g6
I3
tp138
(I26770
I26726
tp139
ssba(iSample
Sample
p140
(dp141
g3
F1440580969.16044
sg4
(dp142
g6
(I-43
I108
tp143
ssg8
(dp144
(g6
I5
tp145
(I26780
I26739
tp146
s(g6
I3
tp147
(I26788
I26744
tp148
ssba(iSample
Sample
p149
(dp150
g3
F1440580971.595389
sg4
(dp151
g6
(I-43
I107
tp152
ssg8
(dp153
(g6
I5
tp154
(I26798
I26757
tp155
s(g6
I3
tp156
(I26806
I26762
tp157
ssba(iSample
Sample
p158
(dp159
g3
F1440580974.037761
sg4
(dp160
g6
(I-44
I107
tp161
ssg8
(dp162
(g6
I5
tp163
(I26816
I26775
tp164
s(g6
I3
tp165
(I26824
I26780
tp166
ssba(iSample
Sample
p167
(dp168
g3
F1440580976.486917
sg4
(dp169
g6
(I-47
I107
tp170
ssg8
(dp171
(g6
I5
tp172
(I26834
I26793
tp173
s(g6
I3
tp174
(I26842
I26798
tp175
ssba(iSample
Sample
p176
(dp177
g3
F1440580979.003418
sg4
(dp178
g6
(I-44
I107
tp179
ssg8
(dp180
(g6
I5
tp181
(I26853
I26812
tp182
s(g6
I3
tp183
(I26861
I26817
tp184
ssba(iSample
Sample
p185
(dp186
g3
F1440580981.480054
sg4
(dp187
g6
(I-46
I107
tp188
ssg8
(dp189
(g6
I5
tp190
(I26871
I26830
tp191
s(g6
I3
tp192
(I26879
I26835
tp193
ssba(iSample
Sample
p194
(dp195
g3
F1440580983.91481
sg4
(dp196
g6
(I-44
I107
tp197
ssg8
(dp198
(g6
I5
tp199
(I26889
I26848
tp200
s(g6
I3
tp201
(I26897
I26853
tp202
ssba(iSample
Sample
p203
(dp204
g3
F1440580986.357539
sg4
(dp205
g6
(I-43
I107
tp206
ssg8
(dp207
(g6
I5
tp208
(I26908
I26867
tp209
s(g6
I3
tp210
(I26916
I26872
tp211
ssba(iSample
Sample
p212
(dp213
g3
F1440580988.927514
sg4
(dp214
g6
(I-45
I107
tp215
ssg8
(dp216
(g6
I5
tp217
(I26926
I26884
tp218
s(g6
I3
tp219
(I26934
I26890
tp220
ssba(iSample
Sample
p221
(dp222
g3
F1440580991.325487
sg4
(dp223
g6
(I-46
I107
tp224
ssg8
(dp225
(g6
I5
tp226
(I26944
I26902
tp227
s(g6
I3
tp228
(I26952
I26908
tp229
ssba(iSample
Sample
p230
(dp231
g3
F1440580993.770623
sg4
(dp232
g6
(I-48
I107
tp233
ssg8
(dp234
(g6
I5
tp235
(I26962
I26920
tp236
s(g6
I3
tp237
(I26970
I26926
tp238
ssba(iSample
Sample
p239
(dp240
g3
F1440580996.228314
sg4
(dp241
g6
(I-47
I107
tp242
ssg8
(dp243
(g6
I5
tp244
(I26980
I26938
tp245
s(g6
I3
tp246
(I26988
I26944
tp247
ssba(iSample
Sample
p248
(dp249
g3
F1440580998.651877
sg4
(dp250
g6
(I-45
I107
tp251
ssg8
(dp252
(g6
I5
tp253
(I26998
I26956
tp254
s(g6
I3
tp255
(I27006
I26962
tp256
ssba(iSample
Sample
p257
(dp258
g3
F1440581001.058063
sg4
(dp259
g6
(I-41
I107
tp260
ssg8
(dp261
(g6
I5
tp262
(I27016
I26974
tp263
s(g6
I3
tp264
(I27024
I26980
tp265
ssba(iSample
Sample
p266
(dp267
g3
F1440581003.510831
sg4
(dp268
g6
(I-46
I107
tp269
ssg8
(dp270
(g6
I5
tp271
(I27034
I26992
tp272
s(g6
I3
tp273
(I27042
I26998
tp274
ssba(iSample
Sample
p275
(dp276
g3
F1440581005.918782
sg4
(dp277
g6
(I-41
I107
tp278
ssg8
(dp279
(g6
I5
tp280
(I27052
I27010
tp281
s(g6
I3
tp282
(I27060
I27016
tp283
ssba(iSample
Sample
p284
(dp285
g3
F1440581008.381427
sg4
(dp286
g6
(I-42
I107
tp287
ssg8
(dp288
(g6
I5
tp289
(I27070
I27028
tp290
s(g6
I3
tp291
(I27078
I27034
tp292
ssba(iSample
Sample
p293
(dp294
g3
F1440581010.791024
sg4
(dp295
g6
(I-43
I107
tp296
ssg8
(dp297
(g6
I5
tp298
(I27088
I27046
tp299
s(g6
I3
tp300
(I27096
I27052
tp301
ssba(iSample
Sample
p302
(dp303
g3
F1440581013.273459
sg4
(dp304
g6
(I-46
I107
tp305
ssg8
(dp306
(g6
I5
tp307
(I27106
I27064
tp308
s(g6
I3
tp309
(I27114
I27070
tp310
ssba(iSample
Sample
p311
(dp312
g3
F1440581015.695628
sg4
(dp313
g6
(I-47
I107
tp314
ssg8
(dp315
(g6
I5
tp316
(I27124
I27082
tp317
s(g6
I3
tp318
(I27132
I27088
tp319
ssba(iSample
Sample
p320
(dp321
g3
F1440581018.122128
sg4
(dp322
g6
(I-44
I107
tp323
ssg8
(dp324
(g6
I5
tp325
(I27142
I27100
tp326
s(g6
I3
tp327
(I27150
I27106
tp328
ssba(iSample
Sample
p329
(dp330
g3
F1440581020.552
sg4
(dp331
g6
(I-44
I107
tp332
ssg8
(dp333
(g6
I5
tp334
(I27160
I27118
tp335
s(g6
I3
tp336
(I27168
I27124
tp337
ssba(iSample
Sample
p338
(dp339
g3
F1440581022.988419
sg4
(dp340
g6
(I-45
I107
tp341
ssg8
(dp342
(g6
I5
tp343
(I27178
I27136
tp344
s(g6
I3
tp345
(I27186
I27142
tp346
ssba(iSample
Sample
p347
(dp348
g3
F1440581025.405838
sg4
(dp349
g6
(I-43
I107
tp350
ssg8
(dp351
(g6
I5
tp352
(I27196
I27154
tp353
s(g6
I3
tp354
(I27204
I27160
tp355
ssba(iSample
Sample
p356
(dp357
g3
F1440581027.882474
sg4
(dp358
g6
(I-49
I107
tp359
ssg8
(dp360
(g6
I5
tp361
(I27215
I27173
tp362
s(g6
I3
tp363
(I27223
I27179
tp364
ssba(iSample
Sample
p365
(dp366
g3
F1440581030.414433
sg4
(dp367
g6
(I-47
I107
tp368
ssg8
(dp369
(g6
I5
tp370
(I27233
I27191
tp371
s(g6
I3
tp372
(I27241
I27197
tp373
ssba(iSample
Sample
p374
(dp375
g3
F1440581032.843922
sg4
(dp376
g6
(I-45
I107
tp377
ssg8
(dp378
(g6
I5
tp379
(I27251
I27209
tp380
s(g6
I3
tp381
(I27259
I27215
tp382
ssba(iSample
Sample
p383
(dp384
g3
F1440581035.41468
sg4
(dp385
g6
(I-46
I107
tp386
ssg8
(dp387
(g6
I5
tp388
(I27270
I27228
tp389
s(g6
I3
tp390
(I27278
I27234
tp391
ssba(iSample
Sample
p392
(dp393
g3
F1440581037.947223
sg4
(dp394
g6
(I-44
I107
tp395
ssg8
(dp396
(g6
I5
tp397
(I27289
I27247
tp398
s(g6
I3
tp399
(I27297
I27253
tp400
ssba(iSample
Sample
p401
(dp402
g3
F1440581040.403137
sg4
(dp403
g6
(I-43
I107
tp404
ssg8
(dp405
(g6
I5
tp406
(I27307
I27265
tp407
s(g6
I3
tp408
(I27315
I27271
tp409
ssba(iSample
Sample
p410
(dp411
g3
F1440581042.844433
sg4
(dp412
g6
(I-43
I107
tp413
ssg8
(dp414
(g6
I5
tp415
(I27325
I27283
tp416
s(g6
I3
tp417
(I27333
I27289
tp418
ssba(iSample
Sample
p419
(dp420
g3
F1440581045.328426
sg4
(dp421
g6
(I-48
I107
tp422
ssg8
(dp423
(g6
I5
tp424
(I27344
I27302
tp425
s(g6
I3
tp426
(I27352
I27308
tp427
ssba(iSample
Sample
p428
(dp429
g3
F1440581047.812766
sg4
(dp430
g6
(I-47
I107
tp431
ssg8
(dp432
(g6
I5
tp433
(I27362
I27320
tp434
s(g6
I3
tp435
(I27370
I27326
tp436
ssba(iSample
Sample
p437
(dp438
g3
F1440581050.330494
sg4
(dp439
g6
(I-44
I107
tp440
ssg8
(dp441
(g6
I5
tp442
(I27381
I27339
tp443
s(g6
I3
tp444
(I27389
I27345
tp445
ssba(iSample
Sample
p446
(dp447
g3
F1440581052.817983
sg4
(dp448
g6
(I-45
I107
tp449
ssg8
(dp450
(g6
I5
tp451
(I27399
I27357
tp452
s(g6
I3
tp453
(I27407
I27363
tp454
ssba(iSample
Sample
p455
(dp456
g3
F1440581055.315664
sg4
(dp457
g6
(I-45
I107
tp458
ssg8
(dp459
(g6
I5
tp460
(I27418
I27376
tp461
s(g6
I3
tp462
(I27426
I27382
tp463
ssba(iSample
Sample
p464
(dp465
g3
F1440581057.809147
sg4
(dp466
g6
(I-43
I107
tp467
ssg8
(dp468
(g6
I5
tp469
(I27436
I27394
tp470
s(g6
I3
tp471
(I27444
I27400
tp472
ssba(iSample
Sample
p473
(dp474
g3
F1440581060.32792
sg4
(dp475
g6
(I-44
I107
tp476
ssg8
(dp477
(g6
I5
tp478
(I27455
I27413
tp479
s(g6
I3
tp480
(I27463
I27419
tp481
ssba(iSample
Sample
p482
(dp483
g3
F1440581062.833842
sg4
(dp484
g6
(I-45
I107
tp485
ssg8
(dp486
(g6
I5
tp487
(I27473
I27431
tp488
s(g6
I3
tp489
(I27481
I27437
tp490
ssba(iSample
Sample
p491
(dp492
g3
F1440581065.30604
sg4
(dp493
g6
(I-47
I107
tp494
ssg8
(dp495
(g6
I5
tp496
(I27492
I27450
tp497
s(g6
I3
tp498
(I27500
I27456
tp499
ssba(iSample
Sample
p500
(dp501
g3
F1440581067.820351
sg4
(dp502
g6
(I-44
I107
tp503
ssg8
(dp504
(g6
I5
tp505
(I27510
I27468
tp506
s(g6
I3
tp507
(I27518
I27474
tp508
ssba(iSample
Sample
p509
(dp510
g3
F1440581070.302854
sg4
(dp511
g6
(I-45
I107
tp512
ssg8
(dp513
(g6
I5
tp514
(I27529
I27487
tp515
s(g6
I3
tp516
(I27537
I27493
tp517
ssba(iSample
Sample
p518
(dp519
g3
F1440581072.813948
sg4
(dp520
g6
(I-45
I107
tp521
ssg8
(dp522
(g6
I5
tp523
(I27547
I27505
tp524
s(g6
I3
tp525
(I27555
I27511
tp526
ssba(iSample
Sample
p527
(dp528
g3
F1440581075.319854
sg4
(dp529
g6
(I-45
I107
tp530
ssg8
(dp531
(g6
I5
tp532
(I27566
I27524
tp533
s(g6
I3
tp534
(I27574
I27530
tp535
ssba(iSample
Sample
p536
(dp537
g3
F1440581077.844929
sg4
(dp538
g6
(I-45
I107
tp539
ssg8
(dp540
(g6
I5
tp541
(I27584
I27542
tp542
s(g6
I3
tp543
(I27592
I27548
tp544
ssba.