(lp0
(iSample
Sample
p1
(dp2
S'timeStamp'
p3
F1440502319.406937
sS'moteData'
p4
(dp5
(S'85d2'
p6
I3
tp7
(I87
I87
tp8
s(g6
I5
tp9
(I73
I73
tp10
ssba(iSample
Sample
p11
(dp12
g3
F1440502321.929236
sg4
(dp13
(g6
I3
tp14
(I106
I106
tp15
s(g6
I5
tp16
(I92
I92
tp17
ssba(iSample
Sample
p18
(dp19
g3
F1440502324.353288
sg4
(dp20
(g6
I3
tp21
(I124
I124
tp22
s(g6
I5
tp23
(I110
I110
tp24
ssba(iSample
Sample
p25
(dp26
g3
F1440502326.807106
sg4
(dp27
(g6
I3
tp28
(I142
I142
tp29
s(g6
I5
tp30
(I128
I128
tp31
ssba(iSample
Sample
p32
(dp33
g3
F1440502329.188319
sg4
(dp34
(g6
I3
tp35
(I159
I159
tp36
s(g6
I5
tp37
(I145
I145
tp38
ssba(iSample
Sample
p39
(dp40
g3
F1440502331.452504
sg4
(dp41
(g6
I3
tp42
(I176
I176
tp43
s(g6
I5
tp44
(I162
I162
tp45
ssba(iSample
Sample
p46
(dp47
g3
F1440502333.82712
sg4
(dp48
(g6
I3
tp49
(I194
I194
tp50
s(g6
I5
tp51
(I180
I180
tp52
ssba(iSample
Sample
p53
(dp54
g3
F1440502336.208614
sg4
(dp55
(g6
I3
tp56
(I211
I211
tp57
s(g6
I5
tp58
(I197
I197
tp59
ssba(iSample
Sample
p60
(dp61
g3
F1440502338.536999
sg4
(dp62
(g6
I3
tp63
(I229
I229
tp64
s(g6
I5
tp65
(I215
I215
tp66
ssba(iSample
Sample
p67
(dp68
g3
F1440502340.955084
sg4
(dp69
(g6
I3
tp70
(I246
I246
tp71
s(g6
I5
tp72
(I232
I232
tp73
ssba(iSample
Sample
p74
(dp75
g3
F1440502343.226233
sg4
(dp76
(g6
I3
tp77
(I263
I263
tp78
s(g6
I5
tp79
(I249
I249
tp80
ssba(iSample
Sample
p81
(dp82
g3
F1440502345.554807
sg4
(dp83
(g6
I3
tp84
(I280
I280
tp85
s(g6
I5
tp86
(I266
I266
tp87
ssba(iSample
Sample
p88
(dp89
g3
F1440502347.835118
sg4
(dp90
(g6
I3
tp91
(I297
I297
tp92
s(g6
I5
tp93
(I283
I283
tp94
ssba(iSample
Sample
p95
(dp96
g3
F1440502350.10792
sg4
(dp97
(g6
I3
tp98
(I314
I314
tp99
s(g6
I5
tp100
(I300
I300
tp101
ssba(iSample
Sample
p102
(dp103
g3
F1440502352.435373
sg4
(dp104
(g6
I3
tp105
(I331
I331
tp106
s(g6
I5
tp107
(I317
I317
tp108
ssba(iSample
Sample
p109
(dp110
g3
F1440502354.702694
sg4
(dp111
(g6
I3
tp112
(I348
I348
tp113
s(g6
I5
tp114
(I334
I334
tp115
ssba(iSample
Sample
p116
(dp117
g3
F1440502357.037616
sg4
(dp118
(g6
I3
tp119
(I366
I366
tp120
s(g6
I5
tp121
(I352
I352
tp122
ssba(iSample
Sample
p123
(dp124
g3
F1440502359.486689
sg4
(dp125
(g6
I3
tp126
(I384
I384
tp127
s(g6
I5
tp128
(I370
I370
tp129
ssba(iSample
Sample
p130
(dp131
g3
F1440502361.921146
sg4
(dp132
(g6
I3
tp133
(I402
I402
tp134
s(g6
I5
tp135
(I388
I388
tp136
ssba(iSample
Sample
p137
(dp138
g3
F1440502364.32342
sg4
(dp139
(g6
I3
tp140
(I419
I419
tp141
s(g6
I5
tp142
(I405
I405
tp143
ssba(iSample
Sample
p144
(dp145
g3
F1440502366.620882
sg4
(dp146
(g6
I3
tp147
(I436
I436
tp148
s(g6
I5
tp149
(I422
I422
tp150
ssba(iSample
Sample
p151
(dp152
g3
F1440502368.88048
sg4
(dp153
(g6
I3
tp154
(I453
I453
tp155
s(g6
I5
tp156
(I439
I439
tp157
ssba(iSample
Sample
p158
(dp159
g3
F1440502371.220369
sg4
(dp160
(g6
I3
tp161
(I471
I471
tp162
s(g6
I5
tp163
(I457
I457
tp164
ssba(iSample
Sample
p165
(dp166
g3
F1440502373.698389
sg4
(dp167
(g6
I3
tp168
(I489
I489
tp169
s(g6
I5
tp170
(I475
I475
tp171
ssba(iSample
Sample
p172
(dp173
g3
F1440502376.068301
sg4
(dp174
(g6
I3
tp175
(I506
I506
tp176
s(g6
I5
tp177
(I492
I492
tp178
ssba(iSample
Sample
p179
(dp180
g3
F1440502378.338503
sg4
(dp181
(g6
I3
tp182
(I523
I523
tp183
s(g6
I5
tp184
(I509
I509
tp185
ssba(iSample
Sample
p186
(dp187
g3
F1440502380.652905
sg4
(dp188
(g6
I3
tp189
(I540
I540
tp190
s(g6
I5
tp191
(I526
I526
tp192
ssba(iSample
Sample
p193
(dp194
g3
F1440502382.952454
sg4
(dp195
(g6
I3
tp196
(I557
I557
tp197
s(g6
I5
tp198
(I543
I543
tp199
ssba(iSample
Sample
p200
(dp201
g3
F1440502385.228767
sg4
(dp202
(g6
I3
tp203
(I574
I574
tp204
s(g6
I5
tp205
(I560
I560
tp206
ssba(iSample
Sample
p207
(dp208
g3
F1440502387.518924
sg4
(dp209
(g6
I3
tp210
(I591
I591
tp211
s(g6
I5
tp212
(I577
I577
tp213
ssba(iSample
Sample
p214
(dp215
g3
F1440502389.884486
sg4
(dp216
(g6
I3
tp217
(I609
I609
tp218
s(g6
I5
tp219
(I595
I595
tp220
ssba(iSample
Sample
p221
(dp222
g3
F1440502392.254842
sg4
(dp223
(g6
I3
tp224
(I626
I626
tp225
s(g6
I5
tp226
(I612
I612
tp227
ssba(iSample
Sample
p228
(dp229
g3
F1440502394.572363
sg4
(dp230
(g6
I3
tp231
(I643
I643
tp232
s(g6
I5
tp233
(I629
I629
tp234
ssba(iSample
Sample
p235
(dp236
g3
F1440502396.908662
sg4
(dp237
(g6
I3
tp238
(I661
I661
tp239
s(g6
I5
tp240
(I647
I647
tp241
ssba(iSample
Sample
p242
(dp243
g3
F1440502399.277265
sg4
(dp244
(g6
I3
tp245
(I678
I678
tp246
s(g6
I5
tp247
(I664
I664
tp248
ssba(iSample
Sample
p249
(dp250
g3
F1440502401.596976
sg4
(dp251
(g6
I3
tp252
(I695
I695
tp253
s(g6
I5
tp254
(I681
I681
tp255
ssba(iSample
Sample
p256
(dp257
g3
F1440502403.870228
sg4
(dp258
(g6
I3
tp259
(I712
I712
tp260
s(g6
I5
tp261
(I698
I698
tp262
ssba(iSample
Sample
p263
(dp264
g3
F1440502406.199348
sg4
(dp265
(g6
I3
tp266
(I730
I730
tp267
s(g6
I5
tp268
(I716
I716
tp269
ssba(iSample
Sample
p270
(dp271
g3
F1440502408.626825
sg4
(dp272
(g6
I3
tp273
(I748
I748
tp274
s(g6
I5
tp275
(I734
I734
tp276
ssba(iSample
Sample
p277
(dp278
g3
F1440502411.047919
sg4
(dp279
(g6
I3
tp280
(I765
I765
tp281
s(g6
I5
tp282
(I751
I751
tp283
ssba(iSample
Sample
p284
(dp285
g3
F1440502413.311935
sg4
(dp286
(g6
I3
tp287
(I782
I782
tp288
s(g6
I5
tp289
(I768
I768
tp290
ssba(iSample
Sample
p291
(dp292
g3
F1440502415.636994
sg4
(dp293
(g6
I3
tp294
(I799
I799
tp295
s(g6
I5
tp296
(I785
I785
tp297
ssba(iSample
Sample
p298
(dp299
g3
F1440502417.918743
sg4
(dp300
(g6
I3
tp301
(I816
I816
tp302
s(g6
I5
tp303
(I802
I802
tp304
ssba(iSample
Sample
p305
(dp306
g3
F1440502420.231685
sg4
(dp307
(g6
I3
tp308
(I833
I833
tp309
s(g6
I5
tp310
(I819
I819
tp311
ssba(iSample
Sample
p312
(dp313
g3
F1440502422.499594
sg4
(dp314
(g6
I3
tp315
(I850
I850
tp316
s(g6
I5
tp317
(I836
I836
tp318
ssba(iSample
Sample
p319
(dp320
g3
F1440502424.813958
sg4
(dp321
(g6
I3
tp322
(I867
I867
tp323
s(g6
I5
tp324
(I853
I853
tp325
ssba(iSample
Sample
p326
(dp327
g3
F1440502427.085585
sg4
(dp328
(g6
I3
tp329
(I884
I884
tp330
s(g6
I5
tp331
(I870
I870
tp332
ssba(iSample
Sample
p333
(dp334
g3
F1440502429.456145
sg4
(dp335
(g6
I3
tp336
(I902
I902
tp337
s(g6
I5
tp338
(I888
I888
tp339
ssba(iSample
Sample
p340
(dp341
g3
F1440502431.879577
sg4
(dp342
(g6
I3
tp343
(I920
I920
tp344
s(g6
I5
tp345
(I906
I906
tp346
ssba(iSample
Sample
p347
(dp348
g3
F1440502434.257801
sg4
(dp349
(g6
I3
tp350
(I937
I937
tp351
s(g6
I5
tp352
(I923
I923
tp353
ssba(iSample
Sample
p354
(dp355
g3
F1440502436.574153
sg4
(dp356
(g6
I3
tp357
(I954
I954
tp358
s(g6
I5
tp359
(I940
I940
tp360
ssba(iSample
Sample
p361
(dp362
g3
F1440502438.84384
sg4
(dp363
(g6
I3
tp364
(I971
I971
tp365
s(g6
I5
tp366
(I957
I957
tp367
ssba(iSample
Sample
p368
(dp369
g3
F1440502441.167939
sg4
(dp370
(g6
I3
tp371
(I988
I988
tp372
s(g6
I5
tp373
(I974
I974
tp374
ssba(iSample
Sample
p375
(dp376
g3
F1440502443.440452
sg4
(dp377
(g6
I3
tp378
(I1005
I1005
tp379
s(g6
I5
tp380
(I991
I991
tp381
ssba(iSample
Sample
p382
(dp383
g3
F1440502445.779756
sg4
(dp384
(g6
I3
tp385
(I1023
I1023
tp386
s(g6
I5
tp387
(I1009
I1009
tp388
ssba(iSample
Sample
p389
(dp390
g3
F1440502448.180168
sg4
(dp391
(g6
I3
tp392
(I1040
I1040
tp393
s(g6
I5
tp394
(I1026
I1026
tp395
ssba(iSample
Sample
p396
(dp397
g3
F1440502450.446363
sg4
(dp398
(g6
I3
tp399
(I1057
I1057
tp400
s(g6
I5
tp401
(I1043
I1043
tp402
ssba(iSample
Sample
p403
(dp404
g3
F1440502452.762385
sg4
(dp405
(g6
I3
tp406
(I1074
I1074
tp407
s(g6
I5
tp408
(I1060
I1060
tp409
ssba(iSample
Sample
p410
(dp411
g3
F1440502455.077762
sg4
(dp412
(g6
I3
tp413
(I1091
I1091
tp414
s(g6
I5
tp415
(I1077
I1077
tp416
ssba(iSample
Sample
p417
(dp418
g3
F1440502457.35067
sg4
(dp419
(g6
I3
tp420
(I1109
I1109
tp421
s(g6
I5
tp422
(I1095
I1095
tp423
ssba.