(lp0
(iSample
Sample
p1
(dp2
S'timeStamp'
p3
F1440594258.137657
sS'moteSignal'
p4
(dp5
S'8031'
p6
(I-55
I107
tp7
sS'f53b'
p8
(I-61
I107
tp9
sS'8054'
p10
(I-62
I107
tp11
ssS'moteData'
p12
(dp13
(g8
I3
tp14
(I123
I122
tp15
s(g6
I8
tp16
(I47
I47
tp17
s(g6
I5
tp18
(I34
I34
tp19
s(g10
I6
tp20
(I98
I93
tp21
s(g10
I4
tp22
(I60
I57
tp23
s(g8
I7
tp24
(I109
I107
tp25
ssba(iSample
Sample
p26
(dp27
g3
F1440594262.588934
sg4
(dp28
g6
(I-63
I107
tp29
sg8
(I-57
I107
tp30
sg10
(I-60
I107
tp31
ssg12
(dp32
(g8
I3
tp33
(I156
I154
tp34
s(g6
I8
tp35
(I80
I80
tp36
s(g6
I5
tp37
(I67
I67
tp38
s(g10
I6
tp39
(I131
I124
tp40
s(g10
I4
tp41
(I93
I88
tp42
s(g8
I7
tp43
(I142
I140
tp44
ssba(iSample
Sample
p45
(dp46
g3
F1440594266.947711
sg4
(dp47
g6
(I-60
I107
tp48
sg8
(I-59
I107
tp49
sg10
(I-57
I107
tp50
ssg12
(dp51
(g8
I3
tp52
(I191
I189
tp53
s(g6
I8
tp54
(I115
I115
tp55
s(g6
I5
tp56
(I102
I102
tp57
s(g10
I6
tp58
(I166
I156
tp59
s(g10
I4
tp60
(I128
I121
tp61
s(g8
I7
tp62
(I177
I175
tp63
ssba(iSample
Sample
p64
(dp65
g3
F1440594271.709963
sg4
(dp66
g6
(I-61
I107
tp67
sg8
(I-59
I107
tp68
sg10
(I-58
I107
tp69
ssg12
(dp70
(g8
I3
tp71
(I223
I221
tp72
s(g6
I8
tp73
(I147
I147
tp74
s(g6
I5
tp75
(I134
I134
tp76
s(g10
I6
tp77
(I198
I185
tp78
s(g10
I4
tp79
(I160
I151
tp80
s(g8
I7
tp81
(I209
I207
tp82
ssba(iSample
Sample
p83
(dp84
g3
F1440594276.00142
sg4
(dp85
g6
(I-61
I107
tp86
sg8
(I-59
I107
tp87
sg10
(I-58
I107
tp88
ssg12
(dp89
(g8
I3
tp90
(I255
I252
tp91
s(g6
I8
tp92
(I179
I179
tp93
s(g6
I5
tp94
(I166
I166
tp95
s(g10
I6
tp96
(I230
I216
tp97
s(g10
I4
tp98
(I192
I183
tp99
s(g8
I7
tp100
(I241
I239
tp101
ssba(iSample
Sample
p102
(dp103
g3
F1440594280.30819
sg4
(dp104
g6
(I-60
I107
tp105
sg8
(I-59
I107
tp106
sg10
(I-59
I107
tp107
ssg12
(dp108
(g8
I3
tp109
(I287
I283
tp110
s(g6
I8
tp111
(I211
I211
tp112
s(g6
I5
tp113
(I198
I198
tp114
s(g10
I6
tp115
(I262
I246
tp116
s(g10
I4
tp117
(I224
I212
tp118
s(g8
I7
tp119
(I273
I270
tp120
ssba(iSample
Sample
p121
(dp122
g3
F1440594284.64084
sg4
(dp123
g6
(I-60
I107
tp124
sg8
(I-59
I107
tp125
sg10
(I-58
I107
tp126
ssg12
(dp127
(g8
I3
tp128
(I319
I315
tp129
s(g6
I8
tp130
(I243
I243
tp131
s(g6
I5
tp132
(I230
I230
tp133
s(g10
I6
tp134
(I294
I276
tp135
s(g10
I4
tp136
(I256
I242
tp137
s(g8
I7
tp138
(I305
I302
tp139
ssba(iSample
Sample
p140
(dp141
g3
F1440594288.930732
sg4
(dp142
g6
(I-61
I107
tp143
sg8
(I-59
I107
tp144
sg10
(I-61
I107
tp145
ssg12
(dp146
(g8
I3
tp147
(I351
I346
tp148
s(g6
I8
tp149
(I278
I278
tp150
s(g6
I5
tp151
(I265
I264
tp152
s(g10
I6
tp153
(I329
I308
tp154
s(g10
I4
tp155
(I291
I274
tp156
s(g8
I7
tp157
(I337
I334
tp158
ssba(iSample
Sample
p159
(dp160
g3
F1440594293.674992
sg4
(dp161
g6
(I-62
I107
tp162
sg8
(I-58
I107
tp163
sg10
(I-61
I107
tp164
ssg12
(dp165
(g8
I3
tp166
(I386
I380
tp167
s(g6
I8
tp168
(I310
I310
tp169
s(g6
I5
tp170
(I297
I296
tp171
s(g10
I6
tp172
(I361
I339
tp173
s(g10
I4
tp174
(I323
I305
tp175
s(g8
I7
tp176
(I372
I369
tp177
ssba(iSample
Sample
p178
(dp179
g3
F1440594298.024429
sg4
(dp180
g6
(I-60
I107
tp181
sg8
(I-61
I107
tp182
sg10
(I-61
I107
tp183
ssg12
(dp184
(g8
I3
tp185
(I421
I413
tp186
s(g6
I8
tp187
(I527
I520
tp188
s(g6
I5
tp189
(I514
I507
tp190
s(g10
I6
tp191
(I578
I549
tp192
s(g10
I4
tp193
(I540
I512
tp194
s(g8
I7
tp195
(I407
I403
tp196
ssba(iSample
Sample
p197
(dp198
g3
F1440594327.297239
sg4
(dp199
g6
(I-59
I107
tp200
sg8
(I-59
I107
tp201
sg10
(I-61
I107
tp202
ssg12
(dp203
(g8
I3
tp204
(I635
I619
tp205
s(g6
I8
tp206
(I559
I550
tp207
s(g6
I5
tp208
(I546
I538
tp209
s(g10
I6
tp210
(I610
I580
tp211
s(g10
I4
tp212
(I572
I544
tp213
s(g8
I7
tp214
(I621
I611
tp215
ssba(iSample
Sample
p216
(dp217
g3
F1440594331.652577
sg4
(dp218
g6
(I-63
I107
tp219
sg8
(I-59
I107
tp220
sg10
(I-58
I107
tp221
ssg12
(dp222
(g8
I3
tp223
(I667
I651
tp224
s(g6
I8
tp225
(I592
I580
tp226
s(g6
I5
tp227
(I579
I571
tp228
s(g10
I6
tp229
(I643
I613
tp230
s(g10
I4
tp231
(I605
I577
tp232
s(g8
I7
tp233
(I653
I643
tp234
ssba(iSample
Sample
p235
(dp236
g3
F1440594336.18126
sg4
(dp237
g6
(I-62
I107
tp238
sg8
(I-60
I107
tp239
sg10
(I-58
I107
tp240
ssg12
(dp241
(g8
I3
tp242
(I700
I684
tp243
s(g6
I8
tp244
(I624
I612
tp245
s(g6
I5
tp246
(I611
I602
tp247
s(g10
I6
tp248
(I675
I645
tp249
s(g10
I4
tp250
(I637
I609
tp251
s(g8
I7
tp252
(I686
I676
tp253
ssba(iSample
Sample
p254
(dp255
g3
F1440594340.425982
sg4
(dp256
g6
(I-61
I107
tp257
sg8
(I-58
I107
tp258
sg10
(I-57
I107
tp259
ssg12
(dp260
(g8
I3
tp261
(I735
I719
tp262
s(g6
I8
tp263
(I659
I646
tp264
s(g6
I5
tp265
(I646
I637
tp266
s(g10
I6
tp267
(I710
I680
tp268
s(g10
I4
tp269
(I672
I644
tp270
s(g8
I7
tp271
(I721
I711
tp272
ssba(iSample
Sample
p273
(dp274
g3
F1440594345.129858
sg4
(dp275
g6
(I-62
I107
tp276
sg8
(I-59
I107
tp277
sg10
(I-57
I107
tp278
ssg12
(dp279
(g8
I3
tp280
(I767
I751
tp281
s(g6
I8
tp282
(I691
I678
tp283
s(g6
I5
tp284
(I678
I669
tp285
s(g10
I6
tp286
(I742
I711
tp287
s(g10
I4
tp288
(I704
I676
tp289
s(g8
I7
tp290
(I753
I742
tp291
ssba(iSample
Sample
p292
(dp293
g3
F1440594349.511636
sg4
(dp294
g6
(I-62
I107
tp295
sg8
(I-58
I107
tp296
sg10
(I-58
I107
tp297
ssg12
(dp298
(g8
I3
tp299
(I799
I783
tp300
s(g6
I8
tp301
(I933
I906
tp302
s(g6
I5
tp303
(I920
I898
tp304
s(g10
I6
tp305
(I775
I743
tp306
s(g10
I4
tp307
(I737
I709
tp308
s(g8
I7
tp309
(I785
I773
tp310
ssba(iSample
Sample
p311
(dp312
g3
F1440594382.174678
sg4
(dp313
g6
(I-62
I107
tp314
sg8
(I-55
I107
tp315
sg10
(I-62
I107
tp316
ssg12
(dp317
(g8
I3
tp318
(I1041
I1020
tp319
s(g6
I8
tp320
(I965
I937
tp321
s(g6
I5
tp322
(I952
I925
tp323
s(g10
I6
tp324
(I1016
I979
tp325
s(g10
I4
tp326
(I978
I949
tp327
s(g8
I7
tp328
(I1027
I1014
tp329
ssba(iSample
Sample
p330
(dp331
g3
F1440594386.48862
sg4
(dp332
g6
(I-62
I107
tp333
sg8
(I-55
I107
tp334
sg10
(I-62
I107
tp335
ssg12
(dp336
(g8
I3
tp337
(I1073
I1052
tp338
s(g6
I8
tp339
(I997
I968
tp340
s(g6
I5
tp341
(I984
I954
tp342
s(g10
I6
tp343
(I1048
I1011
tp344
s(g10
I4
tp345
(I1010
I981
tp346
s(g8
I7
tp347
(I1059
I1046
tp348
ssba(iSample
Sample
p349
(dp350
g3
F1440594390.793048
sg4
(dp351
g6
(I-60
I107
tp352
sg8
(I-54
I107
tp353
sg10
(I-63
I107
tp354
ssg12
(dp355
(g8
I3
tp356
(I1105
I1084
tp357
s(g6
I8
tp358
(I1029
I998
tp359
s(g6
I5
tp360
(I1016
I984
tp361
s(g10
I6
tp362
(I1080
I1043
tp363
s(g10
I4
tp364
(I1042
I1013
tp365
s(g8
I7
tp366
(I1091
I1078
tp367
ssba(iSample
Sample
p368
(dp369
g3
F1440594395.135863
sg4
(dp370
g6
(I-62
I107
tp371
sg8
(I-55
I107
tp372
sg10
(I-62
I107
tp373
ssg12
(dp374
(g8
I3
tp375
(I1137
I1116
tp376
s(g6
I8
tp377
(I1061
I1026
tp378
s(g6
I5
tp379
(I1048
I1014
tp380
s(g10
I6
tp381
(I1112
I1073
tp382
s(g10
I4
tp383
(I1074
I1043
tp384
s(g8
I7
tp385
(I1123
I1109
tp386
ssba(iSample
Sample
p387
(dp388
g3
F1440594399.434083
sg4
(dp389
g6
(I-62
I107
tp390
sg8
(I-54
I107
tp391
sg10
(I-61
I107
tp392
ssg12
(dp393
(g8
I3
tp394
(I1170
I1149
tp395
s(g6
I8
tp396
(I1097
I1061
tp397
s(g6
I5
tp398
(I1084
I1046
tp399
s(g10
I6
tp400
(I1145
I1105
tp401
s(g10
I4
tp402
(I1107
I1076
tp403
s(g8
I7
tp404
(I1156
I1142
tp405
ssba(iSample
Sample
p406
(dp407
g3
F1440594404.300903
sg4
(dp408
g6
(I-58
I106
tp409
sg8
(I-54
I106
tp410
sg10
(I-63
I107
tp411
ssg12
(dp412
(g8
I3
tp413
(I1205
I1183
tp414
s(g6
I8
tp415
(I1129
I1090
tp416
s(g6
I5
tp417
(I1116
I1078
tp418
s(g10
I6
tp419
(I1180
I1138
tp420
s(g10
I4
tp421
(I1142
I1111
tp422
s(g8
I7
tp423
(I1191
I1177
tp424
ssba(iSample
Sample
p425
(dp426
g3
F1440594408.644329
sg4
(dp427
g6
(I-64
I107
tp428
sg8
(I-59
I107
tp429
sg10
(I-66
I107
tp430
ssg12
(dp431
(g8
I3
tp432
(I1419
I1394
tp433
s(g6
I8
tp434
(I1343
I1299
tp435
s(g6
I5
tp436
(I1330
I1280
tp437
s(g10
I6
tp438
(I1394
I1343
tp439
s(g10
I4
tp440
(I1356
I1321
tp441
s(g8
I7
tp442
(I1405
I1390
tp443
ssba(iSample
Sample
p444
(dp445
g3
F1440594437.581992
sg4
(dp446
g6
(I-65
I107
tp447
sg8
(I-59
I107
tp448
sg10
(I-66
I107
tp449
ssg12
(dp450
(g8
I3
tp451
(I1451
I1426
tp452
s(g6
I8
tp453
(I1375
I1330
tp454
s(g6
I5
tp455
(I1362
I1311
tp456
s(g10
I6
tp457
(I1426
I1375
tp458
s(g10
I4
tp459
(I1388
I1352
tp460
s(g8
I7
tp461
(I1437
I1422
tp462
ssba(iSample
Sample
p463
(dp464
g3
F1440594441.851427
sg4
(dp465
g6
(I-65
I107
tp466
sg8
(I-52
I107
tp467
sg10
(I-64
I105
tp468
ssg12
(dp469
(g8
I3
tp470
(I1486
I1461
tp471
s(g6
I8
tp472
(I1617
I1567
tp473
s(g6
I5
tp474
(I1604
I1538
tp475
s(g10
I6
tp476
(I1461
I1408
tp477
s(g10
I4
tp478
(I1423
I1386
tp479
s(g8
I7
tp480
(I1472
I1457
tp481
ssba(iSample
Sample
p482
(dp483
g3
F1440594474.525889
sg4
(dp484
g6
(I-65
I107
tp485
sg8
(I-55
I107
tp486
sg10
(I-70
I107
tp487
ssg12
(dp488
(g8
I3
tp489
(I1725
I1699
tp490
s(g6
I8
tp491
(I1649
I1596
tp492
s(g6
I5
tp493
(I1636
I1567
tp494
s(g10
I6
tp495
(I1700
I1640
tp496
s(g10
I4
tp497
(I1662
I1619
tp498
s(g8
I7
tp499
(I1711
I1694
tp500
ssba(iSample
Sample
p501
(dp502
g3
F1440594478.833798
sg4
(dp503
g6
(I-61
I107
tp504
sg8
(I-55
I107
tp505
sg10
(I-71
I107
tp506
ssg12
(dp507
(g8
I3
tp508
(I1757
I1731
tp509
s(g6
I8
tp510
(I1683
I1629
tp511
s(g6
I5
tp512
(I1670
I1601
tp513
s(g10
I6
tp514
(I1732
I1671
tp515
s(g10
I4
tp516
(I1694
I1649
tp517
s(g8
I7
tp518
(I1743
I1726
tp519
ssba(iSample
Sample
p520
(dp521
g3
F1440594483.416923
sg4
(dp522
g6
(I-61
I107
tp523
sg8
(I-55
I107
tp524
sg10
(I-66
I107
tp525
ssg12
(dp526
(g8
I3
tp527
(I1791
I1764
tp528
s(g6
I8
tp529
(I1715
I1661
tp530
s(g6
I5
tp531
(I1702
I1631
tp532
s(g10
I6
tp533
(I1766
I1702
tp534
s(g10
I4
tp535
(I1728
I1683
tp536
s(g8
I7
tp537
(I1777
I1758
tp538
ssba(iSample
Sample
p539
(dp540
g3
F1440594487.766887
sg4
(dp541
g6
(I-62
I107
tp542
sg8
(I-55
I107
tp543
sg10
(I-66
I107
tp544
ssg12
(dp545
(g8
I3
tp546
(I1823
I1796
tp547
s(g6
I8
tp548
(I1747
I1692
tp549
s(g6
I5
tp550
(I1734
I1661
tp551
s(g10
I6
tp552
(I1798
I1734
tp553
s(g10
I4
tp554
(I1760
I1712
tp555
s(g8
I7
tp556
(I1809
I1790
tp557
ssba(iSample
Sample
p558
(dp559
g3
F1440594492.044599
sg4
(dp560
g6
(I-62
I107
tp561
sg8
(I-56
I107
tp562
sg10
(I-66
I107
tp563
ssg12
(dp564
(g8
I3
tp565
(I1855
I1827
tp566
s(g6
I8
tp567
(I1779
I1723
tp568
s(g6
I5
tp569
(I1766
I1692
tp570
s(g10
I6
tp571
(I1830
I1765
tp572
s(g10
I4
tp573
(I1792
I1741
tp574
s(g8
I7
tp575
(I1841
I1821
tp576
ssba(iSample
Sample
p577
(dp578
g3
F1440594496.370574
sg4
(dp579
g6
(I-60
I107
tp580
sg8
(I-55
I107
tp581
sg10
(I-65
I107
tp582
ssg12
(dp583
(g8
I3
tp584
(I1887
I1859
tp585
s(g6
I8
tp586
(I1813
I1757
tp587
s(g6
I5
tp588
(I1800
I1724
tp589
s(g10
I6
tp590
(I1862
I1797
tp591
s(g10
I4
tp592
(I1824
I1772
tp593
s(g8
I7
tp594
(I1873
I1852
tp595
ssba(iSample
Sample
p596
(dp597
g3
F1440594501.011103
sg4
(dp598
g6
(I-60
I107
tp599
sg8
(I-55
I107
tp600
sg10
(I-63
I107
tp601
ssg12
(dp602
(g8
I3
tp603
(I1921
I1893
tp604
s(g6
I8
tp605
(I1845
I1787
tp606
s(g6
I5
tp607
(I1832
I1754
tp608
s(g10
I6
tp609
(I1896
I1829
tp610
s(g10
I4
tp611
(I1858
I1806
tp612
s(g8
I7
tp613
(I1907
I1886
tp614
ssba(iSample
Sample
p615
(dp616
g3
F1440594505.279896
sg4
(dp617
g6
(I-60
I107
tp618
sg8
(I-55
I107
tp619
sg10
(I-62
I107
tp620
ssg12
(dp621
(g8
I3
tp622
(I1953
I1925
tp623
s(g6
I8
tp624
(I1877
I1818
tp625
s(g6
I5
tp626
(I1864
I1786
tp627
s(g10
I6
tp628
(I1928
I1858
tp629
s(g10
I4
tp630
(I1890
I1835
tp631
s(g8
I7
tp632
(I1939
I1918
tp633
ssba(iSample
Sample
p634
(dp635
g3
F1440594509.644798
sg4
(dp636
g6
(I-60
I107
tp637
sg8
(I-55
I107
tp638
sg10
(I-62
I107
tp639
ssg12
(dp640
(g8
I3
tp641
(I1985
I1957
tp642
s(g6
I8
tp643
(I1909
I1849
tp644
s(g6
I5
tp645
(I1896
I1816
tp646
s(g10
I6
tp647
(I1960
I1890
tp648
s(g10
I4
tp649
(I1922
I1864
tp650
s(g8
I7
tp651
(I1971
I1950
tp652
ssba(iSample
Sample
p653
(dp654
g3
F1440594513.929764
sg4
(dp655
g6
(I-60
I107
tp656
sg8
(I-55
I107
tp657
sg10
(I-62
I107
tp658
ssg12
(dp659
(g8
I3
tp660
(I2017
I1989
tp661
s(g6
I8
tp662
(I1941
I1880
tp663
s(g6
I5
tp664
(I1928
I1848
tp665
s(g10
I6
tp666
(I1992
I1920
tp667
s(g10
I4
tp668
(I1954
I1895
tp669
s(g8
I7
tp670
(I2003
I1982
tp671
ssba(iSample
Sample
p672
(dp673
g3
F1440594518.26058
sg4
(dp674
g6
(I-64
I107
tp675
sg8
(I-55
I107
tp676
sg10
(I-62
I107
tp677
ssg12
(dp678
(g8
I3
tp679
(I2049
I2021
tp680
s(g6
I8
tp681
(I1975
I1914
tp682
s(g6
I5
tp683
(I1962
I1881
tp684
s(g10
I6
tp685
(I2024
I1952
tp686
s(g10
I4
tp687
(I1986
I1923
tp688
s(g8
I7
tp689
(I2035
I2013
tp690
ssba(iSample
Sample
p691
(dp692
g3
F1440594522.845719
sg4
(dp693
g6
(I-64
I107
tp694
sg8
(I-53
I107
tp695
sg10
(I-64
I107
tp696
ssg12
(dp697
(g8
I3
tp698
(I2085
I2057
tp699
s(g6
I8
tp700
(I2010
I1947
tp701
s(g6
I5
tp702
(I1997
I1914
tp703
s(g10
I6
tp704
(I2060
I1988
tp705
s(g10
I4
tp706
(I2022
I1959
tp707
s(g8
I7
tp708
(I2071
I2049
tp709
ssba(iSample
Sample
p710
(dp711
g3
F1440594527.579612
sg4
(dp712
g6
(I-64
I107
tp713
sg8
(I-53
I106
tp714
sg10
(I-63
I107
tp715
ssg12
(dp716
(g8
I3
tp717
(I2118
I2090
tp718
s(g6
I8
tp719
(I2042
I1978
tp720
s(g6
I5
tp721
(I2029
I1945
tp722
s(g10
I6
tp723
(I2093
I2021
tp724
s(g10
I4
tp725
(I2055
I1991
tp726
s(g8
I7
tp727
(I2104
I2082
tp728
ssba(iSample
Sample
p729
(dp730
g3
F1440594531.907077
sg4
(dp731
g6
(I-65
I107
tp732
sg8
(I-55
I107
tp733
sg10
(I-60
I107
tp734
ssg12
(dp735
(g8
I3
tp736
(I2150
I2121
tp737
s(g6
I8
tp738
(I2074
I2009
tp739
s(g6
I5
tp740
(I2061
I1975
tp741
s(g10
I6
tp742
(I2125
I2049
tp743
s(g10
I4
tp744
(I2087
I2022
tp745
s(g8
I7
tp746
(I2136
I2113
tp747
ssba(iSample
Sample
p748
(dp749
g3
F1440594536.249587
sg4
(dp750
g6
(I-62
I107
tp751
sg8
(I-53
I107
tp752
sg10
(I-64
I107
tp753
ssg12
(dp754
(g8
I3
tp755
(I2182
I2153
tp756
s(g6
I8
tp757
(I2106
I2039
tp758
s(g6
I5
tp759
(I2093
I2005
tp760
s(g10
I6
tp761
(I2157
I2079
tp762
s(g10
I4
tp763
(I2119
I2053
tp764
s(g8
I7
tp765
(I2168
I2145
tp766
ssba(iSample
Sample
p767
(dp768
g3
F1440594540.524572
sg4
(dp769
g6
(I-62
I107
tp770
sg8
(I-54
I107
tp771
sg10
(I-61
I107
tp772
ssg12
(dp773
(g8
I3
tp774
(I2214
I2185
tp775
s(g6
I8
tp776
(I2138
I2071
tp777
s(g6
I5
tp778
(I2125
I2037
tp779
s(g10
I6
tp780
(I2189
I2110
tp781
s(g10
I4
tp782
(I2151
I2082
tp783
s(g8
I7
tp784
(I2200
I2176
tp785
ssba(iSample
Sample
p786
(dp787
g3
F1440594544.924701
sg4
(dp788
g6
(I-61
I107
tp789
sg8
(I-54
I107
tp790
sg10
(I-60
I107
tp791
ssg12
(dp792
(g8
I3
tp793
(I2246
I2217
tp794
s(g6
I8
tp795
(I2170
I2102
tp796
s(g6
I5
tp797
(I2157
I2069
tp798
s(g10
I6
tp799
(I2221
I2141
tp800
s(g10
I4
tp801
(I2183
I2112
tp802
s(g8
I7
tp803
(I2232
I2207
tp804
ssba(iSample
Sample
p805
(dp806
g3
F1440594549.231781
sg4
(dp807
g6
(I-61
I107
tp808
sg8
(I-56
I107
tp809
sg10
(I-64
I107
tp810
ssg12
(dp811
(g8
I3
tp812
(I2281
I2251
tp813
s(g6
I8
tp814
(I2205
I2135
tp815
s(g6
I5
tp816
(I2192
I2104
tp817
s(g10
I6
tp818
(I2256
I2175
tp819
s(g10
I4
tp820
(I2218
I2145
tp821
s(g8
I7
tp822
(I2267
I2242
tp823
ssba(iSample
Sample
p824
(dp825
g3
F1440594553.951372
sg4
(dp826
g6
(I-61
I107
tp827
sg8
(I-55
I107
tp828
sg10
(I-64
I107
tp829
ssg12
(dp830
(g8
I3
tp831
(I2313
I2282
tp832
s(g6
I8
tp833
(I2239
I2169
tp834
s(g6
I5
tp835
(I2226
I2137
tp836
s(g10
I6
tp837
(I2290
I2207
tp838
s(g10
I4
tp839
(I2252
I2175
tp840
s(g8
I7
tp841
(I2299
I2274
tp842
ssba(iSample
Sample
p843
(dp844
g3
F1440594558.533836
sg4
(dp845
g6
(I-62
I107
tp846
sg8
(I-58
I107
tp847
sg10
(I-65
I107
tp848
ssg12
(dp849
(g8
I3
tp850
(I2347
I2316
tp851
s(g6
I8
tp852
(I2271
I2201
tp853
s(g6
I5
tp854
(I2258
I2168
tp855
s(g10
I6
tp856
(I2322
I2238
tp857
s(g10
I4
tp858
(I2284
I2206
tp859
s(g8
I7
tp860
(I2333
I2307
tp861
ssba(iSample
Sample
p862
(dp863
g3
F1440594562.852712
sg4
(dp864
g6
(I-60
I107
tp865
sg8
(I-57
I107
tp866
sg10
(I-64
I107
tp867
ssg12
(dp868
(g8
I3
tp869
(I2379
I2348
tp870
s(g6
I8
tp871
(I2303
I2231
tp872
s(g6
I5
tp873
(I2290
I2199
tp874
s(g10
I6
tp875
(I2354
I2269
tp876
s(g10
I4
tp877
(I2316
I2235
tp878
s(g8
I7
tp879
(I2365
I2339
tp880
ssba(iSample
Sample
p881
(dp882
g3
F1440594567.139819
sg4
(dp883
g6
(I-61
I103
tp884
sg8
(I-58
I107
tp885
sg10
(I-64
I107
tp886
ssg12
(dp887
(g8
I3
tp888
(I2411
I2380
tp889
s(g6
I8
tp890
(I2335
I2263
tp891
s(g6
I5
tp892
(I2322
I2231
tp893
s(g10
I6
tp894
(I2386
I2301
tp895
s(g10
I4
tp896
(I2348
I2266
tp897
s(g8
I7
tp898
(I2397
I2370
tp899
ssba(iSample
Sample
p900
(dp901
g3
F1440594571.491827
sg4
(dp902
g6
(I-60
I107
tp903
sg8
(I-57
I107
tp904
sg10
(I-67
I107
tp905
ssg12
(dp906
(g8
I3
tp907
(I2443
I2412
tp908
s(g6
I8
tp909
(I2367
I2295
tp910
s(g6
I5
tp911
(I2354
I2263
tp912
s(g10
I6
tp913
(I2418
I2332
tp914
s(g10
I4
tp915
(I2380
I2297
tp916
s(g8
I7
tp917
(I2429
I2402
tp918
ssba(iSample
Sample
p919
(dp920
g3
F1440594575.817976
sg4
(dp921
g6
(I-60
I107
tp922
sg8
(I-60
I107
tp923
sg10
(I-64
I107
tp924
ssg12
(dp925
(g8
I3
tp926
(I2475
I2443
tp927
s(g6
I8
tp928
(I2399
I2326
tp929
s(g6
I5
tp930
(I2386
I2293
tp931
s(g10
I6
tp932
(I2450
I2362
tp933
s(g10
I4
tp934
(I2412
I2327
tp935
s(g8
I7
tp936
(I2461
I2434
tp937
ssba(iSample
Sample
p938
(dp939
g3
F1440594580.104552
sg4
(dp940
g6
(I-61
I107
tp941
sg8
(I-60
I107
tp942
sg10
(I-65
I107
tp943
ssg12
(dp944
(g8
I3
tp945
(I2507
I2474
tp946
s(g6
I8
tp947
(I2431
I2358
tp948
s(g6
I5
tp949
(I2418
I2325
tp950
s(g10
I6
tp951
(I2482
I2392
tp952
s(g10
I4
tp953
(I2444
I2356
tp954
s(g8
I7
tp955
(I2493
I2465
tp956
ssba(iSample
Sample
p957
(dp958
g3
F1440594584.446272
sg4
(dp959
g6
(I-62
I107
tp960
sg8
(I-61
I107
tp961
sg10
(I-65
I107
tp962
ssg12
(dp963
(g8
I3
tp964
(I2539
I2505
tp965
s(g6
I8
tp966
(I2464
I2391
tp967
s(g6
I5
tp968
(I2451
I2357
tp969
s(g10
I6
tp970
(I2514
I2421
tp971
s(g10
I4
tp972
(I2476
I2386
tp973
s(g8
I7
tp974
(I2525
I2497
tp975
ssba(iSample
Sample
p976
(dp977
g3
F1440594588.895556
sg4
(dp978
g6
(I-67
I107
tp979
sg8
(I-55
I106
tp980
sg10
(I-73
I107
tp981
ssg12
(dp982
(g8
I3
tp983
(I2572
I2537
tp984
s(g6
I8
tp985
(I2497
I2424
tp986
s(g6
I5
tp987
(I2484
I2390
tp988
s(g10
I6
tp989
(I2548
I2453
tp990
s(g10
I4
tp991
(I2510
I2418
tp992
s(g8
I7
tp993
(I2558
I2529
tp994
ssba(iSample
Sample
p995
(dp996
g3
F1440594593.38042
sg4
(dp997
g6
(I-63
I107
tp998
sg8
(I-54
I107
tp999
sg10
(I-70
I107
tp1000
ssg12
(dp1001
(g8
I3
tp1002
(I2605
I2570
tp1003
s(g6
I8
tp1004
(I2530
I2457
tp1005
s(g6
I5
tp1006
(I2517
I2423
tp1007
s(g10
I6
tp1008
(I2581
I2482
tp1009
s(g10
I4
tp1010
(I2543
I2447
tp1011
s(g8
I7
tp1012
(I2591
I2562
tp1013
ssba(iSample
Sample
p1014
(dp1015
g3
F1440594597.874305
sg4
(dp1016
g6
(I-62
I107
tp1017
sg8
(I-55
I107
tp1018
sg10
(I-63
I107
tp1019
ssg12
(dp1020
(g8
I3
tp1021
(I2638
I2602
tp1022
s(g6
I8
tp1023
(I2565
I2492
tp1024
s(g6
I5
tp1025
(I2552
I2458
tp1026
s(g10
I6
tp1027
(I2616
I2514
tp1028
s(g10
I4
tp1029
(I2578
I2480
tp1030
s(g8
I7
tp1031
(I2624
I2595
tp1032
ssba(iSample
Sample
p1033
(dp1034
g3
F1440594602.554023
sg4
(dp1035
g6
(I-62
I107
tp1036
sg8
(I-53
I107
tp1037
sg10
(I-62
I107
tp1038
ssg12
(dp1039
(g8
I3
tp1040
(I2673
I2637
tp1041
s(g6
I8
tp1042
(I2597
I2520
tp1043
s(g6
I5
tp1044
(I2584
I2489
tp1045
s(g10
I6
tp1046
(I2648
I2544
tp1047
s(g10
I4
tp1048
(I2610
I2510
tp1049
s(g8
I7
tp1050
(I2659
I2630
tp1051
ssba(iSample
Sample
p1052
(dp1053
g3
F1440594606.898552
sg4
(dp1054
g6
(I-62
I107
tp1055
sg8
(I-54
I107
tp1056
sg10
(I-63
I107
tp1057
ssg12
(dp1058
(g8
I3
tp1059
(I2705
I2669
tp1060
s(g6
I8
tp1061
(I2629
I2550
tp1062
s(g6
I5
tp1063
(I2616
I2521
tp1064
s(g10
I6
tp1065
(I2680
I2574
tp1066
s(g10
I4
tp1067
(I2642
I2540
tp1068
s(g8
I7
tp1069
(I2691
I2661
tp1070
ssba(iSample
Sample
p1071
(dp1072
g3
F1440594611.185103
sg4
(dp1073
g6
(I-62
I107
tp1074
sg8
(I-54
I107
tp1075
sg10
(I-63
I107
tp1076
ssg12
(dp1077
(g8
I3
tp1078
(I2737
I2701
tp1079
s(g6
I8
tp1080
(I2661
I2582
tp1081
s(g6
I5
tp1082
(I2648
I2553
tp1083
s(g10
I6
tp1084
(I2712
I2605
tp1085
s(g10
I4
tp1086
(I2674
I2570
tp1087
s(g8
I7
tp1088
(I2723
I2693
tp1089
ssba(iSample
Sample
p1090
(dp1091
g3
F1440594615.527468
sg4
(dp1092
g6
(I-62
I107
tp1093
sg8
(I-53
I107
tp1094
sg10
(I-63
I107
tp1095
ssg12
(dp1096
(g8
I3
tp1097
(I2769
I2733
tp1098
s(g6
I8
tp1099
(I2693
I2614
tp1100
s(g6
I5
tp1101
(I2680
I2585
tp1102
s(g10
I6
tp1103
(I2744
I2635
tp1104
s(g10
I4
tp1105
(I2706
I2601
tp1106
s(g8
I7
tp1107
(I2755
I2725
tp1108
ssba(iSample
Sample
p1109
(dp1110
g3
F1440594619.82269
sg4
(dp1111
g6
(I-61
I107
tp1112
sg8
(I-54
I107
tp1113
sg10
(I-64
I107
tp1114
ssg12
(dp1115
(g8
I3
tp1116
(I2802
I2766
tp1117
s(g6
I8
tp1118
(I2736
I2657
tp1119
s(g6
I5
tp1120
(I2723
I2627
tp1121
s(g10
I6
tp1122
(I2787
I2677
tp1123
s(g10
I4
tp1124
(I2749
I2640
tp1125
s(g8
I7
tp1126
(I2788
I2758
tp1127
ssba(iSample
Sample
p1128
(dp1129
g3
F1440594625.727043
sg4
(dp1130
g6
(I-66
I107
tp1131
sg8
(I-55
I107
tp1132
sg10
(I-70
I107
tp1133
ssg12
(dp1134
(g8
I3
tp1135
(I2844
I2808
tp1136
s(g6
I8
tp1137
(I2769
I2690
tp1138
s(g6
I5
tp1139
(I2756
I2659
tp1140
s(g10
I6
tp1141
(I2820
I2707
tp1142
s(g10
I4
tp1143
(I2782
I2670
tp1144
s(g8
I7
tp1145
(I2830
I2799
tp1146
ssba(iSample
Sample
p1147
(dp1148
g3
F1440594630.182907
sg4
(dp1149
g6
(I-64
I107
tp1150
sg8
(I-54
I107
tp1151
sg10
(I-65
I107
tp1152
ssg12
(dp1153
(g8
I3
tp1154
(I2877
I2841
tp1155
s(g6
I8
tp1156
(I2801
I2721
tp1157
s(g6
I5
tp1158
(I2788
I2691
tp1159
s(g10
I6
tp1160
(I2852
I2735
tp1161
s(g10
I4
tp1162
(I2814
I2699
tp1163
s(g8
I7
tp1164
(I2863
I2831
tp1165
ssba(iSample
Sample
p1166
(dp1167
g3
F1440594634.428153
sg4
(dp1168
g6
(I-63
I107
tp1169
sg8
(I-56
I107
tp1170
sg10
(I-66
I107
tp1171
ssg12
(dp1172
(g8
I3
tp1173
(I2909
I2873
tp1174
s(g6
I8
tp1175
(I2833
I2752
tp1176
s(g6
I5
tp1177
(I2820
I2720
tp1178
s(g10
I6
tp1179
(I2884
I2766
tp1180
s(g10
I4
tp1181
(I2846
I2730
tp1182
s(g8
I7
tp1183
(I2895
I2861
tp1184
ssba(iSample
Sample
p1185
(dp1186
g3
F1440594638.776793
sg4
(dp1187
g6
(I-63
I107
tp1188
sg8
(I-59
I107
tp1189
sg10
(I-64
I107
tp1190
ssg12
(dp1191
(g8
I3
tp1192
(I2943
I2905
tp1193
s(g6
I8
tp1194
(I2867
I2784
tp1195
s(g6
I5
tp1196
(I2854
I2754
tp1197
s(g10
I6
tp1198
(I2918
I2798
tp1199
s(g10
I4
tp1200
(I2880
I2762
tp1201
s(g8
I7
tp1202
(I2929
I2895
tp1203
ssba(iSample
Sample
p1204
(dp1205
g3
F1440594643.323438
sg4
(dp1206
g6
(I-63
I107
tp1207
sg8
(I-59
I107
tp1208
sg10
(I-64
I106
tp1209
ssg12
(dp1210
(g8
I3
tp1211
(I2975
I2937
tp1212
s(g6
I8
tp1213
(I2899
I2816
tp1214
s(g6
I5
tp1215
(I2886
I2786
tp1216
s(g10
I6
tp1217
(I2950
I2828
tp1218
s(g10
I4
tp1219
(I2912
I2793
tp1220
s(g8
I7
tp1221
(I2961
I2925
tp1222
ssba(iSample
Sample
p1223
(dp1224
g3
F1440594647.673029
sg4
(dp1225
g6
(I-62
I107
tp1226
sg8
(I-59
I107
tp1227
sg10
(I-64
I107
tp1228
ssg12
(dp1229
(g8
I3
tp1230
(I3007
I2968
tp1231
s(g6
I8
tp1232
(I2931
I2847
tp1233
s(g6
I5
tp1234
(I2918
I2818
tp1235
s(g10
I6
tp1236
(I2982
I2858
tp1237
s(g10
I4
tp1238
(I2944
I2822
tp1239
s(g8
I7
tp1240
(I2993
I2957
tp1241
ssba(iSample
Sample
p1242
(dp1243
g3
F1440594651.985543
sg4
(dp1244
g6
(I-63
I107
tp1245
sg8
(I-59
I107
tp1246
sg10
(I-64
I107
tp1247
ssg12
(dp1248
(g8
I3
tp1249
(I3039
I2999
tp1250
s(g6
I8
tp1251
(I2963
I2877
tp1252
s(g6
I5
tp1253
(I2950
I2848
tp1254
s(g10
I6
tp1255
(I3014
I2889
tp1256
s(g10
I4
tp1257
(I2976
I2853
tp1258
s(g8
I7
tp1259
(I3025
I2988
tp1260
ssba(iSample
Sample
p1261
(dp1262
g3
F1440594656.304143
sg4
(dp1263
g6
(I-63
I107
tp1264
sg8
(I-59
I107
tp1265
sg10
(I-64
I107
tp1266
ssg12
(dp1267
(g8
I3
tp1268
(I3071
I3030
tp1269
s(g6
I8
tp1270
(I2995
I2908
tp1271
s(g6
I5
tp1272
(I2982
I2880
tp1273
s(g10
I6
tp1274
(I3046
I2918
tp1275
s(g10
I4
tp1276
(I3008
I2883
tp1277
s(g8
I7
tp1278
(I3057
I3020
tp1279
ssba(iSample
Sample
p1280
(dp1281
g3
F1440594660.645953
sg4
(dp1282
g6
(I-62
I106
tp1283
sg8
(I-64
I107
tp1284
sg10
(I-59
I107
tp1285
ssg12
(dp1286
(g8
I3
tp1287
(I3104
I3063
tp1288
s(g6
I8
tp1289
(I3029
I2940
tp1290
s(g6
I5
tp1291
(I3016
I2912
tp1292
s(g10
I6
tp1293
(I3079
I2949
tp1294
s(g10
I4
tp1295
(I3041
I2914
tp1296
s(g8
I7
tp1297
(I3090
I3051
tp1298
ssba(iSample
Sample
p1299
(dp1300
g3
F1440594665.285652
sg4
(dp1301
g6
(I-59
I107
tp1302
sg8
(I-62
I107
tp1303
sg10
(I-64
I107
tp1304
ssg12
(dp1305
(g8
I3
tp1306
(I3137
I3095
tp1307
s(g6
I8
tp1308
(I3061
I2972
tp1309
s(g6
I5
tp1310
(I3048
I2939
tp1311
s(g10
I6
tp1312
(I3112
I2981
tp1313
s(g10
I4
tp1314
(I3074
I2947
tp1315
s(g8
I7
tp1316
(I3123
I3083
tp1317
ssba(iSample
Sample
p1318
(dp1319
g3
F1440594669.537337
sg4
(dp1320
g6
(I-59
I107
tp1321
sg8
(I-62
I107
tp1322
sg10
(I-64
I107
tp1323
ssg12
(dp1324
(g8
I3
tp1325
(I3169
I3126
tp1326
s(g6
I8
tp1327
(I3093
I3004
tp1328
s(g6
I5
tp1329
(I3080
I2970
tp1330
s(g10
I6
tp1331
(I3144
I3012
tp1332
s(g10
I4
tp1333
(I3106
I2979
tp1334
s(g8
I7
tp1335
(I3155
I3115
tp1336
ssba(iSample
Sample
p1337
(dp1338
g3
F1440594673.93605
sg4
(dp1339
g6
(I-59
I107
tp1340
sg8
(I-62
I107
tp1341
sg10
(I-64
I107
tp1342
ssg12
(dp1343
(g8
I3
tp1344
(I3201
I3157
tp1345
s(g6
I8
tp1346
(I3125
I3036
tp1347
s(g6
I5
tp1348
(I3112
I3002
tp1349
s(g10
I6
tp1350
(I3176
I3043
tp1351
s(g10
I4
tp1352
(I3138
I3011
tp1353
s(g8
I7
tp1354
(I3187
I3145
tp1355
ssba(iSample
Sample
p1356
(dp1357
g3
F1440594678.205841
sg4
(dp1358
g6
(I-60
I107
tp1359
sg8
(I-61
I107
tp1360
sg10
(I-63
I107
tp1361
ssg12
(dp1362
(g8
I3
tp1363
(I3233
I3189
tp1364
s(g6
I8
tp1365
(I3157
I3068
tp1366
s(g6
I5
tp1367
(I3144
I3034
tp1368
s(g10
I6
tp1369
(I3208
I3075
tp1370
s(g10
I4
tp1371
(I3170
I3043
tp1372
s(g8
I7
tp1373
(I3219
I3176
tp1374
ssba(iSample
Sample
p1375
(dp1376
g3
F1440594682.515556
sg4
(dp1377
g6
(I-59
I107
tp1378
sg8
(I-62
I107
tp1379
sg10
(I-64
I107
tp1380
ssg12
(dp1381
(g8
I3
tp1382
(I3265
I3221
tp1383
s(g6
I8
tp1384
(I3189
I3099
tp1385
s(g6
I5
tp1386
(I3176
I3065
tp1387
s(g10
I6
tp1388
(I3240
I3107
tp1389
s(g10
I4
tp1390
(I3202
I3074
tp1391
s(g8
I7
tp1392
(I3251
I3205
tp1393
ssba(iSample
Sample
p1394
(dp1395
g3
F1440594686.82778
sg4
(dp1396
g6
(I-61
I107
tp1397
sg8
(I-62
I107
tp1398
sg10
(I-64
I107
tp1399
ssg12
(dp1400
(g8
I3
tp1401
(I3297
I3253
tp1402
s(g6
I8
tp1403
(I3224
I3134
tp1404
s(g6
I5
tp1405
(I3211
I3099
tp1406
s(g10
I6
tp1407
(I3272
I3139
tp1408
s(g10
I4
tp1409
(I3234
I3105
tp1410
s(g8
I7
tp1411
(I3283
I3236
tp1412
ssba(iSample
Sample
p1413
(dp1414
g3
F1440594691.578717
sg4
(dp1415
g6
(I-61
I107
tp1416
sg8
(I-61
I107
tp1417
sg10
(I-63
I107
tp1418
ssg12
(dp1419
(g8
I3
tp1420
(I3332
I3287
tp1421
s(g6
I8
tp1422
(I3256
I3166
tp1423
s(g6
I5
tp1424
(I3243
I3129
tp1425
s(g10
I6
tp1426
(I3307
I3174
tp1427
s(g10
I4
tp1428
(I3269
I3140
tp1429
s(g8
I7
tp1430
(I3318
I3271
tp1431
ssba(iSample
Sample
p1432
(dp1433
g3
F1440594695.874677
sg4
(dp1434
g6
(I-62
I107
tp1435
sg8
(I-61
I107
tp1436
sg10
(I-61
I107
tp1437
ssg12
(dp1438
(g8
I3
tp1439
(I3364
I3318
tp1440
s(g6
I8
tp1441
(I3289
I3199
tp1442
s(g6
I5
tp1443
(I3276
I3161
tp1444
s(g10
I6
tp1445
(I3340
I3207
tp1446
s(g10
I4
tp1447
(I3302
I3173
tp1448
s(g8
I7
tp1449
(I3350
I3303
tp1450
ssba(iSample
Sample
p1451
(dp1452
g3
F1440594700.330299
sg4
(dp1453
g6
(I-61
I107
tp1454
sg8
(I-59
I107
tp1455
sg10
(I-61
I107
tp1456
ssg12
(dp1457
(g8
I3
tp1458
(I3397
I3351
tp1459
s(g6
I8
tp1460
(I3321
I3231
tp1461
s(g6
I5
tp1462
(I3308
I3193
tp1463
s(g10
I6
tp1464
(I3372
I3239
tp1465
s(g10
I4
tp1466
(I3334
I3205
tp1467
s(g8
I7
tp1468
(I3383
I3336
tp1469
ssba(iSample
Sample
p1470
(dp1471
g3
F1440594704.681108
sg4
(dp1472
g6
(I-62
I107
tp1473
sg8
(I-60
I107
tp1474
sg10
(I-60
I107
tp1475
ssg12
(dp1476
(g8
I3
tp1477
(I3429
I3383
tp1478
s(g6
I8
tp1479
(I3353
I3263
tp1480
s(g6
I5
tp1481
(I3340
I3225
tp1482
s(g10
I6
tp1483
(I3404
I3271
tp1484
s(g10
I4
tp1485
(I3366
I3237
tp1486
s(g8
I7
tp1487
(I3415
I3368
tp1488
ssba(iSample
Sample
p1489
(dp1490
g3
F1440594709.034537
sg4
(dp1491
g6
(I-57
I107
tp1492
sg8
(I-60
I107
tp1493
sg10
(I-61
I107
tp1494
ssg12
(dp1495
(g8
I3
tp1496
(I3461
I3414
tp1497
s(g6
I8
tp1498
(I3387
I3297
tp1499
s(g6
I5
tp1500
(I3374
I3259
tp1501
s(g10
I6
tp1502
(I3436
I3302
tp1503
s(g10
I4
tp1504
(I3398
I3269
tp1505
s(g8
I7
tp1506
(I3447
I3398
tp1507
ssba(iSample
Sample
p1508
(dp1509
g3
F1440594713.569017
sg4
(dp1510
g6
(I-58
I107
tp1511
sg8
(I-61
I107
tp1512
sg10
(I-67
I107
tp1513
ssg12
(dp1514
(g8
I3
tp1515
(I3495
I3448
tp1516
s(g6
I8
tp1517
(I3419
I3329
tp1518
s(g6
I5
tp1519
(I3406
I3291
tp1520
s(g10
I6
tp1521
(I3470
I3336
tp1522
s(g10
I4
tp1523
(I3432
I3303
tp1524
s(g8
I7
tp1525
(I3481
I3432
tp1526
ssba(iSample
Sample
p1527
(dp1528
g3
F1440594717.945836
sg4
(dp1529
g6
(I-65
I107
tp1530
sg8
(I-60
I107
tp1531
sg10
(I-63
I107
tp1532
ssg12
(dp1533
(g8
I3
tp1534
(I3533
I3485
tp1535
s(g6
I8
tp1536
(I3457
I3367
tp1537
s(g6
I5
tp1538
(I3444
I3329
tp1539
s(g10
I6
tp1540
(I3508
I3374
tp1541
s(g10
I4
tp1542
(I3470
I3341
tp1543
s(g8
I7
tp1544
(I3519
I3469
tp1545
ssba(iSample
Sample
p1546
(dp1547
g3
F1440594723.02804
sg4
(dp1548
g6
(I-66
I107
tp1549
sg8
(I-60
I107
tp1550
sg10
(I-63
I107
tp1551
ssg12
(dp1552
(g8
I3
tp1553
(I3565
I3517
tp1554
s(g6
I8
tp1555
(I3489
I3399
tp1556
s(g6
I5
tp1557
(I3476
I3359
tp1558
s(g10
I6
tp1559
(I3540
I3406
tp1560
s(g10
I4
tp1561
(I3502
I3373
tp1562
s(g8
I7
tp1563
(I3551
I3500
tp1564
ssba(iSample
Sample
p1565
(dp1566
g3
F1440594727.332539
sg4
(dp1567
g6
(I-61
I107
tp1568
sg8
(I-62
I107
tp1569
sg10
(I-62
I107
tp1570
ssg12
(dp1571
(g8
I3
tp1572
(I3599
I3549
tp1573
s(g6
I8
tp1574
(I3523
I3433
tp1575
s(g6
I5
tp1576
(I3510
I3393
tp1577
s(g10
I6
tp1578
(I3574
I3437
tp1579
s(g10
I4
tp1580
(I3536
I3407
tp1581
s(g8
I7
tp1582
(I3585
I3534
tp1583
ssba(iSample
Sample
p1584
(dp1585
g3
F1440594731.905676
sg4
(dp1586
g6
(I-59
I107
tp1587
sg8
(I-59
I107
tp1588
sg10
(I-59
I106
tp1589
ssg12
(dp1590
(g8
I3
tp1591
(I3632
I3580
tp1592
s(g6
I8
tp1593
(I3558
I3468
tp1594
s(g6
I5
tp1595
(I3545
I3428
tp1596
s(g10
I6
tp1597
(I3607
I3470
tp1598
s(g10
I4
tp1599
(I3569
I3440
tp1600
s(g8
I7
tp1601
(I3618
I3567
tp1602
ssba(iSample
Sample
p1603
(dp1604
g3
F1440594736.637762
sg4
(dp1605
g6
(I-59
I107
tp1606
sg8
(I-59
I107
tp1607
sg10
(I-61
I107
tp1608
ssg12
(dp1609
(g8
I3
tp1610
(I3666
I3614
tp1611
s(g6
I8
tp1612
(I3590
I3500
tp1613
s(g6
I5
tp1614
(I3577
I3459
tp1615
s(g10
I6
tp1616
(I3641
I3503
tp1617
s(g10
I4
tp1618
(I3603
I3474
tp1619
s(g8
I7
tp1620
(I3652
I3601
tp1621
ssba(iSample
Sample
p1622
(dp1623
g3
F1440594740.972064
sg4
(dp1624
g6
(I-59
I107
tp1625
sg8
(I-59
I107
tp1626
sg10
(I-62
I107
tp1627
ssg12
(dp1628
(g8
I3
tp1629
(I3699
I3647
tp1630
s(g6
I8
tp1631
(I3623
I3533
tp1632
s(g6
I5
tp1633
(I3610
I3492
tp1634
s(g10
I6
tp1635
(I3674
I3535
tp1636
s(g10
I4
tp1637
(I3636
I3507
tp1638
s(g8
I7
tp1639
(I3685
I3633
tp1640
ssba(iSample
Sample
p1641
(dp1642
g3
F1440594745.399033
sg4
(dp1643
g6
(I-59
I107
tp1644
sg8
(I-59
I107
tp1645
sg10
(I-62
I107
tp1646
ssg12
(dp1647
(g8
I3
tp1648
(I3731
I3678
tp1649
s(g6
I8
tp1650
(I3655
I3565
tp1651
s(g6
I5
tp1652
(I3642
I3524
tp1653
s(g10
I6
tp1654
(I3706
I3567
tp1655
s(g10
I4
tp1656
(I3668
I3538
tp1657
s(g8
I7
tp1658
(I3717
I3665
tp1659
ssba(iSample
Sample
p1660
(dp1661
g3
F1440594749.726843
sg4
(dp1662
g6
(I-59
I107
tp1663
sg8
(I-60
I107
tp1664
sg10
(I-61
I106
tp1665
ssg12
(dp1666
(g8
I3
tp1667
(I3763
I3710
tp1668
s(g6
I8
tp1669
(I3687
I3596
tp1670
s(g6
I5
tp1671
(I3674
I3556
tp1672
s(g10
I6
tp1673
(I3738
I3599
tp1674
s(g10
I4
tp1675
(I3700
I3569
tp1676
s(g8
I7
tp1677
(I3749
I3696
tp1678
ssba(iSample
Sample
p1679
(dp1680
g3
F1440594754.051004
sg4
(dp1681
g6
(I-59
I107
tp1682
sg8
(I-59
I107
tp1683
sg10
(I-61
I107
tp1684
ssg12
(dp1685
(g8
I3
tp1686
(I3795
I3742
tp1687
s(g6
I8
tp1688
(I3719
I3628
tp1689
s(g6
I5
tp1690
(I3706
I3588
tp1691
s(g10
I6
tp1692
(I3770
I3631
tp1693
s(g10
I4
tp1694
(I3732
I3601
tp1695
s(g8
I7
tp1696
(I3781
I3728
tp1697
ssba(iSample
Sample
p1698
(dp1699
g3
F1440594758.449824
sg4
(dp1700
g6
(I-60
I107
tp1701
sg8
(I-61
I107
tp1702
sg10
(I-60
I107
tp1703
ssg12
(dp1704
(g8
I3
tp1705
(I3828
I3775
tp1706
s(g6
I8
tp1707
(I3754
I3663
tp1708
s(g6
I5
tp1709
(I3741
I3622
tp1710
s(g10
I6
tp1711
(I3805
I3666
tp1712
s(g10
I4
tp1713
(I3767
I3635
tp1714
s(g8
I7
tp1715
(I3814
I3761
tp1716
ssba.