(lp0
(iSample
Sample
p1
(dp2
S'timeStamp'
p3
F1440430152.034949
sS'moteData'
p4
(dp5
(S'8031'
p6
I5
tp7
(I27397
I26012
tp8
s(S'8054'
p9
I7
tp10
(I27357
I26790
tp11
s(g9
I4
tp12
(I27368
I26826
tp13
s(S'85d2'
p14
I6
tp15
(I27321
I26824
tp16
s(g14
I8
tp17
(I27259
I26761
tp18
s(g6
I2
tp19
(I27382
I26012
tp20
ssba(iSample
Sample
p21
(dp22
g3
F1440430155.276726
sg4
(dp23
(g6
I5
tp24
(I27421
I26035
tp25
s(g9
I7
tp26
(I27381
I26814
tp27
s(g9
I4
tp28
(I27392
I26850
tp29
s(g14
I6
tp30
(I27345
I26848
tp31
s(g14
I8
tp32
(I27283
I26785
tp33
s(g6
I2
tp34
(I27406
I26036
tp35
ssba(iSample
Sample
p36
(dp37
g3
F1440430158.442605
sg4
(dp38
(g6
I5
tp39
(I27444
I26058
tp40
s(g9
I7
tp41
(I27404
I26837
tp42
s(g9
I4
tp43
(I27415
I26873
tp44
s(g14
I6
tp45
(I27368
I26870
tp46
s(g14
I8
tp47
(I27306
I26808
tp48
s(g6
I2
tp49
(I27429
I26058
tp50
ssba(iSample
Sample
p51
(dp52
g3
F1440430161.505379
sg4
(dp53
(g6
I5
tp54
(I27467
I26080
tp55
s(g9
I7
tp56
(I27427
I26860
tp57
s(g9
I4
tp58
(I27438
I26896
tp59
s(g14
I6
tp60
(I27393
I26895
tp61
s(g14
I8
tp62
(I27331
I26833
tp63
s(g6
I2
tp64
(I27452
I26079
tp65
ssba(iSample
Sample
p66
(dp67
g3
F1440430164.90358
sg4
(dp68
(g6
I5
tp69
(I27492
I26105
tp70
s(g9
I7
tp71
(I27452
I26885
tp72
s(g9
I4
tp73
(I27463
I26921
tp74
s(g14
I6
tp75
(I27416
I26918
tp76
s(g14
I8
tp77
(I27354
I26856
tp78
s(g6
I2
tp79
(I27477
I26103
tp80
ssba(iSample
Sample
p81
(dp82
g3
F1440430168.068167
sg4
(dp83
(g6
I5
tp84
(I27516
I26128
tp85
s(g9
I7
tp86
(I27476
I26909
tp87
s(g9
I4
tp88
(I27487
I26945
tp89
s(g14
I6
tp90
(I27440
I26942
tp91
s(g14
I8
tp92
(I27378
I26880
tp93
s(g6
I2
tp94
(I27501
I26126
tp95
ssba(iSample
Sample
p96
(dp97
g3
F1440430171.280977
sg4
(dp98
(g6
I5
tp99
(I27540
I26151
tp100
s(g9
I7
tp101
(I27500
I26933
tp102
s(g9
I4
tp103
(I27511
I26969
tp104
s(g14
I6
tp105
(I27464
I26966
tp106
s(g14
I8
tp107
(I27402
I26904
tp108
s(g6
I2
tp109
(I27525
I26148
tp110
ssba(iSample
Sample
p111
(dp112
g3
F1440430174.515429
sg4
(dp113
(g6
I5
tp114
(I27563
I26174
tp115
s(g9
I7
tp116
(I27523
I26956
tp117
s(g9
I4
tp118
(I27534
I26992
tp119
s(g14
I6
tp120
(I27487
I26989
tp121
s(g14
I8
tp122
(I27425
I26927
tp123
s(g6
I2
tp124
(I27548
I26169
tp125
ssba(iSample
Sample
p126
(dp127
g3
F1440430177.571188
sg4
(dp128
(g6
I5
tp129
(I27586
I26196
tp130
s(g9
I7
tp131
(I27546
I26979
tp132
s(g9
I4
tp133
(I27557
I27015
tp134
s(g14
I6
tp135
(I27510
I27012
tp136
s(g14
I8
tp137
(I27448
I26950
tp138
s(g6
I2
tp139
(I27571
I26191
tp140
ssba(iSample
Sample
p141
(dp142
g3
F1440430180.698632
sg4
(dp143
(g6
I5
tp144
(I27609
I26219
tp145
s(g9
I7
tp146
(I27569
I27001
tp147
s(g9
I4
tp148
(I27580
I27038
tp149
s(g14
I6
tp150
(I27706
I27206
tp151
s(g14
I8
tp152
(I27644
I27145
tp153
s(g6
I2
tp154
(I27594
I26214
tp155
ssba(iSample
Sample
p156
(dp157
g3
F1440430207.172919
sg4
(dp158
(g6
I5
tp159
(I27805
I26409
tp160
s(g9
I7
tp161
(I27765
I27197
tp162
s(g9
I4
tp163
(I27776
I27234
tp164
s(g14
I6
tp165
(I27729
I27229
tp166
s(g14
I8
tp167
(I27667
I27168
tp168
s(g6
I2
tp169
(I27790
I26407
tp170
ssba(iSample
Sample
p171
(dp172
g3
F1440430210.284889
sg4
(dp173
(g6
I5
tp174
(I27828
I26432
tp175
s(g9
I7
tp176
(I27788
I27220
tp177
s(g9
I4
tp178
(I27799
I27257
tp179
s(g14
I6
tp180
(I27752
I27252
tp181
s(g14
I8
tp182
(I27690
I27191
tp183
s(g6
I2
tp184
(I27813
I26430
tp185
ssba(iSample
Sample
p186
(dp187
g3
F1440430213.393924
sg4
(dp188
(g6
I5
tp189
(I27851
I26455
tp190
s(g9
I7
tp191
(I27811
I27243
tp192
s(g9
I4
tp193
(I27822
I27280
tp194
s(g14
I6
tp195
(I27929
I27429
tp196
s(g14
I8
tp197
(I27867
I27368
tp198
s(g6
I2
tp199
(I27836
I26453
tp200
ssba(iSample
Sample
p201
(dp202
g3
F1440430237.35132
sg4
(dp203
(g6
I5
tp204
(I28029
I26624
tp205
s(g9
I7
tp206
(I27989
I27421
tp207
s(g9
I4
tp208
(I28000
I27458
tp209
s(g14
I6
tp210
(I27953
I27453
tp211
s(g14
I8
tp212
(I27891
I27392
tp213
s(g6
I2
tp214
(I28014
I26629
tp215
ssba(iSample
Sample
p216
(dp217
g3
F1440430240.553308
sg4
(dp218
(g6
I5
tp219
(I28052
I26646
tp220
s(g9
I7
tp221
(I28012
I27444
tp222
s(g9
I4
tp223
(I28023
I27481
tp224
s(g14
I6
tp225
(I27976
I27476
tp226
s(g14
I8
tp227
(I27914
I27415
tp228
s(g6
I2
tp229
(I28037
I26651
tp230
ssba(iSample
Sample
p231
(dp232
g3
F1440430243.672896
sg4
(dp233
(g6
I5
tp234
(I28076
I26670
tp235
s(g9
I7
tp236
(I28036
I27468
tp237
s(g9
I4
tp238
(I28047
I27505
tp239
s(g14
I6
tp240
(I28001
I27501
tp241
s(g14
I8
tp242
(I27939
I27439
tp243
s(g6
I2
tp244
(I28061
I26675
tp245
ssba(iSample
Sample
p246
(dp247
g3
F1440430247.070646
sg4
(dp248
(g6
I5
tp249
(I28101
I26695
tp250
s(g9
I7
tp251
(I28061
I27493
tp252
s(g9
I4
tp253
(I28072
I27529
tp254
s(g14
I6
tp255
(I28025
I27525
tp256
s(g14
I8
tp257
(I27963
I27462
tp258
s(g6
I2
tp259
(I28086
I26700
tp260
ssba(iSample
Sample
p261
(dp262
g3
F1440430250.270127
sg4
(dp263
(g6
I5
tp264
(I28124
I26718
tp265
s(g9
I7
tp266
(I28084
I27515
tp267
s(g9
I4
tp268
(I28095
I27552
tp269
s(g14
I6
tp270
(I28048
I27548
tp271
s(g14
I8
tp272
(I27986
I27485
tp273
s(g6
I2
tp274
(I28109
I26723
tp275
ssba(iSample
Sample
p276
(dp277
g3
F1440430253.377663
sg4
(dp278
(g6
I5
tp279
(I28149
I26743
tp280
s(g9
I7
tp281
(I28107
I27538
tp282
s(g9
I4
tp283
(I28118
I27575
tp284
s(g14
I6
tp285
(I28073
I27573
tp286
s(g14
I8
tp287
(I28011
I27510
tp288
s(g6
I2
tp289
(I28134
I26748
tp290
ssba(iSample
Sample
p291
(dp292
g3
F1440430256.738973
sg4
(dp293
(g6
I5
tp294
(I28173
I26767
tp295
s(g9
I7
tp296
(I28133
I27564
tp297
s(g9
I4
tp298
(I28144
I27601
tp299
s(g14
I6
tp300
(I28097
I27597
tp301
s(g14
I8
tp302
(I28035
I27534
tp303
s(g6
I2
tp304
(I28158
I26772
tp305
ssba(iSample
Sample
p306
(dp307
g3
F1440430260.007085
sg4
(dp308
(g6
I5
tp309
(I28197
I26791
tp310
s(g9
I7
tp311
(I28156
I27586
tp312
s(g9
I4
tp313
(I28167
I27624
tp314
s(g14
I6
tp315
(I28121
I27621
tp316
s(g14
I8
tp317
(I28059
I27558
tp318
s(g6
I2
tp319
(I28182
I26796
tp320
ssba(iSample
Sample
p321
(dp322
g3
F1440430263.207635
sg4
(dp323
(g6
I5
tp324
(I28220
I26813
tp325
s(g9
I7
tp326
(I28180
I27610
tp327
s(g9
I4
tp328
(I28191
I27648
tp329
s(g14
I6
tp330
(I28146
I27646
tp331
s(g14
I8
tp332
(I28084
I27583
tp333
s(g6
I2
tp334
(I28205
I26819
tp335
ssba(iSample
Sample
p336
(dp337
g3
F1440430266.615541
sg4
(dp338
(g6
I5
tp339
(I28248
I26840
tp340
s(g9
I7
tp341
(I28208
I27638
tp342
s(g9
I4
tp343
(I28219
I27676
tp344
s(g14
I6
tp345
(I28172
I27672
tp346
s(g14
I8
tp347
(I28110
I27609
tp348
s(g6
I2
tp349
(I28233
I26847
tp350
ssba(iSample
Sample
p351
(dp352
g3
F1440430270.153862
sg4
(dp353
(g6
I5
tp354
(I28272
I26863
tp355
s(g9
I7
tp356
(I28232
I27662
tp357
s(g9
I4
tp358
(I28243
I27700
tp359
s(g14
I6
tp360
(I28196
I27696
tp361
s(g14
I8
tp362
(I28134
I27633
tp363
s(g6
I2
tp364
(I28257
I26871
tp365
ssba(iSample
Sample
p366
(dp367
g3
F1440430273.370758
sg4
(dp368
(g6
I5
tp369
(I28296
I26887
tp370
s(g9
I7
tp371
(I28255
I27685
tp372
s(g9
I4
tp373
(I28266
I27723
tp374
s(g14
I6
tp375
(I28221
I27721
tp376
s(g14
I8
tp377
(I28159
I27658
tp378
s(g6
I2
tp379
(I28281
I26894
tp380
ssba(iSample
Sample
p381
(dp382
g3
F1440430276.79661
sg4
(dp383
(g6
I5
tp384
(I28321
I26911
tp385
s(g9
I7
tp386
(I28281
I27711
tp387
s(g9
I4
tp388
(I28292
I27749
tp389
s(g14
I6
tp390
(I28245
I27745
tp391
s(g14
I8
tp392
(I28183
I27682
tp393
s(g6
I2
tp394
(I28306
I26919
tp395
ssba(iSample
Sample
p396
(dp397
g3
F1440430279.980241
sg4
(dp398
(g6
I5
tp399
(I28347
I26937
tp400
s(g9
I7
tp401
(I28304
I27734
tp402
s(g9
I4
tp403
(I28315
I27772
tp404
s(g14
I6
tp405
(I28272
I27771
tp406
s(g14
I8
tp407
(I28210
I27709
tp408
s(g6
I2
tp409
(I28332
I26945
tp410
ssba(iSample
Sample
p411
(dp412
g3
F1440430283.651847
sg4
(dp413
(g6
I5
tp414
(I28372
I26962
tp415
s(g9
I7
tp416
(I28332
I27762
tp417
s(g9
I4
tp418
(I28343
I27800
tp419
s(g14
I6
tp420
(I28296
I27795
tp421
s(g14
I8
tp422
(I28234
I27733
tp423
s(g6
I2
tp424
(I28357
I26970
tp425
ssba(iSample
Sample
p426
(dp427
g3
F1440430286.895867
sg4
(dp428
(g6
I5
tp429
(I28396
I26985
tp430
s(g9
I7
tp431
(I28356
I27786
tp432
s(g9
I4
tp433
(I28367
I27824
tp434
s(g14
I6
tp435
(I28320
I27819
tp436
s(g14
I8
tp437
(I28258
I27757
tp438
s(g6
I2
tp439
(I28381
I26994
tp440
ssba(iSample
Sample
p441
(dp442
g3
F1440430290.134063
sg4
(dp443
(g6
I5
tp444
(I28427
I27016
tp445
s(g9
I7
tp446
(I28380
I27810
tp447
s(g9
I4
tp448
(I28391
I27848
tp449
s(g14
I6
tp450
(I28351
I27850
tp451
s(g14
I8
tp452
(I28289
I27788
tp453
s(g6
I2
tp454
(I28412
I27024
tp455
ssba(iSample
Sample
p456
(dp457
g3
F1440430294.368324
sg4
(dp458
(g6
I5
tp459
(I28451
I27040
tp460
s(g9
I7
tp461
(I28411
I27841
tp462
s(g9
I4
tp463
(I28422
I27879
tp464
s(g14
I6
tp465
(I28375
I27874
tp466
s(g14
I8
tp467
(I28313
I27812
tp468
s(g6
I2
tp469
(I28436
I27048
tp470
ssba(iSample
Sample
p471
(dp472
g3
F1440430297.523039
sg4
(dp473
(g6
I5
tp474
(I28475
I27063
tp475
s(g9
I7
tp476
(I28434
I27864
tp477
s(g9
I4
tp478
(I28445
I27902
tp479
s(g14
I6
tp480
(I28399
I27898
tp481
s(g14
I8
tp482
(I28337
I27836
tp483
s(g6
I2
tp484
(I28460
I27072
tp485
ssba(iSample
Sample
p486
(dp487
g3
F1440430300.851241
sg4
(dp488
(g6
I5
tp489
(I28501
I27087
tp490
s(g9
I7
tp491
(I28461
I27891
tp492
s(g9
I4
tp493
(I28472
I27929
tp494
s(g14
I6
tp495
(I28425
I27924
tp496
s(g14
I8
tp497
(I28363
I27862
tp498
s(g6
I2
tp499
(I28486
I27097
tp500
ssba(iSample
Sample
p501
(dp502
g3
F1440430304.262127
sg4
(dp503
(g6
I5
tp504
(I28527
I27111
tp505
s(g9
I7
tp506
(I28484
I27914
tp507
s(g9
I4
tp508
(I28495
I27952
tp509
s(g14
I6
tp510
(I28451
I27950
tp511
s(g14
I8
tp512
(I28389
I27888
tp513
s(g6
I2
tp514
(I28512
I27123
tp515
ssba(iSample
Sample
p516
(dp517
g3
F1440430307.826853
sg4
(dp518
(g6
I5
tp519
(I28558
I27142
tp520
s(g9
I7
tp521
(I28511
I27941
tp522
s(g9
I4
tp523
(I28522
I27979
tp524
s(g14
I6
tp525
(I28482
I27981
tp526
s(g14
I8
tp527
(I28420
I27919
tp528
s(g6
I2
tp529
(I28543
I27153
tp530
ssba(iSample
Sample
p531
(dp532
g3
F1440430311.993046
sg4
(dp533
(g6
I5
tp534
(I28581
I27165
tp535
s(g9
I7
tp536
(I28541
I27971
tp537
s(g9
I4
tp538
(I28552
I28009
tp539
s(g14
I6
tp540
(I28505
I28004
tp541
s(g14
I8
tp542
(I28443
I27942
tp543
s(g6
I2
tp544
(I28566
I27175
tp545
ssba(iSample
Sample
p546
(dp547
g3
F1440430315.098092
sg4
(dp548
(g6
I5
tp549
(I28607
I27190
tp550
s(g9
I7
tp551
(I28567
I27996
tp552
s(g9
I4
tp553
(I28578
I28035
tp554
s(g14
I6
tp555
(I28736
I28235
tp556
s(g14
I8
tp557
(I28674
I28172
tp558
s(g6
I2
tp559
(I28592
I27199
tp560
ssba(iSample
Sample
p561
(dp562
g3
F1440430346.276242
sg4
(dp563
(g6
I5
tp564
(I28835
I27415
tp565
s(g9
I7
tp566
(I28795
I28223
tp567
s(g9
I4
tp568
(I28806
I28263
tp569
s(g14
I6
tp570
(I28759
I28258
tp571
s(g14
I8
tp572
(I28697
I28195
tp573
s(g6
I2
tp574
(I28820
I27424
tp575
ssba(iSample
Sample
p576
(dp577
g3
F1440430349.3772
sg4
(dp578
(g6
I5
tp579
(I28858
I27438
tp580
s(g9
I7
tp581
(I28818
I28245
tp582
s(g9
I4
tp583
(I28829
I28286
tp584
s(g14
I6
tp585
(I28782
I28281
tp586
s(g14
I8
tp587
(I28720
I28218
tp588
s(g6
I2
tp589
(I28843
I27447
tp590
ssba(iSample
Sample
p591
(dp592
g3
F1440430352.522569
sg4
(dp593
(g6
I5
tp594
(I28883
I27463
tp595
s(g9
I7
tp596
(I28843
I28270
tp597
s(g9
I4
tp598
(I28854
I28311
tp599
s(g14
I6
tp600
(I28807
I28306
tp601
s(g14
I8
tp602
(I28745
I28243
tp603
s(g6
I2
tp604
(I28868
I27471
tp605
ssba(iSample
Sample
p606
(dp607
g3
F1440430355.886179
sg4
(dp608
(g6
I5
tp609
(I28906
I27485
tp610
s(g9
I7
tp611
(I28866
I28293
tp612
s(g9
I4
tp613
(I28877
I28334
tp614
s(g14
I6
tp615
(I28830
I28329
tp616
s(g14
I8
tp617
(I28768
I28266
tp618
s(g6
I2
tp619
(I28891
I27493
tp620
ssba(iSample
Sample
p621
(dp622
g3
F1440430359.019249
sg4
(dp623
(g6
I5
tp624
(I28930
I27509
tp625
s(g9
I7
tp626
(I28890
I28317
tp627
s(g9
I4
tp628
(I28901
I28358
tp629
s(g14
I6
tp630
(I28854
I28353
tp631
s(g14
I8
tp632
(I28792
I28290
tp633
s(g6
I2
tp634
(I28915
I27517
tp635
ssba(iSample
Sample
p636
(dp637
g3
F1440430362.241425
sg4
(dp638
(g6
I5
tp639
(I28953
I27531
tp640
s(g9
I7
tp641
(I28913
I28339
tp642
s(g9
I4
tp643
(I28924
I28381
tp644
s(g14
I6
tp645
(I28877
I28375
tp646
s(g14
I8
tp647
(I28815
I28313
tp648
s(g6
I2
tp649
(I28938
I27540
tp650
ssba(iSample
Sample
p651
(dp652
g3
F1440430365.299987
sg4
(dp653
(g6
I5
tp654
(I28976
I27554
tp655
s(g9
I7
tp656
(I28936
I28362
tp657
s(g9
I4
tp658
(I28947
I28403
tp659
s(g14
I6
tp660
(I28900
I28398
tp661
s(g14
I8
tp662
(I28838
I28335
tp663
s(g6
I2
tp664
(I28961
I27563
tp665
ssba(iSample
Sample
p666
(dp667
g3
F1440430368.448269
sg4
(dp668
(g6
I5
tp669
(I28999
I27577
tp670
s(g9
I7
tp671
(I28959
I28385
tp672
s(g9
I4
tp673
(I28970
I28426
tp674
s(g14
I6
tp675
(I28923
I28421
tp676
s(g14
I8
tp677
(I28861
I28358
tp678
s(g6
I2
tp679
(I28984
I27585
tp680
ssba(iSample
Sample
p681
(dp682
g3
F1440430371.572442
sg4
(dp683
(g6
I5
tp684
(I29023
I27601
tp685
s(g9
I7
tp686
(I28983
I28409
tp687
s(g9
I4
tp688
(I28994
I28450
tp689
s(g14
I6
tp690
(I28947
I28445
tp691
s(g14
I8
tp692
(I28885
I28382
tp693
s(g6
I2
tp694
(I29008
I27609
tp695
ssba(iSample
Sample
p696
(dp697
g3
F1440430374.783155
sg4
(dp698
(g6
I5
tp699
(I29046
I27624
tp700
s(g9
I7
tp701
(I29006
I28432
tp702
s(g9
I4
tp703
(I29017
I28472
tp704
s(g14
I6
tp705
(I28970
I28468
tp706
s(g14
I8
tp707
(I28908
I28405
tp708
s(g6
I2
tp709
(I29031
I27632
tp710
ssba(iSample
Sample
p711
(dp712
g3
F1440430377.897213
sg4
(dp713
(g6
I5
tp714
(I29069
I27646
tp715
s(g9
I7
tp716
(I29029
I28455
tp717
s(g9
I4
tp718
(I29040
I28495
tp719
s(g14
I6
tp720
(I28995
I28493
tp721
s(g14
I8
tp722
(I28933
I28430
tp723
s(g6
I2
tp724
(I29054
I27655
tp725
ssba(iSample
Sample
p726
(dp727
g3
F1440430381.269162
sg4
(dp728
(g6
I5
tp729
(I29094
I27671
tp730
s(g9
I7
tp731
(I29054
I28480
tp732
s(g9
I4
tp733
(I29065
I28520
tp734
s(g14
I6
tp735
(I29021
I28519
tp736
s(g14
I8
tp737
(I28959
I28456
tp738
s(g6
I2
tp739
(I29079
I27680
tp740
ssba(iSample
Sample
p741
(dp742
g3
F1440430384.841637
sg4
(dp743
(g6
I5
tp744
(I29121
I27698
tp745
s(g9
I7
tp746
(I29081
I28507
tp747
s(g9
I4
tp748
(I29092
I28547
tp749
s(g14
I6
tp750
(I29045
I28543
tp751
s(g14
I8
tp752
(I28983
I28480
tp753
s(g6
I2
tp754
(I29106
I27707
tp755
ssba(iSample
Sample
p756
(dp757
g3
F1440430388.022746
sg4
(dp758
(g6
I5
tp759
(I29145
I27722
tp760
s(g9
I7
tp761
(I29105
I28530
tp762
s(g9
I4
tp763
(I29116
I28571
tp764
s(g14
I6
tp765
(I29069
I28567
tp766
s(g14
I8
tp767
(I29007
I28504
tp768
s(g6
I2
tp769
(I29130
I27731
tp770
ssba(iSample
Sample
p771
(dp772
g3
F1440430391.230929
sg4
(dp773
(g6
I5
tp774
(I29169
I27746
tp775
s(g9
I7
tp776
(I29128
I28553
tp777
s(g9
I4
tp778
(I29139
I28594
tp779
s(g14
I6
tp780
(I29093
I28590
tp781
s(g14
I8
tp782
(I29031
I28528
tp783
s(g6
I2
tp784
(I29154
I27754
tp785
ssba(iSample
Sample
p786
(dp787
g3
F1440430394.533773
sg4
(dp788
(g6
I5
tp789
(I29193
I27770
tp790
s(g9
I7
tp791
(I29153
I28578
tp792
s(g9
I4
tp793
(I29164
I28619
tp794
s(g14
I6
tp795
(I29117
I28614
tp796
s(g14
I8
tp797
(I29055
I28552
tp798
s(g6
I2
tp799
(I29178
I27777
tp800
ssba(iSample
Sample
p801
(dp802
g3
F1440430397.796794
sg4
(dp803
(g6
I5
tp804
(I29219
I27795
tp805
s(g9
I7
tp806
(I29179
I28604
tp807
s(g9
I4
tp808
(I29190
I28645
tp809
s(g14
I6
tp810
(I29143
I28640
tp811
s(g14
I8
tp812
(I29081
I28577
tp813
s(g6
I2
tp814
(I29204
I27803
tp815
ssba(iSample
Sample
p816
(dp817
g3
F1440430401.293379
sg4
(dp818
(g6
I5
tp819
(I29243
I27818
tp820
s(g9
I7
tp821
(I29203
I28628
tp822
s(g9
I4
tp823
(I29214
I28669
tp824
s(g14
I6
tp825
(I29167
I28664
tp826
s(g14
I8
tp827
(I29105
I28601
tp828
s(g6
I2
tp829
(I29228
I27827
tp830
ssba(iSample
Sample
p831
(dp832
g3
F1440430404.545205
sg4
(dp833
(g6
I5
tp834
(I29267
I27842
tp835
s(g9
I7
tp836
(I29227
I28652
tp837
s(g9
I4
tp838
(I29238
I28693
tp839
s(g14
I6
tp840
(I29191
I28688
tp841
s(g14
I8
tp842
(I29129
I28625
tp843
s(g6
I2
tp844
(I29252
I27851
tp845
ssba(iSample
Sample
p846
(dp847
g3
F1440430407.70336
sg4
(dp848
(g6
I5
tp849
(I29290
I27865
tp850
s(g9
I7
tp851
(I29250
I28675
tp852
s(g9
I4
tp853
(I29261
I28716
tp854
s(g14
I6
tp855
(I29214
I28711
tp856
s(g14
I8
tp857
(I29152
I28648
tp858
s(g6
I2
tp859
(I29275
I27874
tp860
ssba(iSample
Sample
p861
(dp862
g3
F1440430410.80196
sg4
(dp863
(g6
I5
tp864
(I29313
I27888
tp865
s(g9
I7
tp866
(I29273
I28698
tp867
s(g9
I4
tp868
(I29284
I28739
tp869
s(g14
I6
tp870
(I29237
I28734
tp871
s(g14
I8
tp872
(I29175
I28671
tp873
s(g6
I2
tp874
(I29298
I27896
tp875
ssba(iSample
Sample
p876
(dp877
g3
F1440430413.964139
sg4
(dp878
(g6
I5
tp879
(I29339
I27914
tp880
s(g9
I7
tp881
(I29299
I28724
tp882
s(g9
I4
tp883
(I29310
I28765
tp884
s(g14
I6
tp885
(I29263
I28760
tp886
s(g14
I8
tp887
(I29201
I28697
tp888
s(g6
I2
tp889
(I29324
I27922
tp890
ssba(iSample
Sample
p891
(dp892
g3
F1440430417.495051
sg4
(dp893
(g6
I5
tp894
(I29363
I27938
tp895
s(g9
I7
tp896
(I29323
I28748
tp897
s(g9
I4
tp898
(I29334
I28789
tp899
s(g14
I6
tp900
(I29287
I28784
tp901
s(g14
I8
tp902
(I29225
I28721
tp903
s(g6
I2
tp904
(I29348
I27946
tp905
ssba.