(lp0
(iSample
Sample
p1
(dp2
S'timeStamp'
p3
F1440752326.981656
sS'moteSignal'
p4
(dp5
S'8031'
p6
(I-58
I231
tp7
sS'f53b'
p8
(I-65
I108
tp9
sS'8054'
p10
(I-51
I237
tp11
ssS'moteData'
p12
(dp13
(g6
I5
tp14
(I129
I128
tp15
s(g6
I2
tp16
(I142
I141
tp17
s(g8
I4
tp18
(I207
I205
tp19
s(g8
I6
tp20
(I189
I189
tp21
s(g10
I7
tp22
(I34
I34
tp23
ssba(iSample
Sample
p24
(dp25
g3
F1440752331.346616
sg4
(dp26
g6
(I-54
I230
tp27
sg8
(I-62
I108
tp28
sg10
(I-57
I241
tp29
ssg12
(dp30
(g6
I5
tp31
(I162
I161
tp32
s(g6
I2
tp33
(I175
I174
tp34
s(g8
I4
tp35
(I240
I238
tp36
s(g8
I6
tp37
(I222
I221
tp38
s(g10
I7
tp39
(I67
I67
tp40
ssba(iSample
Sample
p41
(dp42
g3
F1440752335.610486
sg4
(dp43
g6
(I-57
I237
tp44
sg8
(I-64
I108
tp45
sg10
(I-54
I236
tp46
ssg12
(dp47
(g6
I5
tp48
(I193
I192
tp49
s(g6
I2
tp50
(I206
I203
tp51
s(g8
I4
tp52
(I271
I269
tp53
s(g8
I6
tp54
(I253
I252
tp55
s(g10
I7
tp56
(I303
I301
tp57
ssba(iSample
Sample
p58
(dp59
g3
F1440752367.471025
sg4
(dp60
g6
(I-59
I233
tp61
sg8
(I-55
I108
tp62
sg10
(I-57
I242
tp63
ssg12
(dp64
(g6
I5
tp65
(I428
I422
tp66
s(g6
I2
tp67
(I441
I430
tp68
s(g8
I4
tp69
(I507
I496
tp70
s(g8
I6
tp71
(I489
I481
tp72
s(g10
I7
tp73
(I333
I331
tp74
ssba(iSample
Sample
p75
(dp76
g3
F1440752371.504088
sg4
(dp77
g6
(I-58
I242
tp78
sg8
(I-61
I108
tp79
sg10
(I-58
I237
tp80
ssg12
(dp81
(g6
I5
tp82
(I462
I455
tp83
s(g6
I2
tp84
(I475
I463
tp85
s(g8
I4
tp86
(I540
I528
tp87
s(g8
I6
tp88
(I522
I514
tp89
s(g10
I7
tp90
(I368
I364
tp91
ssba(iSample
Sample
p92
(dp93
g3
F1440752376.283935
sg4
(dp94
g6
(I-57
I235
tp95
sg8
(I-62
I108
tp96
sg10
(I-59
I235
tp97
ssg12
(dp98
(g6
I5
tp99
(I494
I481
tp100
s(g6
I2
tp101
(I507
I489
tp102
s(g8
I4
tp103
(I572
I559
tp104
s(g8
I6
tp105
(I554
I544
tp106
s(g10
I7
tp107
(I399
I392
tp108
ssba(iSample
Sample
p109
(dp110
g3
F1440752380.619463
sg4
(dp111
g6
(I-61
I232
tp112
sg8
(I-59
I108
tp113
sg10
(I-56
I225
tp114
ssg12
(dp115
(g6
I5
tp116
(I528
I510
tp117
s(g6
I2
tp118
(I541
I520
tp119
s(g8
I4
tp120
(I605
I590
tp121
s(g8
I6
tp122
(I587
I577
tp123
s(g10
I7
tp124
(I433
I421
tp125
ssba(iSample
Sample
p126
(dp127
g3
F1440752385.15064
sg4
(dp128
g6
(I-57
I225
tp129
sg8
(I-60
I108
tp130
sg10
(I-56
I236
tp131
ssg12
(dp132
(g6
I5
tp133
(I560
I535
tp134
s(g6
I2
tp135
(I573
I546
tp136
s(g8
I4
tp137
(I638
I619
tp138
s(g8
I6
tp139
(I620
I605
tp140
s(g10
I7
tp141
(I465
I446
tp142
ssba(iSample
Sample
p143
(dp144
g3
F1440752389.37509
sg4
(dp145
g6
(I-60
I231
tp146
sg8
(I-60
I108
tp147
sg10
(I-60
I238
tp148
ssg12
(dp149
(g6
I5
tp150
(I597
I567
tp151
s(g6
I2
tp152
(I610
I580
tp153
s(g8
I4
tp154
(I675
I651
tp155
s(g8
I6
tp156
(I657
I638
tp157
s(g10
I7
tp158
(I503
I482
tp159
ssba(iSample
Sample
p160
(dp161
g3
F1440752394.455076
sg4
(dp162
g6
(I-60
I241
tp163
sg8
(I-60
I108
tp164
sg10
(I-59
I241
tp165
ssg12
(dp166
(g6
I5
tp167
(I629
I596
tp168
s(g6
I2
tp169
(I642
I608
tp170
s(g8
I4
tp171
(I707
I682
tp172
s(g8
I6
tp173
(I689
I669
tp174
s(g10
I7
tp175
(I535
I513
tp176
ssba(iSample
Sample
p177
(dp178
g3
F1440752398.882091
sg4
(dp179
g6
(I-57
I242
tp180
sg8
(I-59
I108
tp181
sg10
(I-58
I240
tp182
ssg12
(dp183
(g6
I5
tp184
(I661
I623
tp185
s(g6
I2
tp186
(I674
I633
tp187
s(g8
I4
tp188
(I740
I710
tp189
s(g8
I6
tp190
(I722
I699
tp191
s(g10
I7
tp192
(I567
I535
tp193
ssba(iSample
Sample
p194
(dp195
g3
F1440752403.35929
sg4
(dp196
g6
(I-54
I242
tp197
sg8
(I-58
I108
tp198
sg10
(I-56
I235
tp199
ssg12
(dp200
(g6
I5
tp201
(I695
I652
tp202
s(g6
I2
tp203
(I708
I660
tp204
s(g8
I4
tp205
(I773
I737
tp206
s(g8
I6
tp207
(I755
I728
tp208
s(g10
I7
tp209
(I604
I563
tp210
ssba(iSample
Sample
p211
(dp212
g3
F1440752408.181918
sg4
(dp213
g6
(I-53
I236
tp214
sg8
(I-53
I108
tp215
sg10
(I-57
I237
tp216
ssg12
(dp217
(g6
I5
tp218
(I731
I682
tp219
s(g6
I2
tp220
(I744
I691
tp221
s(g8
I4
tp222
(I809
I766
tp223
s(g8
I6
tp224
(I791
I761
tp225
s(g10
I7
tp226
(I637
I587
tp227
ssba(iSample
Sample
p228
(dp229
g3
F1440752412.692911
sg4
(dp230
g6
(I-59
I236
tp231
sg8
(I-59
I108
tp232
sg10
(I-60
I241
tp233
ssg12
(dp234
(g6
I5
tp235
(I764
I711
tp236
s(g6
I2
tp237
(I777
I720
tp238
s(g8
I4
tp239
(I842
I796
tp240
s(g8
I6
tp241
(I824
I791
tp242
s(g10
I7
tp243
(I669
I615
tp244
ssba(iSample
Sample
p245
(dp246
g3
F1440752416.963445
sg4
(dp247
g6
(I-60
I240
tp248
sg8
(I-60
I108
tp249
sg10
(I-57
I242
tp250
ssg12
(dp251
(g6
I5
tp252
(I796
I739
tp253
s(g6
I2
tp254
(I809
I746
tp255
s(g8
I4
tp256
(I874
I825
tp257
s(g8
I6
tp258
(I856
I818
tp259
s(g10
I7
tp260
(I702
I644
tp261
ssba(iSample
Sample
p262
(dp263
g3
F1440752421.354821
sg4
(dp264
g6
(I-60
I241
tp265
sg8
(I-54
I108
tp266
sg10
(I-58
I229
tp267
ssg12
(dp268
(g6
I5
tp269
(I829
I771
tp270
s(g6
I2
tp271
(I842
I778
tp272
s(g8
I4
tp273
(I907
I858
tp274
s(g8
I6
tp275
(I889
I850
tp276
s(g10
I7
tp277
(I735
I677
tp278
ssba(iSample
Sample
p279
(dp280
g3
F1440752425.830303
sg4
(dp281
g6
(I-60
I237
tp282
sg8
(I-54
I108
tp283
sg10
(I-58
I239
tp284
ssg12
(dp285
(g6
I5
tp286
(I861
I803
tp287
s(g6
I2
tp288
(I874
I810
tp289
s(g8
I4
tp290
(I939
I890
tp291
s(g8
I6
tp292
(I921
I882
tp293
s(g10
I7
tp294
(I767
I709
tp295
ssba(iSample
Sample
p296
(dp297
g3
F1440752430.155424
sg4
(dp298
g6
(I-60
I236
tp299
sg8
(I-54
I108
tp300
sg10
(I-57
I241
tp301
ssg12
(dp302
(g6
I5
tp303
(I893
I834
tp304
s(g6
I2
tp305
(I906
I841
tp306
s(g8
I4
tp307
(I971
I922
tp308
s(g8
I6
tp309
(I953
I914
tp310
s(g10
I7
tp311
(I799
I741
tp312
ssba(iSample
Sample
p313
(dp314
g3
F1440752434.448673
sg4
(dp315
g6
(I-58
I233
tp316
sg8
(I-61
I107
tp317
sg10
(I-55
I238
tp318
ssg12
(dp319
(g6
I5
tp320
(I926
I866
tp321
s(g6
I2
tp322
(I939
I874
tp323
s(g8
I4
tp324
(I1004
I955
tp325
s(g8
I6
tp326
(I986
I947
tp327
s(g10
I7
tp328
(I832
I774
tp329
ssba(iSample
Sample
p330
(dp331
g3
F1440752438.946951
sg4
(dp332
g6
(I-59
I242
tp333
sg8
(I-60
I108
tp334
sg10
(I-59
I236
tp335
ssg12
(dp336
(g6
I5
tp337
(I958
I896
tp338
s(g6
I2
tp339
(I971
I905
tp340
s(g8
I4
tp341
(I1036
I987
tp342
s(g8
I6
tp343
(I1018
I979
tp344
s(g10
I7
tp345
(I1083
I1020
tp346
ssba(iSample
Sample
p347
(dp348
g3
F1440752472.806648
sg4
(dp349
g6
(I-54
I240
tp350
sg8
(I-59
I108
tp351
sg10
(I-59
I236
tp352
ssg12
(dp353
(g6
I5
tp354
(I1211
I1144
tp355
s(g6
I2
tp356
(I1224
I1154
tp357
s(g8
I4
tp358
(I1290
I1240
tp359
s(g8
I6
tp360
(I1272
I1232
tp361
s(g10
I7
tp362
(I1116
I1053
tp363
ssba(iSample
Sample
p364
(dp365
g3
F1440752477.292927
sg4
(dp366
g6
(I-53
I241
tp367
sg8
(I-61
I108
tp368
sg10
(I-59
I239
tp369
ssg12
(dp370
(g6
I5
tp371
(I1242
I1175
tp372
s(g6
I2
tp373
(I1255
I1185
tp374
s(g8
I4
tp375
(I1320
I1270
tp376
s(g8
I6
tp377
(I1302
I1262
tp378
s(g10
I7
tp379
(I1148
I1085
tp380
ssba(iSample
Sample
p381
(dp382
g3
F1440752481.634222
sg4
(dp383
g6
(I-54
I242
tp384
sg8
(I-61
I108
tp385
sg10
(I-59
I234
tp386
ssg12
(dp387
(g6
I5
tp388
(I1273
I1205
tp389
s(g6
I2
tp390
(I1286
I1215
tp391
s(g8
I4
tp392
(I1352
I1302
tp393
s(g8
I6
tp394
(I1334
I1294
tp395
s(g10
I7
tp396
(I1178
I1115
tp397
ssba(iSample
Sample
p398
(dp399
g3
F1440752485.680254
sg4
(dp400
g6
(I-56
I238
tp401
sg8
(I-66
I108
tp402
sg10
(I-61
I242
tp403
ssg12
(dp404
(g6
I5
tp405
(I1303
I1235
tp406
s(g6
I2
tp407
(I1316
I1244
tp408
s(g8
I4
tp409
(I1382
I1332
tp410
s(g8
I6
tp411
(I1364
I1324
tp412
s(g10
I7
tp413
(I1209
I1146
tp414
ssba(iSample
Sample
p415
(dp416
g3
F1440752489.803351
sg4
(dp417
g6
(I-60
I242
tp418
sg8
(I-55
I108
tp419
sg10
(I-58
I239
tp420
ssg12
(dp421
(g6
I5
tp422
(I1341
I1272
tp423
s(g6
I2
tp424
(I1354
I1282
tp425
s(g8
I4
tp426
(I1419
I1369
tp427
s(g8
I6
tp428
(I1401
I1361
tp429
s(g10
I7
tp430
(I1247
I1184
tp431
ssba(iSample
Sample
p432
(dp433
g3
F1440752494.959334
sg4
(dp434
g6
(I-63
I241
tp435
sg8
(I-54
I107
tp436
sg10
(I-55
I238
tp437
ssg12
(dp438
(g6
I5
tp439
(I1372
I1302
tp440
s(g6
I2
tp441
(I1385
I1311
tp442
s(g8
I4
tp443
(I1451
I1401
tp444
s(g8
I6
tp445
(I1433
I1393
tp446
s(g10
I7
tp447
(I1280
I1217
tp448
ssba(iSample
Sample
p449
(dp450
g3
F1440752499.473698
sg4
(dp451
g6
(I-54
I234
tp452
sg8
(I-58
I108
tp453
sg10
(I-55
I241
tp454
ssg12
(dp455
(g6
I5
tp456
(I1407
I1337
tp457
s(g6
I2
tp458
(I1420
I1345
tp459
s(g8
I4
tp460
(I1485
I1435
tp461
s(g8
I6
tp462
(I1467
I1427
tp463
s(g10
I7
tp464
(I1313
I1249
tp465
ssba(iSample
Sample
p466
(dp467
g3
F1440752503.866196
sg4
(dp468
g6
(I-56
I238
tp469
sg8
(I-58
I108
tp470
sg10
(I-58
I231
tp471
ssg12
(dp472
(g6
I5
tp473
(I1438
I1368
tp474
s(g6
I2
tp475
(I1451
I1376
tp476
s(g8
I4
tp477
(I1517
I1467
tp478
s(g8
I6
tp479
(I1499
I1459
tp480
s(g10
I7
tp481
(I1343
I1279
tp482
ssba(iSample
Sample
p483
(dp484
g3
F1440752508.006246
sg4
(dp485
g6
(I-60
I239
tp486
sg8
(I-63
I108
tp487
sg10
(I-57
I241
tp488
ssg12
(dp489
(g6
I5
tp490
(I1469
I1398
tp491
s(g6
I2
tp492
(I1482
I1406
tp493
s(g8
I4
tp494
(I1548
I1498
tp495
s(g8
I6
tp496
(I1530
I1490
tp497
s(g10
I7
tp498
(I1374
I1310
tp499
ssba(iSample
Sample
p500
(dp501
g3
F1440752512.157414
sg4
(dp502
g6
(I-54
I234
tp503
sg8
(I-60
I108
tp504
sg10
(I-58
I240
tp505
ssg12
(dp506
(g6
I5
tp507
(I1499
I1428
tp508
s(g6
I2
tp509
(I1512
I1436
tp510
s(g8
I4
tp511
(I1578
I1528
tp512
s(g8
I6
tp513
(I1560
I1520
tp514
s(g10
I7
tp515
(I1404
I1340
tp516
ssba(iSample
Sample
p517
(dp518
g3
F1440752516.139917
sg4
(dp519
g6
(I-53
I230
tp520
sg8
(I-61
I108
tp521
sg10
(I-57
I241
tp522
ssg12
(dp523
(g6
I5
tp524
(I1530
I1459
tp525
s(g6
I2
tp526
(I1543
I1467
tp527
s(g8
I4
tp528
(I1608
I1558
tp529
s(g8
I6
tp530
(I1590
I1550
tp531
s(g10
I7
tp532
(I1435
I1370
tp533
ssba(iSample
Sample
p534
(dp535
g3
F1440752520.450434
sg4
(dp536
g6
(I-56
I242
tp537
sg8
(I-54
I108
tp538
sg10
(I-59
I241
tp539
ssg12
(dp540
(g6
I5
tp541
(I1566
I1495
tp542
s(g6
I2
tp543
(I1579
I1501
tp544
s(g8
I4
tp545
(I1643
I1593
tp546
s(g8
I6
tp547
(I1625
I1585
tp548
s(g10
I7
tp549
(I1471
I1405
tp550
ssba(iSample
Sample
p551
(dp552
g3
F1440752525.241859
sg4
(dp553
g6
(I-60
I240
tp554
sg8
(I-54
I108
tp555
sg10
(I-58
I242
tp556
ssg12
(dp557
(g6
I5
tp558
(I1597
I1526
tp559
s(g6
I2
tp560
(I1610
I1531
tp561
s(g8
I4
tp562
(I1675
I1625
tp563
s(g8
I6
tp564
(I1657
I1617
tp565
s(g10
I7
tp566
(I1502
I1436
tp567
ssba(iSample
Sample
p568
(dp569
g3
F1440752529.446104
sg4
(dp570
g6
(I-57
I235
tp571
sg8
(I-59
I108
tp572
sg10
(I-59
I235
tp573
ssg12
(dp574
(g6
I5
tp575
(I1633
I1561
tp576
s(g6
I2
tp577
(I1646
I1565
tp578
s(g8
I4
tp579
(I1706
I1656
tp580
s(g8
I6
tp581
(I1688
I1648
tp582
s(g10
I7
tp583
(I1539
I1473
tp584
ssba(iSample
Sample
p585
(dp586
g3
F1440752534.378545
sg4
(dp587
g6
(I-63
I234
tp588
sg8
(I-61
I108
tp589
sg10
(I-58
I239
tp590
ssg12
(dp591
(g6
I5
tp592
(I1665
I1593
tp593
s(g6
I2
tp594
(I1678
I1597
tp595
s(g8
I4
tp596
(I1743
I1693
tp597
s(g8
I6
tp598
(I1725
I1685
tp599
s(g10
I7
tp600
(I1570
I1504
tp601
ssba(iSample
Sample
p602
(dp603
g3
F1440752538.60766
sg4
(dp604
g6
(I-57
I242
tp605
sg8
(I-62
I108
tp606
sg10
(I-58
I237
tp607
ssg12
(dp608
(g6
I5
tp609
(I1696
I1623
tp610
s(g6
I2
tp611
(I1709
I1628
tp612
s(g8
I4
tp613
(I1774
I1724
tp614
s(g8
I6
tp615
(I1756
I1716
tp616
s(g10
I7
tp617
(I1602
I1536
tp618
ssba(iSample
Sample
p619
(dp620
g3
F1440752542.950303
sg4
(dp621
g6
(I-54
I230
tp622
sg8
(I-62
I108
tp623
sg10
(I-56
I226
tp624
ssg12
(dp625
(g6
I5
tp626
(I1727
I1653
tp627
s(g6
I2
tp628
(I1740
I1658
tp629
s(g8
I4
tp630
(I1806
I1756
tp631
s(g8
I6
tp632
(I1788
I1748
tp633
s(g10
I7
tp634
(I1632
I1566
tp635
ssba(iSample
Sample
p636
(dp637
g3
F1440752546.984129
sg4
(dp638
g6
(I-57
I237
tp639
sg8
(I-62
I108
tp640
sg10
(I-59
I239
tp641
ssg12
(dp642
(g6
I5
tp643
(I1758
I1684
tp644
s(g6
I2
tp645
(I1771
I1688
tp646
s(g8
I4
tp647
(I1836
I1786
tp648
s(g8
I6
tp649
(I1818
I1778
tp650
s(g10
I7
tp651
(I1663
I1597
tp652
ssba(iSample
Sample
p653
(dp654
g3
F1440752551.186676
sg4
(dp655
g6
(I-67
I240
tp656
sg8
(I-54
I108
tp657
sg10
(I-65
I241
tp658
ssg12
(dp659
(g6
I5
tp660
(I1788
I1713
tp661
s(g6
I2
tp662
(I1801
I1718
tp663
s(g8
I4
tp664
(I1867
I1817
tp665
s(g8
I6
tp666
(I1849
I1809
tp667
s(g10
I7
tp668
(I1693
I1627
tp669
ssba(iSample
Sample
p670
(dp671
g3
F1440752555.224364
sg4
(dp672
g6
(I-55
I242
tp673
sg8
(I-55
I108
tp674
sg10
(I-61
I239
tp675
ssg12
(dp676
(g6
I5
tp677
(I1819
I1744
tp678
s(g6
I2
tp679
(I1832
I1749
tp680
s(g8
I4
tp681
(I1897
I1847
tp682
s(g8
I6
tp683
(I1879
I1839
tp684
s(g10
I7
tp685
(I1724
I1658
tp686
ssba(iSample
Sample
p687
(dp688
g3
F1440752559.418726
sg4
(dp689
g6
(I-58
I239
tp690
sg8
(I-62
I108
tp691
sg10
(I-56
I240
tp692
ssg12
(dp693
(g6
I5
tp694
(I1850
I1774
tp695
s(g6
I2
tp696
(I1863
I1779
tp697
s(g8
I4
tp698
(I1928
I1878
tp699
s(g8
I6
tp700
(I1910
I1870
tp701
s(g10
I7
tp702
(I1755
I1689
tp703
ssba(iSample
Sample
p704
(dp705
g3
F1440752563.56351
sg4
(dp706
g6
(I-63
I242
tp707
sg8
(I-61
I106
tp708
sg10
(I-57
I239
tp709
ssg12
(dp710
(g6
I5
tp711
(I1880
I1803
tp712
s(g6
I2
tp713
(I1893
I1807
tp714
s(g8
I4
tp715
(I1959
I1909
tp716
s(g8
I6
tp717
(I1941
I1900
tp718
s(g10
I7
tp719
(I1785
I1719
tp720
ssba(iSample
Sample
p721
(dp722
g3
F1440752567.662546
sg4
(dp723
g6
(I-65
I241
tp724
sg8
(I-63
I108
tp725
sg10
(I-57
I233
tp726
ssg12
(dp727
(g6
I5
tp728
(I1910
I1832
tp729
s(g6
I2
tp730
(I1923
I1837
tp731
s(g8
I4
tp732
(I1989
I1939
tp733
s(g8
I6
tp734
(I1971
I1930
tp735
s(g10
I7
tp736
(I1815
I1749
tp737
ssba(iSample
Sample
p738
(dp739
g3
F1440752571.72242
sg4
(dp740
g6
(I-60
I238
tp741
sg8
(I-61
I107
tp742
sg10
(I-56
I237
tp743
ssg12
(dp744
(g6
I5
tp745
(I1942
I1863
tp746
s(g6
I2
tp747
(I1955
I1867
tp748
s(g8
I4
tp749
(I2020
I1970
tp750
s(g8
I6
tp751
(I2002
I1961
tp752
s(g10
I7
tp753
(I1848
I1782
tp754
ssba(iSample
Sample
p755
(dp756
g3
F1440752576.183693
sg4
(dp757
g6
(I-60
I238
tp758
sg8
(I-58
I108
tp759
sg10
(I-57
I240
tp760
ssg12
(dp761
(g6
I5
tp762
(I1975
I1895
tp763
s(g6
I2
tp764
(I1988
I1900
tp765
s(g8
I4
tp766
(I2053
I2003
tp767
s(g8
I6
tp768
(I2035
I1994
tp769
s(g10
I7
tp770
(I1881
I1815
tp771
ssba(iSample
Sample
p772
(dp773
g3
F1440752580.619135
sg4
(dp774
g6
(I-61
I241
tp775
sg8
(I-62
I108
tp776
sg10
(I-57
I238
tp777
ssg12
(dp778
(g6
I5
tp779
(I2008
I1928
tp780
s(g6
I2
tp781
(I2021
I1933
tp782
s(g8
I4
tp783
(I2085
I2035
tp784
s(g8
I6
tp785
(I2067
I2026
tp786
s(g10
I7
tp787
(I1914
I1848
tp788
ssba(iSample
Sample
p789
(dp790
g3
F1440752585.10944
sg4
(dp791
g6
(I-67
I242
tp792
sg8
(I-58
I108
tp793
sg10
(I-57
I231
tp794
ssg12
(dp795
(g6
I5
tp796
(I2041
I1961
tp797
s(g6
I2
tp798
(I2054
I1964
tp799
s(g8
I4
tp800
(I2119
I2069
tp801
s(g8
I6
tp802
(I2101
I2060
tp803
s(g10
I7
tp804
(I1946
I1880
tp805
ssba(iSample
Sample
p806
(dp807
g3
F1440752589.339874
sg4
(dp808
g6
(I-62
I230
tp809
sg8
(I-63
I108
tp810
sg10
(I-56
I240
tp811
ssg12
(dp812
(g6
I5
tp813
(I2072
I1992
tp814
s(g6
I2
tp815
(I2085
I1993
tp816
s(g8
I4
tp817
(I2150
I2100
tp818
s(g8
I6
tp819
(I2132
I2091
tp820
s(g10
I7
tp821
(I1980
I1914
tp822
ssba(iSample
Sample
p823
(dp824
g3
F1440752593.995384
sg4
(dp825
g6
(I-66
I240
tp826
sg8
(I-60
I108
tp827
sg10
(I-57
I242
tp828
ssg12
(dp829
(g6
I5
tp830
(I2105
I2025
tp831
s(g6
I2
tp832
(I2118
I2025
tp833
s(g8
I4
tp834
(I2184
I2134
tp835
s(g8
I6
tp836
(I2166
I2125
tp837
s(g10
I7
tp838
(I2010
I1944
tp839
ssba(iSample
Sample
p840
(dp841
g3
F1440752598.11065
sg4
(dp842
g6
(I-67
I237
tp843
sg8
(I-58
I108
tp844
sg10
(I-56
I236
tp845
ssg12
(dp846
(g6
I5
tp847
(I2137
I2056
tp848
s(g6
I2
tp849
(I2150
I2056
tp850
s(g8
I4
tp851
(I2215
I2165
tp852
s(g8
I6
tp853
(I2197
I2156
tp854
s(g10
I7
tp855
(I2043
I1977
tp856
ssba(iSample
Sample
p857
(dp858
g3
F1440752602.472235
sg4
(dp859
g6
(I-67
I242
tp860
sg8
(I-58
I108
tp861
sg10
(I-54
I242
tp862
ssg12
(dp863
(g6
I5
tp864
(I2169
I2088
tp865
s(g6
I2
tp866
(I2182
I2088
tp867
s(g8
I4
tp868
(I2247
I2196
tp869
s(g8
I6
tp870
(I2229
I2188
tp871
s(g10
I7
tp872
(I2078
I2012
tp873
ssba(iSample
Sample
p874
(dp875
g3
F1440752607.230124
sg4
(dp876
g6
(I-59
I236
tp877
sg8
(I-60
I108
tp878
sg10
(I-56
I236
tp879
ssg12
(dp880
(g6
I5
tp881
(I2203
I2122
tp882
s(g6
I2
tp883
(I2216
I2119
tp884
s(g8
I4
tp885
(I2282
I2231
tp886
s(g8
I6
tp887
(I2264
I2223
tp888
s(g10
I7
tp889
(I2108
I2041
tp890
ssba(iSample
Sample
p891
(dp892
g3
F1440752611.270907
sg4
(dp893
g6
(I-56
I232
tp894
sg8
(I-60
I108
tp895
sg10
(I-56
I236
tp896
ssg12
(dp897
(g6
I5
tp898
(I2234
I2153
tp899
s(g6
I2
tp900
(I2247
I2150
tp901
s(g8
I4
tp902
(I2312
I2261
tp903
s(g8
I6
tp904
(I2294
I2253
tp905
s(g10
I7
tp906
(I2139
I2072
tp907
ssba(iSample
Sample
p908
(dp909
g3
F1440752615.516594
sg4
(dp910
g6
(I-56
I242
tp911
sg8
(I-59
I108
tp912
sg10
(I-56
I233
tp913
ssg12
(dp914
(g6
I5
tp915
(I2266
I2185
tp916
s(g6
I2
tp917
(I2279
I2182
tp918
s(g8
I4
tp919
(I2344
I2293
tp920
s(g8
I6
tp921
(I2326
I2285
tp922
s(g10
I7
tp923
(I2172
I2105
tp924
ssba(iSample
Sample
p925
(dp926
g3
F1440752619.962661
sg4
(dp927
g6
(I-57
I242
tp928
sg8
(I-53
I108
tp929
sg10
(I-56
I233
tp930
ssg12
(dp931
(g6
I5
tp932
(I2298
I2217
tp933
s(g6
I2
tp934
(I2311
I2214
tp935
s(g8
I4
tp936
(I2377
I2326
tp937
s(g8
I6
tp938
(I2359
I2318
tp939
s(g10
I7
tp940
(I2203
I2136
tp941
ssba(iSample
Sample
p942
(dp943
g3
F1440752624.108617
sg4
(dp944
g6
(I-62
I236
tp945
sg8
(I-58
I108
tp946
sg10
(I-57
I238
tp947
ssg12
(dp948
(g6
I5
tp949
(I2328
I2245
tp950
s(g6
I2
tp951
(I2341
I2243
tp952
s(g8
I4
tp953
(I2407
I2356
tp954
s(g8
I6
tp955
(I2389
I2348
tp956
s(g10
I7
tp957
(I2234
I2167
tp958
ssba(iSample
Sample
p959
(dp960
g3
F1440752628.301548
sg4
(dp961
g6
(I-65
I227
tp962
sg8
(I-66
I108
tp963
sg10
(I-56
I238
tp964
ssg12
(dp965
(g6
I5
tp966
(I2359
I2276
tp967
s(g6
I2
tp968
(I2372
I2274
tp969
s(g8
I4
tp970
(I2438
I2387
tp971
s(g8
I6
tp972
(I2420
I2379
tp973
s(g10
I7
tp974
(I2264
I2197
tp975
ssba(iSample
Sample
p976
(dp977
g3
F1440752632.401323
sg4
(dp978
g6
(I-64
I228
tp979
sg8
(I-60
I108
tp980
sg10
(I-60
I236
tp981
ssg12
(dp982
(g6
I5
tp983
(I2391
I2307
tp984
s(g6
I2
tp985
(I2404
I2306
tp986
s(g8
I4
tp987
(I2469
I2418
tp988
s(g8
I6
tp989
(I2451
I2410
tp990
s(g10
I7
tp991
(I2297
I2228
tp992
ssba(iSample
Sample
p993
(dp994
g3
F1440752636.814884
sg4
(dp995
g6
(I-62
I228
tp996
sg8
(I-61
I108
tp997
sg10
(I-58
I242
tp998
ssg12
(dp999
(g6
I5
tp1000
(I2425
I2341
tp1001
s(g6
I2
tp1002
(I2438
I2340
tp1003
s(g8
I4
tp1004
(I2504
I2453
tp1005
s(g8
I6
tp1006
(I2486
I2445
tp1007
s(g10
I7
tp1008
(I2331
I2261
tp1009
ssba(iSample
Sample
p1010
(dp1011
g3
F1440752641.39697
sg4
(dp1012
g6
(I-60
I241
tp1013
sg8
(I-65
I108
tp1014
sg10
(I-57
I240
tp1015
ssg12
(dp1016
(g6
I5
tp1017
(I2456
I2372
tp1018
s(g6
I2
tp1019
(I2469
I2371
tp1020
s(g8
I4
tp1021
(I2535
I2484
tp1022
s(g8
I6
tp1023
(I2517
I2476
tp1024
s(g10
I7
tp1025
(I2362
I2292
tp1026
ssba(iSample
Sample
p1027
(dp1028
g3
F1440752645.589164
sg4
(dp1029
g6
(I-65
I238
tp1030
sg8
(I-71
I108
tp1031
sg10
(I-58
I228
tp1032
ssg12
(dp1033
(g6
I5
tp1034
(I2487
I2402
tp1035
s(g6
I2
tp1036
(I2500
I2401
tp1037
s(g8
I4
tp1038
(I2566
I2515
tp1039
s(g8
I6
tp1040
(I2548
I2507
tp1041
s(g10
I7
tp1042
(I2395
I2325
tp1043
ssba(iSample
Sample
p1044
(dp1045
g3
F1440752650.058161
sg4
(dp1046
g6
(I-55
I234
tp1047
sg8
(I-62
I108
tp1048
sg10
(I-59
I240
tp1049
ssg12
(dp1050
(g6
I5
tp1051
(I2522
I2437
tp1052
s(g6
I2
tp1053
(I2535
I2435
tp1054
s(g8
I4
tp1055
(I2600
I2549
tp1056
s(g8
I6
tp1057
(I2582
I2541
tp1058
s(g10
I7
tp1059
(I2428
I2358
tp1060
ssba(iSample
Sample
p1061
(dp1062
g3
F1440752654.521484
sg4
(dp1063
g6
(I-56
I242
tp1064
sg8
(I-55
I108
tp1065
sg10
(I-62
I242
tp1066
ssg12
(dp1067
(g6
I5
tp1068
(I2555
I2470
tp1069
s(g6
I2
tp1070
(I2568
I2468
tp1071
s(g8
I4
tp1072
(I2633
I2582
tp1073
s(g8
I6
tp1074
(I2615
I2574
tp1075
s(g10
I7
tp1076
(I2460
I2390
tp1077
ssba(iSample
Sample
p1078
(dp1079
g3
F1440752658.834481
sg4
(dp1080
g6
(I-57
I240
tp1081
sg8
(I-57
I108
tp1082
sg10
(I-61
I242
tp1083
ssg12
(dp1084
(g6
I5
tp1085
(I2588
I2503
tp1086
s(g6
I2
tp1087
(I2601
I2501
tp1088
s(g8
I4
tp1089
(I2666
I2615
tp1090
s(g8
I6
tp1091
(I2648
I2607
tp1092
s(g10
I7
tp1093
(I2493
I2423
tp1094
ssba(iSample
Sample
p1095
(dp1096
g3
F1440752663.253548
sg4
(dp1097
g6
(I-58
I234
tp1098
sg8
(I-54
I108
tp1099
sg10
(I-56
I234
tp1100
ssg12
(dp1101
(g6
I5
tp1102
(I2780
I2693
tp1103
s(g6
I2
tp1104
(I2793
I2692
tp1105
s(g8
I4
tp1106
(I2697
I2646
tp1107
s(g8
I6
tp1108
(I2679
I2638
tp1109
s(g10
I7
tp1110
(I2686
I2615
tp1111
ssba(iSample
Sample
p1112
(dp1113
g3
F1440752689.336089
sg4
(dp1114
g6
(I-57
I238
tp1115
sg8
(I-58
I108
tp1116
sg10
(I-54
I227
tp1117
ssg12
(dp1118
(g6
I5
tp1119
(I2812
I2725
tp1120
s(g6
I2
tp1121
(I2825
I2723
tp1122
s(g8
I4
tp1123
(I2890
I2839
tp1124
s(g8
I6
tp1125
(I2872
I2830
tp1126
s(g10
I7
tp1127
(I2717
I2646
tp1128
ssba(iSample
Sample
p1129
(dp1130
g3
F1440752693.568555
sg4
(dp1131
g6
(I-56
I233
tp1132
sg8
(I-58
I108
tp1133
sg10
(I-57
I236
tp1134
ssg12
(dp1135
(g6
I5
tp1136
(I2843
I2756
tp1137
s(g6
I2
tp1138
(I2856
I2754
tp1139
s(g8
I4
tp1140
(I2922
I2871
tp1141
s(g8
I6
tp1142
(I2904
I2862
tp1143
s(g10
I7
tp1144
(I2748
I2677
tp1145
ssba(iSample
Sample
p1146
(dp1147
g3
F1440752697.780634
sg4
(dp1148
g6
(I-58
I233
tp1149
sg8
(I-54
I108
tp1150
sg10
(I-60
I237
tp1151
ssg12
(dp1152
(g6
I5
tp1153
(I2876
I2789
tp1154
s(g6
I2
tp1155
(I2889
I2787
tp1156
s(g8
I4
tp1157
(I2955
I2904
tp1158
s(g8
I6
tp1159
(I2937
I2895
tp1160
s(g10
I7
tp1161
(I2781
I2709
tp1162
ssba(iSample
Sample
p1163
(dp1164
g3
F1440752702.140383
sg4
(dp1165
g6
(I-55
I239
tp1166
sg8
(I-56
I107
tp1167
sg10
(I-62
I241
tp1168
ssg12
(dp1169
(g6
I5
tp1170
(I2907
I2819
tp1171
s(g6
I2
tp1172
(I2920
I2818
tp1173
s(g8
I4
tp1174
(I2985
I2934
tp1175
s(g8
I6
tp1176
(I2967
I2924
tp1177
s(g10
I7
tp1178
(I2813
I2740
tp1179
ssba(iSample
Sample
p1180
(dp1181
g3
F1440752706.561295
sg4
(dp1182
g6
(I-57
I242
tp1183
sg8
(I-60
I108
tp1184
sg10
(I-51
I233
tp1185
ssg12
(dp1186
(g6
I5
tp1187
(I2940
I2852
tp1188
s(g6
I2
tp1189
(I2953
I2851
tp1190
s(g8
I4
tp1191
(I3018
I2967
tp1192
s(g8
I6
tp1193
(I3000
I2957
tp1194
s(g10
I7
tp1195
(I2846
I2773
tp1196
ssba(iSample
Sample
p1197
(dp1198
g3
F1440752710.945987
sg4
(dp1199
g6
(I-62
I236
tp1200
sg8
(I-60
I108
tp1201
sg10
(I-58
I232
tp1202
ssg12
(dp1203
(g6
I5
tp1204
(I2974
I2886
tp1205
s(g6
I2
tp1206
(I2987
I2884
tp1207
s(g8
I4
tp1208
(I3050
I2999
tp1209
s(g8
I6
tp1210
(I3032
I2989
tp1211
s(g10
I7
tp1212
(I2880
I2807
tp1213
ssba(iSample
Sample
p1214
(dp1215
g3
F1440752715.594646
sg4
(dp1216
g6
(I-56
I229
tp1217
sg8
(I-60
I108
tp1218
sg10
(I-62
I241
tp1219
ssg12
(dp1220
(g6
I5
tp1221
(I3009
I2921
tp1222
s(g6
I2
tp1223
(I3022
I2918
tp1224
s(g8
I4
tp1225
(I3085
I3034
tp1226
s(g8
I6
tp1227
(I3067
I3024
tp1228
s(g10
I7
tp1229
(I2914
I2841
tp1230
ssba(iSample
Sample
p1231
(dp1232
g3
F1440752720.11089
sg4
(dp1233
g6
(I-54
I239
tp1234
sg8
(I-61
I108
tp1235
sg10
(I-58
I236
tp1236
ssg12
(dp1237
(g6
I5
tp1238
(I3042
I2954
tp1239
s(g6
I2
tp1240
(I3055
I2950
tp1241
s(g8
I4
tp1242
(I3118
I3067
tp1243
s(g8
I6
tp1244
(I3100
I3057
tp1245
s(g10
I7
tp1246
(I2948
I2875
tp1247
ssba(iSample
Sample
p1248
(dp1249
g3
F1440752724.737771
sg4
(dp1250
g6
(I-57
I242
tp1251
sg8
(I-58
I108
tp1252
sg10
(I-53
I239
tp1253
ssg12
(dp1254
(g6
I5
tp1255
(I3075
I2987
tp1256
s(g6
I2
tp1257
(I3088
I2983
tp1258
s(g8
I4
tp1259
(I3153
I3102
tp1260
s(g8
I6
tp1261
(I3135
I3092
tp1262
s(g10
I7
tp1263
(I2981
I2908
tp1264
ssba(iSample
Sample
p1265
(dp1266
g3
F1440752729.165317
sg4
(dp1267
g6
(I-58
I234
tp1268
sg8
(I-58
I108
tp1269
sg10
(I-53
I236
tp1270
ssg12
(dp1271
(g6
I5
tp1272
(I3107
I3019
tp1273
s(g6
I2
tp1274
(I3120
I3014
tp1275
s(g8
I4
tp1276
(I3185
I3134
tp1277
s(g8
I6
tp1278
(I3167
I3124
tp1279
s(g10
I7
tp1280
(I3013
I2940
tp1281
ssba(iSample
Sample
p1282
(dp1283
g3
F1440752733.495063
sg4
(dp1284
g6
(I-57
I242
tp1285
sg8
(I-60
I108
tp1286
sg10
(I-55
I233
tp1287
ssg12
(dp1288
(g6
I5
tp1289
(I3139
I3051
tp1290
s(g6
I2
tp1291
(I3152
I3046
tp1292
s(g8
I4
tp1293
(I3217
I3166
tp1294
s(g8
I6
tp1295
(I3199
I3156
tp1296
s(g10
I7
tp1297
(I3044
I2971
tp1298
ssba(iSample
Sample
p1299
(dp1300
g3
F1440752737.752849
sg4
(dp1301
g6
(I-54
I239
tp1302
sg8
(I-57
I108
tp1303
sg10
(I-55
I242
tp1304
ssg12
(dp1305
(g6
I5
tp1306
(I3172
I3084
tp1307
s(g6
I2
tp1308
(I3185
I3078
tp1309
s(g8
I4
tp1310
(I3250
I3199
tp1311
s(g8
I6
tp1312
(I3232
I3189
tp1313
s(g10
I7
tp1314
(I3077
I3004
tp1315
ssba(iSample
Sample
p1316
(dp1317
g3
F1440752742.127279
sg4
(dp1318
g6
(I-55
I237
tp1319
sg8
(I-61
I108
tp1320
sg10
(I-54
I236
tp1321
ssg12
(dp1322
(g6
I5
tp1323
(I3206
I3118
tp1324
s(g6
I2
tp1325
(I3219
I3112
tp1326
s(g8
I4
tp1327
(I3281
I3230
tp1328
s(g8
I6
tp1329
(I3263
I3219
tp1330
s(g10
I7
tp1331
(I3112
I3039
tp1332
ssba(iSample
Sample
p1333
(dp1334
g3
F1440752746.864842
sg4
(dp1335
g6
(I-58
I230
tp1336
sg8
(I-70
I108
tp1337
sg10
(I-60
I240
tp1338
ssg12
(dp1339
(g6
I5
tp1340
(I3238
I3150
tp1341
s(g6
I2
tp1342
(I3251
I3144
tp1343
s(g8
I4
tp1344
(I3317
I3266
tp1345
s(g8
I6
tp1346
(I3299
I3255
tp1347
s(g10
I7
tp1348
(I3143
I3070
tp1349
ssba(iSample
Sample
p1350
(dp1351
g3
F1440752751.153938
sg4
(dp1352
g6
(I-56
I241
tp1353
sg8
(I-63
I107
tp1354
sg10
(I-61
I242
tp1355
ssg12
(dp1356
(g6
I5
tp1357
(I3269
I3180
tp1358
s(g6
I2
tp1359
(I3282
I3175
tp1360
s(g8
I4
tp1361
(I3348
I3297
tp1362
s(g8
I6
tp1363
(I3330
I3286
tp1364
s(g10
I7
tp1365
(I3174
I3100
tp1366
ssba(iSample
Sample
p1367
(dp1368
g3
F1440752755.241487
sg4
(dp1369
g6
(I-61
I241
tp1370
sg8
(I-71
I107
tp1371
sg10
(I-60
I242
tp1372
ssg12
(dp1373
(g6
I5
tp1374
(I3302
I3213
tp1375
s(g6
I2
tp1376
(I3315
I3208
tp1377
s(g8
I4
tp1378
(I3378
I3327
tp1379
s(g8
I6
tp1380
(I3360
I3316
tp1381
s(g10
I7
tp1382
(I3208
I3133
tp1383
ssba(iSample
Sample
p1384
(dp1385
g3
F1440752759.896461
sg4
(dp1386
g6
(I-55
I242
tp1387
sg8
(I-71
I108
tp1388
sg10
(I-57
I241
tp1389
ssg12
(dp1390
(g6
I5
tp1391
(I3335
I3246
tp1392
s(g6
I2
tp1393
(I3348
I3241
tp1394
s(g8
I4
tp1395
(I3413
I3361
tp1396
s(g8
I6
tp1397
(I3395
I3351
tp1398
s(g10
I7
tp1399
(I3241
I3165
tp1400
ssba(iSample
Sample
p1401
(dp1402
g3
F1440752764.335597
sg4
(dp1403
g6
(I-58
I234
tp1404
sg8
(I-64
I108
tp1405
sg10
(I-54
I234
tp1406
ssg12
(dp1407
(g6
I5
tp1408
(I3367
I3278
tp1409
s(g6
I2
tp1410
(I3380
I3272
tp1411
s(g8
I4
tp1412
(I3446
I3394
tp1413
s(g8
I6
tp1414
(I3428
I3384
tp1415
s(g10
I7
tp1416
(I3272
I3195
tp1417
ssba(iSample
Sample
p1418
(dp1419
g3
F1440752768.476293
sg4
(dp1420
g6
(I-57
I242
tp1421
sg8
(I-58
I108
tp1422
sg10
(I-60
I230
tp1423
ssg12
(dp1424
(g6
I5
tp1425
(I3401
I3310
tp1426
s(g6
I2
tp1427
(I3414
I3306
tp1428
s(g8
I4
tp1429
(I3479
I3427
tp1430
s(g8
I6
tp1431
(I3461
I3417
tp1432
s(g10
I7
tp1433
(I3306
I3228
tp1434
ssba(iSample
Sample
p1435
(dp1436
g3
F1440752773.121665
sg4
(dp1437
g6
(I-55
I235
tp1438
sg8
(I-61
I108
tp1439
sg10
(I-55
I236
tp1440
ssg12
(dp1441
(g6
I5
tp1442
(I3433
I3342
tp1443
s(g6
I2
tp1444
(I3446
I3338
tp1445
s(g8
I4
tp1446
(I3511
I3459
tp1447
s(g8
I6
tp1448
(I3493
I3449
tp1449
s(g10
I7
tp1450
(I3339
I3260
tp1451
ssba(iSample
Sample
p1452
(dp1453
g3
F1440752777.593758
sg4
(dp1454
g6
(I-54
I236
tp1455
sg8
(I-60
I108
tp1456
sg10
(I-59
I242
tp1457
ssg12
(dp1458
(g6
I5
tp1459
(I3466
I3375
tp1460
s(g6
I2
tp1461
(I3479
I3370
tp1462
s(g8
I4
tp1463
(I3544
I3492
tp1464
s(g8
I6
tp1465
(I3526
I3482
tp1466
s(g10
I7
tp1467
(I3372
I3292
tp1468
ssba(iSample
Sample
p1469
(dp1470
g3
F1440752781.993648
sg4
(dp1471
g6
(I-54
I242
tp1472
sg8
(I-56
I108
tp1473
sg10
(I-58
I235
tp1474
ssg12
(dp1475
(g6
I5
tp1476
(I3499
I3408
tp1477
s(g6
I2
tp1478
(I3512
I3402
tp1479
s(g8
I4
tp1480
(I3577
I3525
tp1481
s(g8
I6
tp1482
(I3559
I3515
tp1483
s(g10
I7
tp1484
(I3405
I3325
tp1485
ssba(iSample
Sample
p1486
(dp1487
g3
F1440752786.487891
sg4
(dp1488
g6
(I-61
I239
tp1489
sg8
(I-64
I108
tp1490
sg10
(I-58
I240
tp1491
ssg12
(dp1492
(g6
I5
tp1493
(I3532
I3441
tp1494
s(g6
I2
tp1495
(I3545
I3435
tp1496
s(g8
I4
tp1497
(I3610
I3558
tp1498
s(g8
I6
tp1499
(I3592
I3547
tp1500
s(g10
I7
tp1501
(I3438
I3358
tp1502
ssba(iSample
Sample
p1503
(dp1504
g3
F1440752791.007922
sg4
(dp1505
g6
(I-55
I242
tp1506
sg8
(I-56
I108
tp1507
sg10
(I-58
I241
tp1508
ssg12
(dp1509
(g6
I5
tp1510
(I3566
I3475
tp1511
s(g6
I2
tp1512
(I3579
I3468
tp1513
s(g8
I4
tp1514
(I3643
I3591
tp1515
s(g8
I6
tp1516
(I3625
I3579
tp1517
s(g10
I7
tp1518
(I3471
I3391
tp1519
ssba(iSample
Sample
p1520
(dp1521
g3
F1440752795.40294
sg4
(dp1522
g6
(I-61
I239
tp1523
sg8
(I-64
I108
tp1524
sg10
(I-59
I242
tp1525
ssg12
(dp1526
(g6
I5
tp1527
(I3597
I3505
tp1528
s(g6
I2
tp1529
(I3610
I3499
tp1530
s(g8
I4
tp1531
(I3676
I3624
tp1532
s(g8
I6
tp1533
(I3658
I3612
tp1534
s(g10
I7
tp1535
(I3502
I3422
tp1536
ssba.