(lp0
(iSample
Sample
p1
(dp2
S'timeStamp'
p3
F1440429410.39165
sS'moteData'
p4
(dp5
(S'8031'
p6
I5
tp7
(I21902
I20657
tp8
s(S'8054'
p9
I7
tp10
(I21870
I21416
tp11
s(g9
I4
tp12
(I21881
I21449
tp13
s(S'85d2'
p14
I6
tp15
(I21826
I21383
tp16
s(g14
I8
tp17
(I21764
I21326
tp18
s(g6
I2
tp19
(I21887
I20653
tp20
ssba(iSample
Sample
p21
(dp22
g3
F1440429413.569079
sg4
(dp23
(g6
I5
tp24
(I21926
I20681
tp25
s(g9
I7
tp26
(I21894
I21440
tp27
s(g9
I4
tp28
(I21905
I21473
tp29
s(g14
I6
tp30
(I21850
I21407
tp31
s(g14
I8
tp32
(I21788
I21350
tp33
s(g6
I2
tp34
(I21911
I20677
tp35
ssba(iSample
Sample
p36
(dp37
g3
F1440429416.730496
sg4
(dp38
(g6
I5
tp39
(I21949
I20704
tp40
s(g9
I7
tp41
(I21919
I21465
tp42
s(g9
I4
tp43
(I21930
I21498
tp44
s(g14
I6
tp45
(I21875
I21432
tp46
s(g14
I8
tp47
(I21813
I21375
tp48
s(g6
I2
tp49
(I21934
I20700
tp50
ssba(iSample
Sample
p51
(dp52
g3
F1440429420.143452
sg4
(dp53
(g6
I5
tp54
(I21975
I20730
tp55
s(g9
I7
tp56
(I21943
I21489
tp57
s(g9
I4
tp58
(I21954
I21522
tp59
s(g14
I6
tp60
(I21899
I21456
tp61
s(g14
I8
tp62
(I21837
I21399
tp63
s(g6
I2
tp64
(I21960
I20726
tp65
ssba(iSample
Sample
p66
(dp67
g3
F1440429423.340154
sg4
(dp68
(g6
I5
tp69
(I21998
I20753
tp70
s(g9
I7
tp71
(I21966
I21512
tp72
s(g9
I4
tp73
(I21977
I21545
tp74
s(g14
I6
tp75
(I21922
I21478
tp76
s(g14
I8
tp77
(I21860
I21422
tp78
s(g6
I2
tp79
(I21983
I20748
tp80
ssba(iSample
Sample
p81
(dp82
g3
F1440429426.491871
sg4
(dp83
(g6
I5
tp84
(I22023
I20778
tp85
s(g9
I7
tp86
(I21992
I21538
tp87
s(g9
I4
tp88
(I22003
I21571
tp89
s(g14
I6
tp90
(I21947
I21503
tp91
s(g14
I8
tp92
(I21885
I21447
tp93
s(g6
I2
tp94
(I22008
I20773
tp95
ssba(iSample
Sample
p96
(dp97
g3
F1440429430.016698
sg4
(dp98
(g6
I5
tp99
(I22048
I20803
tp100
s(g9
I7
tp101
(I22019
I21564
tp102
s(g9
I4
tp103
(I22030
I21598
tp104
s(g14
I6
tp105
(I21975
I21531
tp106
s(g14
I8
tp107
(I21913
I21475
tp108
s(g6
I2
tp109
(I22033
I20798
tp110
ssba(iSample
Sample
p111
(dp112
g3
F1440429433.570442
sg4
(dp113
(g6
I5
tp114
(I22074
I20829
tp115
s(g9
I7
tp116
(I22042
I21587
tp117
s(g9
I4
tp118
(I22053
I21620
tp119
s(g14
I6
tp120
(I21998
I21554
tp121
s(g14
I8
tp122
(I21936
I21498
tp123
s(g6
I2
tp124
(I22059
I20824
tp125
ssba(iSample
Sample
p126
(dp127
g3
F1440429436.738609
sg4
(dp128
(g6
I5
tp129
(I22098
I20853
tp130
s(g9
I7
tp131
(I22066
I21611
tp132
s(g9
I4
tp133
(I22077
I21644
tp134
s(g14
I6
tp135
(I22022
I21578
tp136
s(g14
I8
tp137
(I21960
I21522
tp138
s(g6
I2
tp139
(I22083
I20848
tp140
ssba(iSample
Sample
p141
(dp142
g3
F1440429439.941116
sg4
(dp143
(g6
I5
tp144
(I22124
I20879
tp145
s(g9
I7
tp146
(I22092
I21636
tp147
s(g9
I4
tp148
(I22103
I21669
tp149
s(g14
I6
tp150
(I22048
I21604
tp151
s(g14
I8
tp152
(I21986
I21548
tp153
s(g6
I2
tp154
(I22109
I20874
tp155
ssba(iSample
Sample
p156
(dp157
g3
F1440429443.501098
sg4
(dp158
(g6
I5
tp159
(I22148
I20903
tp160
s(g9
I7
tp161
(I22116
I21660
tp162
s(g9
I4
tp163
(I22127
I21692
tp164
s(g14
I6
tp165
(I22072
I21628
tp166
s(g14
I8
tp167
(I22010
I21572
tp168
s(g6
I2
tp169
(I22133
I20898
tp170
ssba(iSample
Sample
p171
(dp172
g3
F1440429446.74048
sg4
(dp173
(g6
I5
tp174
(I22172
I20927
tp175
s(g9
I7
tp176
(I22140
I21684
tp177
s(g9
I4
tp178
(I22151
I21716
tp179
s(g14
I6
tp180
(I22096
I21652
tp181
s(g14
I8
tp182
(I22034
I21596
tp183
s(g6
I2
tp184
(I22157
I20922
tp185
ssba(iSample
Sample
p186
(dp187
g3
F1440429450.023022
sg4
(dp188
(g6
I5
tp189
(I22198
I20953
tp190
s(g9
I7
tp191
(I22166
I21710
tp192
s(g9
I4
tp193
(I22177
I21742
tp194
s(g14
I6
tp195
(I22122
I21678
tp196
s(g14
I8
tp197
(I22060
I21622
tp198
s(g6
I2
tp199
(I22183
I20948
tp200
ssba(iSample
Sample
p201
(dp202
g3
F1440429453.437847
sg4
(dp203
(g6
I5
tp204
(I22221
I20976
tp205
s(g9
I7
tp206
(I22189
I21733
tp207
s(g9
I4
tp208
(I22200
I21765
tp209
s(g14
I6
tp210
(I22145
I21700
tp211
s(g14
I8
tp212
(I22083
I21645
tp213
s(g6
I2
tp214
(I22206
I20971
tp215
ssba(iSample
Sample
p216
(dp217
g3
F1440429456.560884
sg4
(dp218
(g6
I5
tp219
(I22245
I21000
tp220
s(g9
I7
tp221
(I22214
I21757
tp222
s(g9
I4
tp223
(I22225
I21790
tp224
s(g14
I6
tp225
(I22170
I21725
tp226
s(g14
I8
tp227
(I22108
I21670
tp228
s(g6
I2
tp229
(I22230
I20995
tp230
ssba(iSample
Sample
p231
(dp232
g3
F1440429459.937142
sg4
(dp233
(g6
I5
tp234
(I22269
I21024
tp235
s(g9
I7
tp236
(I22240
I21783
tp237
s(g9
I4
tp238
(I22251
I21816
tp239
s(g14
I6
tp240
(I22196
I21750
tp241
s(g14
I8
tp242
(I22134
I21696
tp243
s(g6
I2
tp244
(I22254
I21019
tp245
ssba(iSample
Sample
p246
(dp247
g3
F1440429463.475344
sg4
(dp248
(g6
I5
tp249
(I22296
I21051
tp250
s(g9
I7
tp251
(I22264
I21807
tp252
s(g9
I4
tp253
(I22275
I21840
tp254
s(g14
I6
tp255
(I22220
I21774
tp256
s(g14
I8
tp257
(I22158
I21720
tp258
s(g6
I2
tp259
(I22281
I21046
tp260
ssba(iSample
Sample
p261
(dp262
g3
F1440429466.677578
sg4
(dp263
(g6
I5
tp264
(I22319
I21074
tp265
s(g9
I7
tp266
(I22290
I21833
tp267
s(g9
I4
tp268
(I22301
I21866
tp269
s(g14
I6
tp270
(I22246
I21800
tp271
s(g14
I8
tp272
(I22184
I21746
tp273
s(g6
I2
tp274
(I22304
I21069
tp275
ssba(iSample
Sample
p276
(dp277
g3
F1440429470.185487
sg4
(dp278
(g6
I5
tp279
(I22345
I21100
tp280
s(g9
I7
tp281
(I22315
I21858
tp282
s(g9
I4
tp283
(I22326
I21891
tp284
s(g14
I6
tp285
(I22271
I21825
tp286
s(g14
I8
tp287
(I22209
I21770
tp288
s(g6
I2
tp289
(I22330
I21095
tp290
ssba(iSample
Sample
p291
(dp292
g3
F1440429473.547576
sg4
(dp293
(g6
I5
tp294
(I22370
I21124
tp295
s(g9
I7
tp296
(I22338
I21879
tp297
s(g9
I4
tp298
(I22349
I21914
tp299
s(g14
I6
tp300
(I22294
I21848
tp301
s(g14
I8
tp302
(I22232
I21793
tp303
s(g6
I2
tp304
(I22355
I21120
tp305
ssba(iSample
Sample
p306
(dp307
g3
F1440429476.712032
sg4
(dp308
(g6
I5
tp309
(I22394
I21148
tp310
s(g9
I7
tp311
(I22362
I21903
tp312
s(g9
I4
tp313
(I22373
I21938
tp314
s(g14
I6
tp315
(I22318
I21872
tp316
s(g14
I8
tp317
(I22256
I21817
tp318
s(g6
I2
tp319
(I22379
I21144
tp320
ssba(iSample
Sample
p321
(dp322
g3
F1440429479.933868
sg4
(dp323
(g6
I5
tp324
(I22417
I21171
tp325
s(g9
I7
tp326
(I22387
I21927
tp327
s(g9
I4
tp328
(I22398
I21963
tp329
s(g14
I6
tp330
(I22341
I21894
tp331
s(g14
I8
tp332
(I22279
I21840
tp333
s(g6
I2
tp334
(I22402
I21167
tp335
ssba(iSample
Sample
p336
(dp337
g3
F1440429483.308272
sg4
(dp338
(g6
I5
tp339
(I22442
I21196
tp340
s(g9
I7
tp341
(I22410
I21949
tp342
s(g9
I4
tp343
(I22421
I21986
tp344
s(g14
I6
tp345
(I22366
I21919
tp346
s(g14
I8
tp347
(I22304
I21865
tp348
s(g6
I2
tp349
(I22427
I21192
tp350
ssba(iSample
Sample
p351
(dp352
g3
F1440429486.495645
sg4
(dp353
(g6
I5
tp354
(I22645
I21398
tp355
s(g9
I7
tp356
(I22615
I22151
tp357
s(g9
I4
tp358
(I22626
I22187
tp359
s(g14
I6
tp360
(I22571
I22122
tp361
s(g14
I8
tp362
(I22509
I22067
tp363
s(g6
I2
tp364
(I22630
I21394
tp365
ssba(iSample
Sample
p366
(dp367
g3
F1440429514.063786
sg4
(dp368
(g6
I5
tp369
(I22670
I21423
tp370
s(g9
I7
tp371
(I22638
I22174
tp372
s(g9
I4
tp373
(I22649
I22210
tp374
s(g14
I6
tp375
(I22594
I22145
tp376
s(g14
I8
tp377
(I22532
I22090
tp378
s(g6
I2
tp379
(I22655
I21419
tp380
ssba(iSample
Sample
p381
(dp382
g3
F1440429517.218297
sg4
(dp383
(g6
I5
tp384
(I22693
I21446
tp385
s(g9
I7
tp386
(I22663
I22198
tp387
s(g9
I4
tp388
(I22674
I22235
tp389
s(g14
I6
tp390
(I22617
I22168
tp391
s(g14
I8
tp392
(I22555
I22113
tp393
s(g6
I2
tp394
(I22678
I21442
tp395
ssba(iSample
Sample
p396
(dp397
g3
F1440429520.604993
sg4
(dp398
(g6
I5
tp399
(I22719
I21472
tp400
s(g9
I7
tp401
(I22687
I22222
tp402
s(g9
I4
tp403
(I22698
I22258
tp404
s(g14
I6
tp405
(I22643
I22193
tp406
s(g14
I8
tp407
(I22581
I22139
tp408
s(g6
I2
tp409
(I22704
I21468
tp410
ssba(iSample
Sample
p411
(dp412
g3
F1440429523.844615
sg4
(dp413
(g6
I5
tp414
(I22746
I21499
tp415
s(g9
I7
tp416
(I22714
I22249
tp417
s(g9
I4
tp418
(I22725
I22285
tp419
s(g14
I6
tp420
(I22670
I22219
tp421
s(g14
I8
tp422
(I22608
I22166
tp423
s(g6
I2
tp424
(I22731
I21494
tp425
ssba(iSample
Sample
p426
(dp427
g3
F1440429527.518998
sg4
(dp428
(g6
I5
tp429
(I22770
I21523
tp430
s(g9
I7
tp431
(I22738
I22273
tp432
s(g9
I4
tp433
(I22749
I22309
tp434
s(g14
I6
tp435
(I22694
I22243
tp436
s(g14
I8
tp437
(I22632
I22190
tp438
s(g6
I2
tp439
(I22755
I21518
tp440
ssba(iSample
Sample
p441
(dp442
g3
F1440429530.733921
sg4
(dp443
(g6
I5
tp444
(I22794
I21547
tp445
s(g9
I7
tp446
(I22762
I22296
tp447
s(g9
I4
tp448
(I22773
I22332
tp449
s(g14
I6
tp450
(I22718
I22267
tp451
s(g14
I8
tp452
(I22656
I22214
tp453
s(g6
I2
tp454
(I22779
I21542
tp455
ssba(iSample
Sample
p456
(dp457
g3
F1440429533.990611
sg4
(dp458
(g6
I5
tp459
(I22819
I21572
tp460
s(g9
I7
tp461
(I22787
I22321
tp462
s(g9
I4
tp463
(I22798
I22357
tp464
s(g14
I6
tp465
(I22743
I22292
tp466
s(g14
I8
tp467
(I22681
I22239
tp468
s(g6
I2
tp469
(I22804
I21567
tp470
ssba(iSample
Sample
p471
(dp472
g3
F1440429537.362249
sg4
(dp473
(g6
I5
tp474
(I22843
I21596
tp475
s(g9
I7
tp476
(I22811
I22345
tp477
s(g9
I4
tp478
(I22822
I22380
tp479
s(g14
I6
tp480
(I22767
I22316
tp481
s(g14
I8
tp482
(I22705
I22263
tp483
s(g6
I2
tp484
(I22828
I21591
tp485
ssba(iSample
Sample
p486
(dp487
g3
F1440429540.630652
sg4
(dp488
(g6
I5
tp489
(I22867
I21620
tp490
s(g9
I7
tp491
(I22835
I22369
tp492
s(g9
I4
tp493
(I22846
I22404
tp494
s(g14
I6
tp495
(I22791
I22340
tp496
s(g14
I8
tp497
(I22729
I22287
tp498
s(g6
I2
tp499
(I22852
I21615
tp500
ssba(iSample
Sample
p501
(dp502
g3
F1440429543.8352
sg4
(dp503
(g6
I5
tp504
(I22893
I21646
tp505
s(g9
I7
tp506
(I22861
I22393
tp507
s(g9
I4
tp508
(I22872
I22430
tp509
s(g14
I6
tp510
(I22817
I22365
tp511
s(g14
I8
tp512
(I22755
I22312
tp513
s(g6
I2
tp514
(I22878
I21641
tp515
ssba(iSample
Sample
p516
(dp517
g3
F1440429547.329245
sg4
(dp518
(g6
I5
tp519
(I22917
I21669
tp520
s(g9
I7
tp521
(I22885
I22417
tp522
s(g9
I4
tp523
(I22896
I22454
tp524
s(g14
I6
tp525
(I22841
I22389
tp526
s(g14
I8
tp527
(I22779
I22336
tp528
s(g6
I2
tp529
(I22902
I21665
tp530
ssba(iSample
Sample
p531
(dp532
g3
F1440429550.589942
sg4
(dp533
(g6
I5
tp534
(I22941
I21693
tp535
s(g9
I7
tp536
(I22909
I22440
tp537
s(g9
I4
tp538
(I22920
I22477
tp539
s(g14
I6
tp540
(I22865
I22413
tp541
s(g14
I8
tp542
(I22803
I22360
tp543
s(g6
I2
tp544
(I22926
I21689
tp545
ssba(iSample
Sample
p546
(dp547
g3
F1440429553.861004
sg4
(dp548
(g6
I5
tp549
(I22965
I21717
tp550
s(g9
I7
tp551
(I22933
I22463
tp552
s(g9
I4
tp553
(I22944
I22501
tp554
s(g14
I6
tp555
(I22889
I22436
tp556
s(g14
I8
tp557
(I22827
I22384
tp558
s(g6
I2
tp559
(I22950
I21712
tp560
ssba(iSample
Sample
p561
(dp562
g3
F1440429557.074018
sg4
(dp563
(g6
I5
tp564
(I22990
I21741
tp565
s(g9
I7
tp566
(I22958
I22488
tp567
s(g9
I4
tp568
(I22969
I22526
tp569
s(g14
I6
tp570
(I22914
I22460
tp571
s(g14
I8
tp572
(I22852
I22409
tp573
s(g6
I2
tp574
(I22975
I21737
tp575
ssba(iSample
Sample
p576
(dp577
g3
F1440429560.419129
sg4
(dp578
(g6
I5
tp579
(I23013
I21764
tp580
s(g9
I7
tp581
(I22981
I22511
tp582
s(g9
I4
tp583
(I22992
I22549
tp584
s(g14
I6
tp585
(I22937
I22483
tp586
s(g14
I8
tp587
(I22875
I22432
tp588
s(g6
I2
tp589
(I22998
I21760
tp590
ssba(iSample
Sample
p591
(dp592
g3
F1440429563.586954
sg4
(dp593
(g6
I5
tp594
(I23037
I21788
tp595
s(g9
I7
tp596
(I23005
I22535
tp597
s(g9
I4
tp598
(I23016
I22570
tp599
s(g14
I6
tp600
(I22961
I22507
tp601
s(g14
I8
tp602
(I22899
I22456
tp603
s(g6
I2
tp604
(I23022
I21784
tp605
ssba(iSample
Sample
p606
(dp607
g3
F1440429566.800871
sg4
(dp608
(g6
I5
tp609
(I23061
I21812
tp610
s(g9
I7
tp611
(I23030
I22559
tp612
s(g9
I4
tp613
(I23041
I22595
tp614
s(g14
I6
tp615
(I22986
I22532
tp616
s(g14
I8
tp617
(I22924
I22481
tp618
s(g6
I2
tp619
(I23046
I21808
tp620
ssba(iSample
Sample
p621
(dp622
g3
F1440429570.159339
sg4
(dp623
(g6
I5
tp624
(I23085
I21836
tp625
s(g9
I7
tp626
(I23053
I22582
tp627
s(g9
I4
tp628
(I23064
I22618
tp629
s(g14
I6
tp630
(I23009
I22554
tp631
s(g14
I8
tp632
(I22947
I22504
tp633
s(g6
I2
tp634
(I23070
I21831
tp635
ssba(iSample
Sample
p636
(dp637
g3
F1440429573.255209
sg4
(dp638
(g6
I5
tp639
(I23108
I21859
tp640
s(g9
I7
tp641
(I23076
I22605
tp642
s(g9
I4
tp643
(I23087
I22640
tp644
s(g14
I6
tp645
(I23032
I22577
tp646
s(g14
I8
tp647
(I22970
I22527
tp648
s(g6
I2
tp649
(I23093
I21853
tp650
ssba(iSample
Sample
p651
(dp652
g3
F1440429576.407584
sg4
(dp653
(g6
I5
tp654
(I23132
I21883
tp655
s(g9
I7
tp656
(I23100
I22629
tp657
s(g9
I4
tp658
(I23111
I22664
tp659
s(g14
I6
tp660
(I23056
I22601
tp661
s(g14
I8
tp662
(I22994
I22551
tp663
s(g6
I2
tp664
(I23117
I21877
tp665
ssba(iSample
Sample
p666
(dp667
g3
F1440429579.624626
sg4
(dp668
(g6
I5
tp669
(I23156
I21907
tp670
s(g9
I7
tp671
(I23127
I22656
tp672
s(g9
I4
tp673
(I23138
I22691
tp674
s(g14
I6
tp675
(I23080
I22624
tp676
s(g14
I8
tp677
(I23018
I22575
tp678
s(g6
I2
tp679
(I23141
I21901
tp680
ssba(iSample
Sample
p681
(dp682
g3
F1440429583.269298
sg4
(dp683
(g6
I5
tp684
(I23183
I21934
tp685
s(g9
I7
tp686
(I23151
I22680
tp687
s(g9
I4
tp688
(I23162
I22715
tp689
s(g14
I6
tp690
(I23107
I22651
tp691
s(g14
I8
tp692
(I23045
I22602
tp693
s(g6
I2
tp694
(I23168
I21927
tp695
ssba(iSample
Sample
p696
(dp697
g3
F1440429586.506826
sg4
(dp698
(g6
I5
tp699
(I23207
I21957
tp700
s(g9
I7
tp701
(I23175
I22703
tp702
s(g9
I4
tp703
(I23186
I22739
tp704
s(g14
I6
tp705
(I23131
I22674
tp706
s(g14
I8
tp707
(I23069
I22625
tp708
s(g6
I2
tp709
(I23192
I21951
tp710
ssba(iSample
Sample
p711
(dp712
g3
F1440429589.763186
sg4
(dp713
(g6
I5
tp714
(I23231
I21981
tp715
s(g9
I7
tp716
(I23199
I22727
tp717
s(g9
I4
tp718
(I23210
I22762
tp719
s(g14
I6
tp720
(I23155
I22698
tp721
s(g14
I8
tp722
(I23093
I22649
tp723
s(g6
I2
tp724
(I23216
I21975
tp725
ssba(iSample
Sample
p726
(dp727
g3
F1440429593.016851
sg4
(dp728
(g6
I5
tp729
(I23255
I22005
tp730
s(g9
I7
tp731
(I23223
I22751
tp732
s(g9
I4
tp733
(I23234
I22786
tp734
s(g14
I6
tp735
(I23179
I22722
tp736
s(g14
I8
tp737
(I23117
I22673
tp738
s(g6
I2
tp739
(I23240
I21999
tp740
ssba(iSample
Sample
p741
(dp742
g3
F1440429596.215096
sg4
(dp743
(g6
I5
tp744
(I23278
I22028
tp745
s(g9
I7
tp746
(I23246
I22774
tp747
s(g9
I4
tp748
(I23257
I22809
tp749
s(g14
I6
tp750
(I23202
I22745
tp751
s(g14
I8
tp752
(I23140
I22696
tp753
s(g6
I2
tp754
(I23263
I22022
tp755
ssba(iSample
Sample
p756
(dp757
g3
F1440429599.384284
sg4
(dp758
(g6
I5
tp759
(I23302
I22052
tp760
s(g9
I7
tp761
(I23270
I22798
tp762
s(g9
I4
tp763
(I23281
I22833
tp764
s(g14
I6
tp765
(I23226
I22769
tp766
s(g14
I8
tp767
(I23164
I22720
tp768
s(g6
I2
tp769
(I23287
I22046
tp770
ssba(iSample
Sample
p771
(dp772
g3
F1440429602.583661
sg4
(dp773
(g6
I5
tp774
(I23329
I22079
tp775
s(g9
I7
tp776
(I23298
I22826
tp777
s(g9
I4
tp778
(I23309
I22861
tp779
s(g14
I6
tp780
(I23253
I22796
tp781
s(g14
I8
tp782
(I23191
I22746
tp783
s(g6
I2
tp784
(I23314
I22073
tp785
ssba(iSample
Sample
p786
(dp787
g3
F1440429606.397247
sg4
(dp788
(g6
I5
tp789
(I23354
I22104
tp790
s(g9
I7
tp791
(I23325
I22853
tp792
s(g9
I4
tp793
(I23336
I22887
tp794
s(g14
I6
tp795
(I23281
I22824
tp796
s(g14
I8
tp797
(I23219
I22774
tp798
s(g6
I2
tp799
(I23339
I22098
tp800
ssba(iSample
Sample
p801
(dp802
g3
F1440429609.951235
sg4
(dp803
(g6
I5
tp804
(I23380
I22129
tp805
s(g9
I7
tp806
(I23348
I22875
tp807
s(g9
I4
tp808
(I23359
I22910
tp809
s(g14
I6
tp810
(I23304
I22847
tp811
s(g14
I8
tp812
(I23242
I22796
tp813
s(g6
I2
tp814
(I23365
I22124
tp815
ssba(iSample
Sample
p816
(dp817
g3
F1440429613.092349
sg4
(dp818
(g6
I5
tp819
(I23403
I22152
tp820
s(g9
I7
tp821
(I23371
I22898
tp822
s(g9
I4
tp823
(I23382
I22932
tp824
s(g14
I6
tp825
(I23327
I22870
tp826
s(g14
I8
tp827
(I23265
I22819
tp828
s(g6
I2
tp829
(I23388
I22146
tp830
ssba(iSample
Sample
p831
(dp832
g3
F1440429616.206176
sg4
(dp833
(g6
I5
tp834
(I23427
I22176
tp835
s(g9
I7
tp836
(I23395
I22922
tp837
s(g9
I4
tp838
(I23406
I22956
tp839
s(g14
I6
tp840
(I23351
I22893
tp841
s(g14
I8
tp842
(I23289
I22843
tp843
s(g6
I2
tp844
(I23412
I22170
tp845
ssba(iSample
Sample
p846
(dp847
g3
F1440429619.452026
sg4
(dp848
(g6
I5
tp849
(I23450
I22199
tp850
s(g9
I7
tp851
(I23418
I22945
tp852
s(g9
I4
tp853
(I23429
I22977
tp854
s(g14
I6
tp855
(I23374
I22916
tp856
s(g14
I8
tp857
(I23312
I22865
tp858
s(g6
I2
tp859
(I23435
I22193
tp860
ssba(iSample
Sample
p861
(dp862
g3
F1440429622.548173
sg4
(dp863
(g6
I5
tp864
(I23473
I22222
tp865
s(g9
I7
tp866
(I23443
I22969
tp867
s(g9
I4
tp868
(I23454
I23002
tp869
s(g14
I6
tp870
(I23399
I22941
tp871
s(g14
I8
tp872
(I23337
I22890
tp873
s(g6
I2
tp874
(I23458
I22216
tp875
ssba(iSample
Sample
p876
(dp877
g3
F1440429625.919632
sg4
(dp878
(g6
I5
tp879
(I23498
I22247
tp880
s(g9
I7
tp881
(I23466
I22992
tp882
s(g9
I4
tp883
(I23477
I23025
tp884
s(g14
I6
tp885
(I23422
I22964
tp886
s(g14
I8
tp887
(I23360
I22912
tp888
s(g6
I2
tp889
(I23483
I22241
tp890
ssba(iSample
Sample
p891
(dp892
g3
F1440429629.023522
sg4
(dp893
(g6
I5
tp894
(I23521
I22270
tp895
s(g9
I7
tp896
(I23489
I23014
tp897
s(g9
I4
tp898
(I23500
I23048
tp899
s(g14
I6
tp900
(I23445
I22987
tp901
s(g14
I8
tp902
(I23383
I22935
tp903
s(g6
I2
tp904
(I23506
I22263
tp905
ssba.