(lp0
(iSample
Sample
p1
(dp2
S'timeStamp'
p3
F1440597227.560789
sS'moteSignal'
p4
(dp5
S'f53b'
p6
(I-55
I107
tp7
sS'8031'
p8
(I-57
I107
tp9
sS'8054'
p10
(I-56
I107
tp11
ssS'moteData'
p12
(dp13
(g10
I6
tp14
(I4545
I4532
tp15
s(g10
I4
tp16
(I4557
I4545
tp17
s(g6
I7
tp18
(I4470
I4435
tp19
s(g8
I3
tp20
(I4531
I4481
tp21
s(g6
I8
tp22
(I4446
I4405
tp23
s(g8
I2
tp24
(I4516
I4468
tp25
ssba(iSample
Sample
p26
(dp27
g3
F1440597231.759348
sg4
(dp28
g6
(I-55
I107
tp29
sg8
(I-53
I107
tp30
sg10
(I-62
I107
tp31
ssg12
(dp32
(g10
I6
tp33
(I4576
I4562
tp34
s(g10
I4
tp35
(I4588
I4575
tp36
s(g6
I7
tp37
(I4501
I4466
tp38
s(g8
I3
tp39
(I4562
I4512
tp40
s(g6
I8
tp41
(I4477
I4436
tp42
s(g8
I2
tp43
(I4547
I4499
tp44
ssba(iSample
Sample
p45
(dp46
g3
F1440597235.919188
sg4
(dp47
g6
(I-55
I107
tp48
sg8
(I-51
I107
tp49
sg10
(I-62
I96
tp50
ssg12
(dp51
(g10
I6
tp52
(I4607
I4590
tp53
s(g10
I4
tp54
(I4619
I4605
tp55
s(g6
I7
tp56
(I4532
I4496
tp57
s(g8
I3
tp58
(I4593
I4543
tp59
s(g6
I8
tp60
(I4508
I4467
tp61
s(g8
I2
tp62
(I4578
I4530
tp63
ssba(iSample
Sample
p64
(dp65
g3
F1440597240.067
sg4
(dp66
g6
(I-54
I107
tp67
sg8
(I-50
I107
tp68
sg10
(I-61
I107
tp69
ssg12
(dp70
(g10
I6
tp71
(I4637
I4619
tp72
s(g10
I4
tp73
(I4649
I4634
tp74
s(g6
I7
tp75
(I4562
I4526
tp76
s(g8
I3
tp77
(I4623
I4573
tp78
s(g6
I8
tp79
(I4538
I4497
tp80
s(g8
I2
tp81
(I4608
I4560
tp82
ssba(iSample
Sample
p83
(dp84
g3
F1440597244.110709
sg4
(dp85
g6
(I-56
I107
tp86
sg8
(I-52
I107
tp87
sg10
(I-52
I107
tp88
ssg12
(dp89
(g10
I6
tp90
(I4667
I4649
tp91
s(g10
I4
tp92
(I4679
I4664
tp93
s(g6
I7
tp94
(I4592
I4556
tp95
s(g8
I3
tp96
(I4653
I4603
tp97
s(g6
I8
tp98
(I4568
I4527
tp99
s(g8
I2
tp100
(I4638
I4590
tp101
ssba(iSample
Sample
p102
(dp103
g3
F1440597248.234923
sg4
(dp104
g6
(I-59
I107
tp105
sg8
(I-51
I107
tp106
sg10
(I-62
I106
tp107
ssg12
(dp108
(g10
I6
tp109
(I4698
I4680
tp110
s(g10
I4
tp111
(I4710
I4693
tp112
s(g6
I7
tp113
(I4624
I4588
tp114
s(g8
I3
tp115
(I4684
I4634
tp116
s(g6
I8
tp117
(I4600
I4559
tp118
s(g8
I2
tp119
(I4669
I4620
tp120
ssba(iSample
Sample
p121
(dp122
g3
F1440597252.467094
sg4
(dp123
g6
(I-53
I107
tp124
sg8
(I-49
I107
tp125
sg10
(I-54
I107
tp126
ssg12
(dp127
(g10
I6
tp128
(I4729
I4710
tp129
s(g10
I4
tp130
(I4741
I4724
tp131
s(g6
I7
tp132
(I4654
I4618
tp133
s(g8
I3
tp134
(I4715
I4665
tp135
s(g6
I8
tp136
(I4630
I4589
tp137
s(g8
I2
tp138
(I4700
I4651
tp139
ssba(iSample
Sample
p140
(dp141
g3
F1440597256.488168
sg4
(dp142
g6
(I-57
I107
tp143
sg8
(I-50
I107
tp144
sg10
(I-61
I107
tp145
ssg12
(dp146
(g10
I6
tp147
(I4759
I4739
tp148
s(g10
I4
tp149
(I4771
I4754
tp150
s(g6
I7
tp151
(I4684
I4647
tp152
s(g8
I3
tp153
(I4745
I4695
tp154
s(g6
I8
tp155
(I4660
I4618
tp156
s(g8
I2
tp157
(I4730
I4681
tp158
ssba(iSample
Sample
p159
(dp160
g3
F1440597260.567409
sg4
(dp161
g6
(I-56
I107
tp162
sg8
(I-51
I107
tp163
sg10
(I-60
I107
tp164
ssg12
(dp165
(g10
I6
tp166
(I4789
I4769
tp167
s(g10
I4
tp168
(I4801
I4784
tp169
s(g6
I7
tp170
(I4716
I4679
tp171
s(g8
I3
tp172
(I4775
I4725
tp173
s(g6
I8
tp174
(I4692
I4650
tp175
s(g8
I2
tp176
(I4760
I4711
tp177
ssba(iSample
Sample
p178
(dp179
g3
F1440597264.924307
sg4
(dp180
g6
(I-58
I107
tp181
sg8
(I-53
I107
tp182
sg10
(I-61
I107
tp183
ssg12
(dp184
(g10
I6
tp185
(I4821
I4801
tp186
s(g10
I4
tp187
(I4833
I4816
tp188
s(g6
I7
tp189
(I4746
I4709
tp190
s(g8
I3
tp191
(I4807
I4757
tp192
s(g6
I8
tp193
(I4722
I4680
tp194
s(g8
I2
tp195
(I4792
I4743
tp196
ssba(iSample
Sample
p197
(dp198
g3
F1440597268.970026
sg4
(dp199
g6
(I-60
I107
tp200
sg8
(I-58
I107
tp201
sg10
(I-57
I107
tp202
ssg12
(dp203
(g10
I6
tp204
(I4851
I4831
tp205
s(g10
I4
tp206
(I4863
I4846
tp207
s(g6
I7
tp208
(I4779
I4742
tp209
s(g8
I3
tp210
(I4838
I4788
tp211
s(g6
I8
tp212
(I4755
I4713
tp213
s(g8
I2
tp214
(I4823
I4774
tp215
ssba(iSample
Sample
p216
(dp217
g3
F1440597273.411349
sg4
(dp218
g6
(I-59
I107
tp219
sg8
(I-53
I107
tp220
sg10
(I-61
I107
tp221
ssg12
(dp222
(g10
I6
tp223
(I4884
I4864
tp224
s(g10
I4
tp225
(I4896
I4879
tp226
s(g6
I7
tp227
(I4810
I4773
tp228
s(g8
I3
tp229
(I4871
I4821
tp230
s(g6
I8
tp231
(I4786
I4744
tp232
s(g8
I2
tp233
(I4856
I4807
tp234
ssba(iSample
Sample
p235
(dp236
g3
F1440597277.659436
sg4
(dp237
g6
(I-55
I107
tp238
sg8
(I-54
I107
tp239
sg10
(I-61
I107
tp240
ssg12
(dp241
(g10
I6
tp242
(I4916
I4896
tp243
s(g10
I4
tp244
(I4928
I4911
tp245
s(g6
I7
tp246
(I4841
I4804
tp247
s(g8
I3
tp248
(I4902
I4852
tp249
s(g6
I8
tp250
(I4817
I4774
tp251
s(g8
I2
tp252
(I4887
I4838
tp253
ssba(iSample
Sample
p254
(dp255
g3
F1440597281.802275
sg4
(dp256
g6
(I-55
I107
tp257
sg8
(I-54
I107
tp258
sg10
(I-60
I107
tp259
ssg12
(dp260
(g10
I6
tp261
(I4946
I4926
tp262
s(g10
I4
tp263
(I4958
I4941
tp264
s(g6
I7
tp265
(I4873
I4836
tp266
s(g8
I3
tp267
(I4932
I4882
tp268
s(g6
I8
tp269
(I4849
I4806
tp270
s(g8
I2
tp271
(I4917
I4868
tp272
ssba(iSample
Sample
p273
(dp274
g3
F1440597286.088582
sg4
(dp275
g6
(I-60
I107
tp276
sg8
(I-51
I107
tp277
sg10
(I-56
I107
tp278
ssg12
(dp279
(g10
I6
tp280
(I4978
I4957
tp281
s(g10
I4
tp282
(I4990
I4973
tp283
s(g6
I7
tp284
(I4906
I4869
tp285
s(g8
I3
tp286
(I4967
I4917
tp287
s(g6
I8
tp288
(I4882
I4839
tp289
s(g8
I2
tp290
(I4952
I4903
tp291
ssba(iSample
Sample
p292
(dp293
g3
F1440597290.625408
sg4
(dp294
g6
(I-55
I107
tp295
sg8
(I-57
I106
tp296
sg10
(I-58
I107
tp297
ssg12
(dp298
(g10
I6
tp299
(I5012
I4991
tp300
s(g10
I4
tp301
(I5024
I5007
tp302
s(g6
I7
tp303
(I4937
I4900
tp304
s(g8
I3
tp305
(I4998
I4948
tp306
s(g6
I8
tp307
(I4913
I4870
tp308
s(g8
I2
tp309
(I4983
I4934
tp310
ssba(iSample
Sample
p311
(dp312
g3
F1440597294.79782
sg4
(dp313
g6
(I-62
I107
tp314
sg8
(I-56
I107
tp315
sg10
(I-60
I107
tp316
ssg12
(dp317
(g10
I6
tp318
(I5043
I5022
tp319
s(g10
I4
tp320
(I5055
I5038
tp321
s(g6
I7
tp322
(I4968
I4931
tp323
s(g8
I3
tp324
(I5029
I4978
tp325
s(g6
I8
tp326
(I4944
I4901
tp327
s(g8
I2
tp328
(I5014
I4965
tp329
ssba(iSample
Sample
p330
(dp331
g3
F1440597298.931064
sg4
(dp332
g6
(I-60
I107
tp333
sg8
(I-57
I107
tp334
sg10
(I-55
I107
tp335
ssg12
(dp336
(g10
I6
tp337
(I5073
I5052
tp338
s(g10
I4
tp339
(I5085
I5068
tp340
s(g6
I7
tp341
(I4998
I4960
tp342
s(g8
I3
tp343
(I5059
I5008
tp344
s(g6
I8
tp345
(I4974
I4931
tp346
s(g8
I2
tp347
(I5044
I4995
tp348
ssba(iSample
Sample
p349
(dp350
g3
F1440597302.996733
sg4
(dp351
g6
(I-64
I107
tp352
sg8
(I-54
I107
tp353
sg10
(I-57
I107
tp354
ssg12
(dp355
(g10
I6
tp356
(I5103
I5082
tp357
s(g10
I4
tp358
(I5115
I5098
tp359
s(g6
I7
tp360
(I5028
I4990
tp361
s(g8
I3
tp362
(I5089
I5038
tp363
s(g6
I8
tp364
(I5004
I4961
tp365
s(g8
I2
tp366
(I5074
I5025
tp367
ssba(iSample
Sample
p368
(dp369
g3
F1440597307.038289
sg4
(dp370
g6
(I-63
I106
tp371
sg8
(I-51
I107
tp372
sg10
(I-57
I107
tp373
ssg12
(dp374
(g10
I6
tp375
(I5133
I5112
tp376
s(g10
I4
tp377
(I5145
I5128
tp378
s(g6
I7
tp379
(I5058
I5020
tp380
s(g8
I3
tp381
(I5119
I5068
tp382
s(g6
I8
tp383
(I5034
I4991
tp384
s(g8
I2
tp385
(I5104
I5055
tp386
ssba(iSample
Sample
p387
(dp388
g3
F1440597311.076251
sg4
(dp389
g6
(I-55
I107
tp390
sg8
(I-55
I107
tp391
sg10
(I-52
I107
tp392
ssg12
(dp393
(g10
I6
tp394
(I5163
I5142
tp395
s(g10
I4
tp396
(I5175
I5156
tp397
s(g6
I7
tp398
(I5088
I5049
tp399
s(g8
I3
tp400
(I5149
I5098
tp401
s(g6
I8
tp402
(I5064
I5021
tp403
s(g8
I2
tp404
(I5134
I5085
tp405
ssba(iSample
Sample
p406
(dp407
g3
F1440597315.11884
sg4
(dp408
g6
(I-58
I107
tp409
sg8
(I-54
I107
tp410
sg10
(I-55
I107
tp411
ssg12
(dp412
(g10
I6
tp413
(I5193
I5172
tp414
s(g10
I4
tp415
(I5205
I5185
tp416
s(g6
I7
tp417
(I5318
I5278
tp418
s(g8
I3
tp419
(I5379
I5326
tp420
s(g6
I8
tp421
(I5294
I5249
tp422
s(g8
I2
tp423
(I5364
I5314
tp424
ssba(iSample
Sample
p425
(dp426
g3
F1440597346.212009
sg4
(dp427
g6
(I-56
I107
tp428
sg8
(I-51
I107
tp429
sg10
(I-65
I107
tp430
ssg12
(dp431
(g10
I6
tp432
(I5424
I5398
tp433
s(g10
I4
tp434
(I5436
I5412
tp435
s(g6
I7
tp436
(I5349
I5308
tp437
s(g8
I3
tp438
(I5410
I5357
tp439
s(g6
I8
tp440
(I5325
I5280
tp441
s(g8
I2
tp442
(I5395
I5344
tp443
ssba(iSample
Sample
p444
(dp445
g3
F1440597350.400646
sg4
(dp446
g6
(I-58
I107
tp447
sg8
(I-57
I107
tp448
sg10
(I-64
I107
tp449
ssg12
(dp450
(g10
I6
tp451
(I5456
I5430
tp452
s(g10
I4
tp453
(I5468
I5444
tp454
s(g6
I7
tp455
(I5382
I5340
tp456
s(g8
I3
tp457
(I5443
I5388
tp458
s(g6
I8
tp459
(I5358
I5313
tp460
s(g8
I2
tp461
(I5428
I5377
tp462
ssba(iSample
Sample
p463
(dp464
g3
F1440597354.84472
sg4
(dp465
g6
(I-62
I107
tp466
sg8
(I-55
I107
tp467
sg10
(I-61
I107
tp468
ssg12
(dp469
(g10
I6
tp470
(I5487
I5460
tp471
s(g10
I4
tp472
(I5499
I5475
tp473
s(g6
I7
tp474
(I5412
I5369
tp475
s(g8
I3
tp476
(I5473
I5417
tp477
s(g6
I8
tp478
(I5388
I5343
tp479
s(g8
I2
tp480
(I5458
I5407
tp481
ssba(iSample
Sample
p482
(dp483
g3
F1440597358.952977
sg4
(dp484
g6
(I-58
I107
tp485
sg8
(I-52
I107
tp486
sg10
(I-62
I107
tp487
ssg12
(dp488
(g10
I6
tp489
(I5518
I5490
tp490
s(g10
I4
tp491
(I5530
I5506
tp492
s(g6
I7
tp493
(I5443
I5400
tp494
s(g8
I3
tp495
(I5504
I5448
tp496
s(g6
I8
tp497
(I5419
I5374
tp498
s(g8
I2
tp499
(I5489
I5438
tp500
ssba(iSample
Sample
p501
(dp502
g3
F1440597363.090103
sg4
(dp503
g6
(I-61
I107
tp504
sg8
(I-51
I107
tp505
sg10
(I-56
I107
tp506
ssg12
(dp507
(g10
I6
tp508
(I5548
I5520
tp509
s(g10
I4
tp510
(I5560
I5536
tp511
s(g6
I7
tp512
(I5473
I5430
tp513
s(g8
I3
tp514
(I5534
I5478
tp515
s(g6
I8
tp516
(I5449
I5404
tp517
s(g8
I2
tp518
(I5519
I5468
tp519
ssba(iSample
Sample
p520
(dp521
g3
F1440597367.13475
sg4
(dp522
g6
(I-62
I107
tp523
sg8
(I-52
I107
tp524
sg10
(I-52
I107
tp525
ssg12
(dp526
(g10
I6
tp527
(I5578
I5550
tp528
s(g10
I4
tp529
(I5590
I5566
tp530
s(g6
I7
tp531
(I5503
I5460
tp532
s(g8
I3
tp533
(I5564
I5508
tp534
s(g6
I8
tp535
(I5479
I5431
tp536
s(g8
I2
tp537
(I5549
I5497
tp538
ssba(iSample
Sample
p539
(dp540
g3
F1440597371.171741
sg4
(dp541
g6
(I-55
I107
tp542
sg8
(I-52
I107
tp543
sg10
(I-55
I107
tp544
ssg12
(dp545
(g10
I6
tp546
(I5608
I5580
tp547
s(g10
I4
tp548
(I5620
I5596
tp549
s(g6
I7
tp550
(I5534
I5491
tp551
s(g8
I3
tp552
(I5595
I5539
tp553
s(g6
I8
tp554
(I5510
I5462
tp555
s(g8
I2
tp556
(I5580
I5528
tp557
ssba(iSample
Sample
p558
(dp559
g3
F1440597375.376302
sg4
(dp560
g6
(I-66
I107
tp561
sg8
(I-59
I107
tp562
sg10
(I-55
I107
tp563
ssg12
(dp564
(g10
I6
tp565
(I5641
I5613
tp566
s(g10
I4
tp567
(I5653
I5629
tp568
s(g6
I7
tp569
(I5741
I5695
tp570
s(g8
I3
tp571
(I5802
I5742
tp572
s(g6
I8
tp573
(I5717
I5669
tp574
s(g8
I2
tp575
(I5787
I5735
tp576
ssba(iSample
Sample
p577
(dp578
g3
F1440597403.320333
sg4
(dp579
g6
(I-59
I107
tp580
sg8
(I-52
I107
tp581
sg10
(I-56
I107
tp582
ssg12
(dp583
(g10
I6
tp584
(I5846
I5815
tp585
s(g10
I4
tp586
(I5858
I5834
tp587
s(g6
I7
tp588
(I5771
I5725
tp589
s(g8
I3
tp590
(I5832
I5772
tp591
s(g6
I8
tp592
(I5747
I5699
tp593
s(g8
I2
tp594
(I5817
I5765
tp595
ssba(iSample
Sample
p596
(dp597
g3
F1440597407.37702
sg4
(dp598
g6
(I-63
I107
tp599
sg8
(I-52
I107
tp600
sg10
(I-60
I107
tp601
ssg12
(dp602
(g10
I6
tp603
(I6060
I6027
tp604
s(g10
I4
tp605
(I6072
I6045
tp606
s(g6
I7
tp607
(I5985
I5936
tp608
s(g8
I3
tp609
(I6046
I5986
tp610
s(g6
I8
tp611
(I5961
I5913
tp612
s(g8
I2
tp613
(I6031
I5977
tp614
ssba(iSample
Sample
p615
(dp616
g3
F1440597436.301008
sg4
(dp617
g6
(I-60
I107
tp618
sg8
(I-54
I107
tp619
sg10
(I-51
I107
tp620
ssg12
(dp621
(g10
I6
tp622
(I6090
I6057
tp623
s(g10
I4
tp624
(I6102
I6074
tp625
s(g6
I7
tp626
(I6018
I5969
tp627
s(g8
I3
tp628
(I6076
I6016
tp629
s(g6
I8
tp630
(I5994
I5945
tp631
s(g8
I2
tp632
(I6061
I6007
tp633
ssba(iSample
Sample
p634
(dp635
g3
F1440597440.775946
sg4
(dp636
g6
(I-61
I107
tp637
sg8
(I-55
I107
tp638
sg10
(I-58
I107
tp639
ssg12
(dp640
(g10
I6
tp641
(I6123
I6090
tp642
s(g10
I4
tp643
(I6135
I6107
tp644
s(g6
I7
tp645
(I6048
I5999
tp646
s(g8
I3
tp647
(I6109
I6049
tp648
s(g6
I8
tp649
(I6024
I5975
tp650
s(g8
I2
tp651
(I6094
I6040
tp652
ssba(iSample
Sample
p653
(dp654
g3
F1440597444.80048
sg4
(dp655
g6
(I-64
I107
tp656
sg8
(I-51
I107
tp657
sg10
(I-59
I107
tp658
ssg12
(dp659
(g10
I6
tp660
(I6153
I6119
tp661
s(g10
I4
tp662
(I6165
I6137
tp663
s(g6
I7
tp664
(I6081
I6032
tp665
s(g8
I3
tp666
(I6139
I6079
tp667
s(g6
I8
tp668
(I6057
I6008
tp669
s(g8
I2
tp670
(I6124
I6070
tp671
ssba(iSample
Sample
p672
(dp673
g3
F1440597449.227472
sg4
(dp674
g6
(I-59
I107
tp675
sg8
(I-53
I107
tp676
sg10
(I-51
I107
tp677
ssg12
(dp678
(g10
I6
tp679
(I6186
I6151
tp680
s(g10
I4
tp681
(I6198
I6170
tp682
s(g6
I7
tp683
(I6111
I6062
tp684
s(g8
I3
tp685
(I6172
I6112
tp686
s(g6
I8
tp687
(I6087
I6038
tp688
s(g8
I2
tp689
(I6157
I6103
tp690
ssba(iSample
Sample
p691
(dp692
g3
F1440597453.302885
sg4
(dp693
g6
(I-61
I107
tp694
sg8
(I-53
I106
tp695
sg10
(I-51
I107
tp696
ssg12
(dp697
(g10
I6
tp698
(I6216
I6181
tp699
s(g10
I4
tp700
(I6228
I6200
tp701
s(g6
I7
tp702
(I6141
I6092
tp703
s(g8
I3
tp704
(I6202
I6142
tp705
s(g6
I8
tp706
(I6117
I6068
tp707
s(g8
I2
tp708
(I6187
I6133
tp709
ssba(iSample
Sample
p710
(dp711
g3
F1440597457.369987
sg4
(dp712
g6
(I-61
I107
tp713
sg8
(I-51
I107
tp714
sg10
(I-54
I107
tp715
ssg12
(dp716
(g10
I6
tp717
(I6246
I6211
tp718
s(g10
I4
tp719
(I6258
I6230
tp720
s(g6
I7
tp721
(I6171
I6121
tp722
s(g8
I3
tp723
(I6232
I6171
tp724
s(g6
I8
tp725
(I6147
I6098
tp726
s(g8
I2
tp727
(I6217
I6163
tp728
ssba(iSample
Sample
p729
(dp730
g3
F1440597461.391181
sg4
(dp731
g6
(I-61
I107
tp732
sg8
(I-54
I107
tp733
sg10
(I-59
I107
tp734
ssg12
(dp735
(g10
I6
tp736
(I6281
I6246
tp737
s(g10
I4
tp738
(I6293
I6265
tp739
s(g6
I7
tp740
(I6208
I6158
tp741
s(g8
I3
tp742
(I6269
I6208
tp743
s(g6
I8
tp744
(I6184
I6135
tp745
s(g8
I2
tp746
(I6254
I6199
tp747
ssba(iSample
Sample
p748
(dp749
g3
F1440597466.362059
sg4
(dp750
g6
(I-60
I107
tp751
sg8
(I-49
I107
tp752
sg10
(I-60
I107
tp753
ssg12
(dp754
(g10
I6
tp755
(I6313
I6277
tp756
s(g10
I4
tp757
(I6325
I6297
tp758
s(g6
I7
tp759
(I6410
I6359
tp760
s(g8
I3
tp761
(I6471
I6409
tp762
s(g6
I8
tp763
(I6386
I6336
tp764
s(g8
I2
tp765
(I6456
I6400
tp766
ssba(iSample
Sample
p767
(dp768
g3
F1440597493.67156
sg4
(dp769
g6
(I-56
I106
tp770
sg8
(I-53
I107
tp771
sg10
(I-66
I107
tp772
ssg12
(dp773
(g10
I6
tp774
(I6515
I6477
tp775
s(g10
I4
tp776
(I6527
I6496
tp777
s(g6
I7
tp778
(I6440
I6387
tp779
s(g8
I3
tp780
(I6501
I6438
tp781
s(g6
I8
tp782
(I6416
I6365
tp783
s(g8
I2
tp784
(I6486
I6430
tp785
ssba(iSample
Sample
p786
(dp787
g3
F1440597497.705949
sg4
(dp788
g6
(I-64
I107
tp789
sg8
(I-53
I107
tp790
sg10
(I-60
I107
tp791
ssg12
(dp792
(g10
I6
tp793
(I6545
I6507
tp794
s(g10
I4
tp795
(I6557
I6526
tp796
s(g6
I7
tp797
(I6470
I6416
tp798
s(g8
I3
tp799
(I6531
I6468
tp800
s(g6
I8
tp801
(I6446
I6395
tp802
s(g8
I2
tp803
(I6516
I6460
tp804
ssba(iSample
Sample
p805
(dp806
g3
F1440597501.794638
sg4
(dp807
g6
(I-68
I107
tp808
sg8
(I-52
I107
tp809
sg10
(I-57
I107
tp810
ssg12
(dp811
(g10
I6
tp812
(I6575
I6536
tp813
s(g10
I4
tp814
(I6587
I6555
tp815
s(g6
I7
tp816
(I6500
I6444
tp817
s(g8
I3
tp818
(I6561
I6497
tp819
s(g6
I8
tp820
(I6476
I6422
tp821
s(g8
I2
tp822
(I6546
I6489
tp823
ssba(iSample
Sample
p824
(dp825
g3
F1440597505.837509
sg4
(dp826
g6
(I-56
I107
tp827
sg8
(I-50
I107
tp828
sg10
(I-61
I107
tp829
ssg12
(dp830
(g10
I6
tp831
(I6606
I6566
tp832
s(g10
I4
tp833
(I6618
I6586
tp834
s(g6
I7
tp835
(I6535
I6473
tp836
s(g8
I3
tp837
(I6592
I6528
tp838
s(g6
I8
tp839
(I6511
I6454
tp840
s(g8
I2
tp841
(I6577
I6519
tp842
ssba(iSample
Sample
p843
(dp844
g3
F1440597510.57411
sg4
(dp845
g6
(I-64
I104
tp846
sg8
(I-50
I107
tp847
sg10
(I-60
I107
tp848
ssg12
(dp849
(g10
I6
tp850
(I6640
I6598
tp851
s(g10
I4
tp852
(I6652
I6620
tp853
s(g6
I7
tp854
(I6565
I6503
tp855
s(g8
I3
tp856
(I6626
I6561
tp857
s(g6
I8
tp858
(I6541
I6481
tp859
s(g8
I2
tp860
(I6611
I6553
tp861
ssba(iSample
Sample
p862
(dp863
g3
F1440597514.605347
sg4
(dp864
g6
(I-65
I107
tp865
sg8
(I-50
I107
tp866
sg10
(I-61
I107
tp867
ssg12
(dp868
(g10
I6
tp869
(I6670
I6626
tp870
s(g10
I4
tp871
(I6682
I6650
tp872
s(g6
I7
tp873
(I6595
I6531
tp874
s(g8
I3
tp875
(I6656
I6590
tp876
s(g6
I8
tp877
(I6571
I6508
tp878
s(g8
I2
tp879
(I6641
I6582
tp880
ssba(iSample
Sample
p881
(dp882
g3
F1440597518.636916
sg4
(dp883
g6
(I-61
I107
tp884
sg8
(I-51
I107
tp885
sg10
(I-58
I107
tp886
ssg12
(dp887
(g10
I6
tp888
(I6700
I6656
tp889
s(g10
I4
tp890
(I6712
I6680
tp891
s(g6
I7
tp892
(I6625
I6560
tp893
s(g8
I3
tp894
(I6686
I6619
tp895
s(g6
I8
tp896
(I6601
I6536
tp897
s(g8
I2
tp898
(I6671
I6612
tp899
ssba(iSample
Sample
p900
(dp901
g3
F1440597522.718127
sg4
(dp902
g6
(I-56
I107
tp903
sg8
(I-53
I107
tp904
sg10
(I-56
I107
tp905
ssg12
(dp906
(g10
I6
tp907
(I6738
I6694
tp908
s(g10
I4
tp909
(I6750
I6718
tp910
s(g6
I7
tp911
(I6872
I6797
tp912
s(g8
I3
tp913
(I6933
I6865
tp914
s(g6
I8
tp915
(I6848
I6776
tp916
s(g8
I2
tp917
(I6918
I6855
tp918
ssba(iSample
Sample
p919
(dp920
g3
F1440597556.048542
sg4
(dp921
g6
(I-59
I107
tp922
sg8
(I-56
I107
tp923
sg10
(I-60
I107
tp924
ssg12
(dp925
(g10
I6
tp926
(I6977
I6929
tp927
s(g10
I4
tp928
(I6989
I6955
tp929
s(g6
I7
tp930
(I6902
I6827
tp931
s(g8
I3
tp932
(I6963
I6894
tp933
s(g6
I8
tp934
(I6878
I6804
tp935
s(g8
I2
tp936
(I6948
I6885
tp937
ssba(iSample
Sample
p938
(dp939
g3
F1440597560.126061
sg4
(dp940
g6
(I-59
I106
tp941
sg8
(I-54
I107
tp942
sg10
(I-55
I107
tp943
ssg12
(dp944
(g10
I6
tp945
(I7010
I6962
tp946
s(g10
I4
tp947
(I7022
I6988
tp948
s(g6
I7
tp949
(I6937
I6860
tp950
s(g8
I3
tp951
(I6996
I6926
tp952
s(g6
I8
tp953
(I6913
I6839
tp954
s(g8
I2
tp955
(I6981
I6918
tp956
ssba(iSample
Sample
p957
(dp958
g3
F1440597564.862622
sg4
(dp959
g6
(I-56
I107
tp960
sg8
(I-54
I107
tp961
sg10
(I-56
I107
tp962
ssg12
(dp963
(g10
I6
tp964
(I7042
I6994
tp965
s(g10
I4
tp966
(I7054
I7020
tp967
s(g6
I7
tp968
(I6967
I6889
tp969
s(g8
I3
tp970
(I7028
I6958
tp971
s(g6
I8
tp972
(I6943
I6866
tp973
s(g8
I2
tp974
(I7013
I6950
tp975
ssba(iSample
Sample
p976
(dp977
g3
F1440597568.885913
sg4
(dp978
g6
(I-56
I107
tp979
sg8
(I-50
I107
tp980
sg10
(I-58
I107
tp981
ssg12
(dp982
(g10
I6
tp983
(I7072
I7024
tp984
s(g10
I4
tp985
(I7084
I7050
tp986
s(g6
I7
tp987
(I6997
I6918
tp988
s(g8
I3
tp989
(I7058
I6988
tp990
s(g6
I8
tp991
(I6973
I6896
tp992
s(g8
I2
tp993
(I7043
I6980
tp994
ssba(iSample
Sample
p995
(dp996
g3
F1440597572.970525
sg4
(dp997
g6
(I-60
I107
tp998
sg8
(I-51
I107
tp999
sg10
(I-63
I107
tp1000
ssg12
(dp1001
(g10
I6
tp1002
(I7102
I7054
tp1003
s(g10
I4
tp1004
(I7114
I7080
tp1005
s(g6
I7
tp1006
(I7027
I6948
tp1007
s(g8
I3
tp1008
(I7088
I7018
tp1009
s(g6
I8
tp1010
(I7003
I6926
tp1011
s(g8
I2
tp1012
(I7073
I7010
tp1013
ssba(iSample
Sample
p1014
(dp1015
g3
F1440597576.991248
sg4
(dp1016
g6
(I-57
I107
tp1017
sg8
(I-50
I107
tp1018
sg10
(I-62
I107
tp1019
ssg12
(dp1020
(g10
I6
tp1021
(I7132
I7084
tp1022
s(g10
I4
tp1023
(I7144
I7110
tp1024
s(g6
I7
tp1025
(I7057
I6978
tp1026
s(g8
I3
tp1027
(I7118
I7048
tp1028
s(g6
I8
tp1029
(I7033
I6955
tp1030
s(g8
I2
tp1031
(I7103
I7040
tp1032
ssba(iSample
Sample
p1033
(dp1034
g3
F1440597581.064216
sg4
(dp1035
g6
(I-60
I107
tp1036
sg8
(I-52
I107
tp1037
sg10
(I-51
I107
tp1038
ssg12
(dp1039
(g10
I6
tp1040
(I7162
I7114
tp1041
s(g10
I4
tp1042
(I7174
I7140
tp1043
s(g6
I7
tp1044
(I7088
I7006
tp1045
s(g8
I3
tp1046
(I7148
I7078
tp1047
s(g6
I8
tp1048
(I7064
I6984
tp1049
s(g8
I2
tp1050
(I7133
I7070
tp1051
ssba(iSample
Sample
p1052
(dp1053
g3
F1440597585.256907
sg4
(dp1054
g6
(I-56
I107
tp1055
sg8
(I-50
I107
tp1056
sg10
(I-55
I107
tp1057
ssg12
(dp1058
(g10
I6
tp1059
(I7193
I7145
tp1060
s(g10
I4
tp1061
(I7205
I7170
tp1062
s(g6
I7
tp1063
(I7118
I7032
tp1064
s(g8
I3
tp1065
(I7179
I7109
tp1066
s(g6
I8
tp1067
(I7094
I7009
tp1068
s(g8
I2
tp1069
(I7164
I7101
tp1070
ssba(iSample
Sample
p1071
(dp1072
g3
F1440597589.290486
sg4
(dp1073
g6
(I-58
I107
tp1074
sg8
(I-50
I107
tp1075
sg10
(I-56
I107
tp1076
ssg12
(dp1077
(g10
I6
tp1078
(I7224
I7174
tp1079
s(g10
I4
tp1080
(I7236
I7199
tp1081
s(g6
I7
tp1082
(I7149
I7059
tp1083
s(g8
I3
tp1084
(I7210
I7137
tp1085
s(g6
I8
tp1086
(I7125
I7037
tp1087
s(g8
I2
tp1088
(I7195
I7130
tp1089
ssba(iSample
Sample
p1090
(dp1091
g3
F1440597593.625957
sg4
(dp1092
g6
(I-56
I107
tp1093
sg8
(I-51
I107
tp1094
sg10
(I-59
I107
tp1095
ssg12
(dp1096
(g10
I6
tp1097
(I7255
I7202
tp1098
s(g10
I4
tp1099
(I7267
I7229
tp1100
s(g6
I7
tp1101
(I7182
I7091
tp1102
s(g8
I3
tp1103
(I7241
I7167
tp1104
s(g6
I8
tp1105
(I7158
I7069
tp1106
s(g8
I2
tp1107
(I7226
I7159
tp1108
ssba(iSample
Sample
p1109
(dp1110
g3
F1440597597.934269
sg4
(dp1111
g6
(I-58
I107
tp1112
sg8
(I-53
I107
tp1113
sg10
(I-59
I107
tp1114
ssg12
(dp1115
(g10
I6
tp1116
(I7287
I7234
tp1117
s(g10
I4
tp1118
(I7299
I7261
tp1119
s(g6
I7
tp1120
(I7215
I7124
tp1121
s(g8
I3
tp1122
(I7276
I7202
tp1123
s(g6
I8
tp1124
(I7191
I7101
tp1125
s(g8
I2
tp1126
(I7261
I7194
tp1127
ssba(iSample
Sample
p1128
(dp1129
g3
F1440597602.365795
sg4
(dp1130
g6
(I-58
I107
tp1131
sg8
(I-53
I107
tp1132
sg10
(I-55
I107
tp1133
ssg12
(dp1134
(g10
I6
tp1135
(I7320
I7266
tp1136
s(g10
I4
tp1137
(I7332
I7294
tp1138
s(g6
I7
tp1139
(I7245
I7153
tp1140
s(g8
I3
tp1141
(I7306
I7230
tp1142
s(g6
I8
tp1143
(I7221
I7131
tp1144
s(g8
I2
tp1145
(I7291
I7224
tp1146
ssba(iSample
Sample
p1147
(dp1148
g3
F1440597606.507684
sg4
(dp1149
g6
(I-60
I107
tp1150
sg8
(I-51
I107
tp1151
sg10
(I-59
I107
tp1152
ssg12
(dp1153
(g10
I6
tp1154
(I7351
I7297
tp1155
s(g10
I4
tp1156
(I7363
I7324
tp1157
s(g6
I7
tp1158
(I7276
I7184
tp1159
s(g8
I3
tp1160
(I7337
I7260
tp1161
s(g6
I8
tp1162
(I7252
I7162
tp1163
s(g8
I2
tp1164
(I7322
I7255
tp1165
ssba(iSample
Sample
p1166
(dp1167
g3
F1440597610.63675
sg4
(dp1168
g6
(I-63
I107
tp1169
sg8
(I-50
I107
tp1170
sg10
(I-63
I107
tp1171
ssg12
(dp1172
(g10
I6
tp1173
(I7381
I7326
tp1174
s(g10
I4
tp1175
(I7393
I7354
tp1176
s(g6
I7
tp1177
(I7306
I7213
tp1178
s(g8
I3
tp1179
(I7367
I7290
tp1180
s(g6
I8
tp1181
(I7282
I7192
tp1182
s(g8
I2
tp1183
(I7352
I7283
tp1184
ssba(iSample
Sample
p1185
(dp1186
g3
F1440597614.670143
sg4
(dp1187
g6
(I-59
I106
tp1188
sg8
(I-50
I107
tp1189
sg10
(I-64
I107
tp1190
ssg12
(dp1191
(g10
I6
tp1192
(I7413
I7358
tp1193
s(g10
I4
tp1194
(I7425
I7386
tp1195
s(g6
I7
tp1196
(I7339
I7246
tp1197
s(g8
I3
tp1198
(I7399
I7321
tp1199
s(g6
I8
tp1200
(I7315
I7224
tp1201
s(g8
I2
tp1202
(I7384
I7315
tp1203
ssba(iSample
Sample
p1204
(dp1205
g3
F1440597619.158762
sg4
(dp1206
g6
(I-66
I106
tp1207
sg8
(I-51
I107
tp1208
sg10
(I-60
I107
tp1209
ssg12
(dp1210
(g10
I6
tp1211
(I7612
I7557
tp1212
s(g10
I4
tp1213
(I7624
I7584
tp1214
s(g6
I7
tp1215
(I7537
I7442
tp1216
s(g8
I3
tp1217
(I7598
I7519
tp1218
s(g6
I8
tp1219
(I7513
I7419
tp1220
s(g8
I2
tp1221
(I7583
I7514
tp1222
ssba(iSample
Sample
p1223
(dp1224
g3
F1440597645.847333
sg4
(dp1225
g6
(I-59
I107
tp1226
sg8
(I-53
I107
tp1227
sg10
(I-53
I107
tp1228
ssg12
(dp1229
(g10
I6
tp1230
(I7642
I7587
tp1231
s(g10
I4
tp1232
(I7654
I7614
tp1233
s(g6
I7
tp1234
(I7567
I7472
tp1235
s(g8
I3
tp1236
(I7628
I7548
tp1237
s(g6
I8
tp1238
(I7543
I7449
tp1239
s(g8
I2
tp1240
(I7613
I7544
tp1241
ssba(iSample
Sample
p1242
(dp1243
g3
F1440597649.978379
sg4
(dp1244
g6
(I-58
I107
tp1245
sg8
(I-53
I107
tp1246
sg10
(I-55
I107
tp1247
ssg12
(dp1248
(g10
I6
tp1249
(I7672
I7617
tp1250
s(g10
I4
tp1251
(I7684
I7644
tp1252
s(g6
I7
tp1253
(I7597
I7502
tp1254
s(g8
I3
tp1255
(I7658
I7578
tp1256
s(g6
I8
tp1257
(I7573
I7479
tp1258
s(g8
I2
tp1259
(I7643
I7574
tp1260
ssba(iSample
Sample
p1261
(dp1262
g3
F1440597653.98863
sg4
(dp1263
g6
(I-58
I107
tp1264
sg8
(I-52
I107
tp1265
sg10
(I-57
I107
tp1266
ssg12
(dp1267
(g10
I6
tp1268
(I7702
I7647
tp1269
s(g10
I4
tp1270
(I7714
I7674
tp1271
s(g6
I7
tp1272
(I7629
I7533
tp1273
s(g8
I3
tp1274
(I7690
I7609
tp1275
s(g6
I8
tp1276
(I7605
I7511
tp1277
s(g8
I2
tp1278
(I7675
I7606
tp1279
ssba(iSample
Sample
p1280
(dp1281
g3
F1440597658.321353
sg4
(dp1282
g6
(I-59
I107
tp1283
sg8
(I-50
I107
tp1284
sg10
(I-58
I107
tp1285
ssg12
(dp1286
(g10
I6
tp1287
(I7734
I7679
tp1288
s(g10
I4
tp1289
(I7746
I7704
tp1290
s(g6
I7
tp1291
(I7659
I7561
tp1292
s(g8
I3
tp1293
(I7720
I7636
tp1294
s(g6
I8
tp1295
(I7635
I7539
tp1296
s(g8
I2
tp1297
(I7705
I7635
tp1298
ssba(iSample
Sample
p1299
(dp1300
g3
F1440597662.370167
sg4
(dp1301
g6
(I-58
I107
tp1302
sg8
(I-53
I107
tp1303
sg10
(I-61
I107
tp1304
ssg12
(dp1305
(g10
I6
tp1306
(I7764
I7709
tp1307
s(g10
I4
tp1308
(I7776
I7734
tp1309
s(g6
I7
tp1310
(I7689
I7590
tp1311
s(g8
I3
tp1312
(I7750
I7666
tp1313
s(g6
I8
tp1314
(I7665
I7569
tp1315
s(g8
I2
tp1316
(I7735
I7665
tp1317
ssba(iSample
Sample
p1318
(dp1319
g3
F1440597666.429971
sg4
(dp1320
g6
(I-64
I107
tp1321
sg8
(I-50
I107
tp1322
sg10
(I-62
I107
tp1323
ssg12
(dp1324
(g10
I6
tp1325
(I7797
I7742
tp1326
s(g10
I4
tp1327
(I7809
I7767
tp1328
s(g6
I7
tp1329
(I7722
I7621
tp1330
s(g8
I3
tp1331
(I7783
I7699
tp1332
s(g6
I8
tp1333
(I7698
I7601
tp1334
s(g8
I2
tp1335
(I7768
I7698
tp1336
ssba(iSample
Sample
p1337
(dp1338
g3
F1440597670.86275
sg4
(dp1339
g6
(I-57
I107
tp1340
sg8
(I-49
I107
tp1341
sg10
(I-59
I107
tp1342
ssg12
(dp1343
(g10
I6
tp1344
(I7830
I7775
tp1345
s(g10
I4
tp1346
(I7842
I7799
tp1347
s(g6
I7
tp1348
(I7755
I7653
tp1349
s(g8
I3
tp1350
(I7816
I7732
tp1351
s(g6
I8
tp1352
(I7731
I7634
tp1353
s(g8
I2
tp1354
(I7801
I7731
tp1355
ssba(iSample
Sample
p1356
(dp1357
g3
F1440597675.336222
sg4
(dp1358
g6
(I-56
I107
tp1359
sg8
(I-53
I107
tp1360
sg10
(I-61
I107
tp1361
ssg12
(dp1362
(g10
I6
tp1363
(I7863
I7808
tp1364
s(g10
I4
tp1365
(I7875
I7832
tp1366
s(g6
I7
tp1367
(I7789
I7687
tp1368
s(g8
I3
tp1369
(I7850
I7766
tp1370
s(g6
I8
tp1371
(I7765
I7668
tp1372
s(g8
I2
tp1373
(I7835
I7765
tp1374
ssba(iSample
Sample
p1375
(dp1376
g3
F1440597679.954173
sg4
(dp1377
g6
(I-57
I107
tp1378
sg8
(I-50
I107
tp1379
sg10
(I-61
I107
tp1380
ssg12
(dp1381
(g10
I6
tp1382
(I7895
I7840
tp1383
s(g10
I4
tp1384
(I7907
I7864
tp1385
s(g6
I7
tp1386
(I7821
I7718
tp1387
s(g8
I3
tp1388
(I7881
I7797
tp1389
s(g6
I8
tp1390
(I7797
I7700
tp1391
s(g8
I2
tp1392
(I7866
I7796
tp1393
ssba(iSample
Sample
p1394
(dp1395
g3
F1440597684.267593
sg4
(dp1396
g6
(I-58
I107
tp1397
sg8
(I-50
I107
tp1398
sg10
(I-56
I107
tp1399
ssg12
(dp1400
(g10
I6
tp1401
(I7926
I7871
tp1402
s(g10
I4
tp1403
(I7938
I7895
tp1404
s(g6
I7
tp1405
(I7852
I7749
tp1406
s(g8
I3
tp1407
(I7913
I7829
tp1408
s(g6
I8
tp1409
(I7828
I7731
tp1410
s(g8
I2
tp1411
(I7898
I7828
tp1412
ssba(iSample
Sample
p1413
(dp1414
g3
F1440597688.43832
sg4
(dp1415
g6
(I-58
I107
tp1416
sg8
(I-48
I107
tp1417
sg10
(I-60
I107
tp1418
ssg12
(dp1419
(g10
I6
tp1420
(I7957
I7900
tp1421
s(g10
I4
tp1422
(I7969
I7926
tp1423
s(g6
I7
tp1424
(I7882
I7779
tp1425
s(g8
I3
tp1426
(I7943
I7859
tp1427
s(g6
I8
tp1428
(I7858
I7761
tp1429
s(g8
I2
tp1430
(I7928
I7858
tp1431
ssba(iSample
Sample
p1432
(dp1433
g3
F1440597692.455914
sg4
(dp1434
g6
(I-55
I107
tp1435
sg8
(I-55
I107
tp1436
sg10
(I-61
I107
tp1437
ssg12
(dp1438
(g10
I6
tp1439
(I7987
I7930
tp1440
s(g10
I4
tp1441
(I7999
I7956
tp1442
s(g6
I7
tp1443
(I7912
I7808
tp1444
s(g8
I3
tp1445
(I7973
I7889
tp1446
s(g6
I8
tp1447
(I7888
I7791
tp1448
s(g8
I2
tp1449
(I7958
I7888
tp1450
ssba(iSample
Sample
p1451
(dp1452
g3
F1440597696.543068
sg4
(dp1453
g6
(I-54
I107
tp1454
sg8
(I-50
I107
tp1455
sg10
(I-61
I107
tp1456
ssg12
(dp1457
(g10
I6
tp1458
(I8017
I7960
tp1459
s(g10
I4
tp1460
(I8029
I7986
tp1461
s(g6
I7
tp1462
(I7943
I7839
tp1463
s(g8
I3
tp1464
(I8003
I7919
tp1465
s(g6
I8
tp1466
(I7919
I7822
tp1467
s(g8
I2
tp1468
(I7988
I7918
tp1469
ssba(iSample
Sample
p1470
(dp1471
g3
F1440597700.738056
sg4
(dp1472
g6
(I-54
I107
tp1473
sg8
(I-53
I107
tp1474
sg10
(I-60
I107
tp1475
ssg12
(dp1476
(g10
I6
tp1477
(I8048
I7990
tp1478
s(g10
I4
tp1479
(I8060
I8016
tp1480
s(g6
I7
tp1481
(I7973
I7868
tp1482
s(g8
I3
tp1483
(I8034
I7949
tp1484
s(g6
I8
tp1485
(I7949
I7852
tp1486
s(g8
I2
tp1487
(I8019
I7949
tp1488
ssba(iSample
Sample
p1489
(dp1490
g3
F1440597704.779177
sg4
(dp1491
g6
(I-54
I107
tp1492
sg8
(I-52
I107
tp1493
sg10
(I-70
I107
tp1494
ssg12
(dp1495
(g10
I6
tp1496
(I8078
I8018
tp1497
s(g10
I4
tp1498
(I8090
I8045
tp1499
s(g6
I7
tp1500
(I8003
I7898
tp1501
s(g8
I3
tp1502
(I8064
I7979
tp1503
s(g6
I8
tp1504
(I7979
I7882
tp1505
s(g8
I2
tp1506
(I8049
I7978
tp1507
ssba(iSample
Sample
p1508
(dp1509
g3
F1440597708.860045
sg4
(dp1510
g6
(I-54
I107
tp1511
sg8
(I-54
I107
tp1512
sg10
(I-59
I107
tp1513
ssg12
(dp1514
(g10
I6
tp1515
(I8108
I8047
tp1516
s(g10
I4
tp1517
(I8120
I8073
tp1518
s(g6
I7
tp1519
(I8039
I7934
tp1520
s(g8
I3
tp1521
(I8097
I8012
tp1522
s(g6
I8
tp1523
(I8015
I7918
tp1524
s(g8
I2
tp1525
(I8082
I8011
tp1526
ssba(iSample
Sample
p1527
(dp1528
g3
F1440597713.704558
sg4
(dp1529
g6
(I-54
I107
tp1530
sg8
(I-52
I107
tp1531
sg10
(I-64
I107
tp1532
ssg12
(dp1533
(g10
I6
tp1534
(I8144
I8083
tp1535
s(g10
I4
tp1536
(I8156
I8109
tp1537
s(g6
I7
tp1538
(I8069
I7963
tp1539
s(g8
I3
tp1540
(I8130
I8045
tp1541
s(g6
I8
tp1542
(I8045
I7947
tp1543
s(g8
I2
tp1544
(I8115
I8044
tp1545
ssba(iSample
Sample
p1546
(dp1547
g3
F1440597717.747015
sg4
(dp1548
g6
(I-54
I106
tp1549
sg8
(I-51
I107
tp1550
sg10
(I-74
I92
tp1551
ssg12
(dp1552
(g10
I6
tp1553
(I8174
I8113
tp1554
s(g10
I4
tp1555
(I8186
I8139
tp1556
s(g6
I7
tp1557
(I8099
I7993
tp1558
s(g8
I3
tp1559
(I8160
I8074
tp1560
s(g6
I8
tp1561
(I8075
I7977
tp1562
s(g8
I2
tp1563
(I8145
I8074
tp1564
ssba(iSample
Sample
p1565
(dp1566
g3
F1440597721.784614
sg4
(dp1567
g6
(I-59
I107
tp1568
sg8
(I-54
I107
tp1569
sg10
(I-56
I107
tp1570
ssg12
(dp1571
(g10
I6
tp1572
(I8205
I8144
tp1573
s(g10
I4
tp1574
(I8217
I8169
tp1575
s(g6
I7
tp1576
(I8130
I8024
tp1577
s(g8
I3
tp1578
(I8191
I8104
tp1579
s(g6
I8
tp1580
(I8106
I8008
tp1581
s(g8
I2
tp1582
(I8176
I8105
tp1583
ssba(iSample
Sample
p1584
(dp1585
g3
F1440597725.977394
sg4
(dp1586
g6
(I-58
I107
tp1587
sg8
(I-58
I106
tp1588
sg10
(I-52
I107
tp1589
ssg12
(dp1590
(g10
I6
tp1591
(I8235
I8174
tp1592
s(g10
I4
tp1593
(I8247
I8199
tp1594
s(g6
I7
tp1595
(I8160
I8054
tp1596
s(g8
I3
tp1597
(I8221
I8134
tp1598
s(g6
I8
tp1599
(I8136
I8038
tp1600
s(g8
I2
tp1601
(I8206
I8135
tp1602
ssba(iSample
Sample
p1603
(dp1604
g3
F1440597730.020058
sg4
(dp1605
g6
(I-55
I107
tp1606
sg8
(I-57
I107
tp1607
sg10
(I-56
I107
tp1608
ssg12
(dp1609
(g10
I6
tp1610
(I8265
I8204
tp1611
s(g10
I4
tp1612
(I8277
I8229
tp1613
s(g6
I7
tp1614
(I8190
I8084
tp1615
s(g8
I3
tp1616
(I8251
I8162
tp1617
s(g6
I8
tp1618
(I8166
I8068
tp1619
s(g8
I2
tp1620
(I8236
I8165
tp1621
ssba(iSample
Sample
p1622
(dp1623
g3
F1440597734.073576
sg4
(dp1624
g6
(I-55
I107
tp1625
sg8
(I-60
I107
tp1626
sg10
(I-54
I107
tp1627
ssg12
(dp1628
(g10
I6
tp1629
(I8296
I8235
tp1630
s(g10
I4
tp1631
(I8308
I8260
tp1632
s(g6
I7
tp1633
(I8221
I8115
tp1634
s(g8
I3
tp1635
(I8282
I8191
tp1636
s(g6
I8
tp1637
(I8197
I8099
tp1638
s(g8
I2
tp1639
(I8267
I8196
tp1640
ssba(iSample
Sample
p1641
(dp1642
g3
F1440597738.271162
sg4
(dp1643
g6
(I-59
I107
tp1644
sg8
(I-50
I107
tp1645
sg10
(I-56
I107
tp1646
ssg12
(dp1647
(g10
I6
tp1648
(I8326
I8265
tp1649
s(g10
I4
tp1650
(I8338
I8290
tp1651
s(g6
I7
tp1652
(I8468
I8358
tp1653
s(g8
I3
tp1654
(I8527
I8433
tp1655
s(g6
I8
tp1656
(I8444
I8340
tp1657
s(g8
I2
tp1658
(I8512
I8433
tp1659
ssba(iSample
Sample
p1660
(dp1661
g3
F1440597771.64414
sg4
(dp1662
g6
(I-56
I107
tp1663
sg8
(I-54
I107
tp1664
sg10
(I-63
I107
tp1665
ssg12
(dp1666
(g10
I6
tp1667
(I8575
I8509
tp1668
s(g10
I4
tp1669
(I8587
I8537
tp1670
s(g6
I7
tp1671
(I8500
I8390
tp1672
s(g8
I3
tp1673
(I8561
I8466
tp1674
s(g6
I8
tp1675
(I8476
I8372
tp1676
s(g8
I2
tp1677
(I8546
I8466
tp1678
ssba(iSample
Sample
p1679
(dp1680
g3
F1440597775.926374
sg4
(dp1681
g6
(I-55
I107
tp1682
sg8
(I-49
I107
tp1683
sg10
(I-62
I107
tp1684
ssg12
(dp1685
(g10
I6
tp1686
(I8605
I8539
tp1687
s(g10
I4
tp1688
(I8617
I8567
tp1689
s(g6
I7
tp1690
(I8531
I8420
tp1691
s(g8
I3
tp1692
(I8591
I8496
tp1693
s(g6
I8
tp1694
(I8507
I8403
tp1695
s(g8
I2
tp1696
(I8576
I8495
tp1697
ssba(iSample
Sample
p1698
(dp1699
g3
F1440597780.10014
sg4
(dp1700
g6
(I-59
I107
tp1701
sg8
(I-51
I107
tp1702
sg10
(I-58
I107
tp1703
ssg12
(dp1704
(g10
I6
tp1705
(I8636
I8569
tp1706
s(g10
I4
tp1707
(I8648
I8597
tp1708
s(g6
I7
tp1709
(I8561
I8449
tp1710
s(g8
I3
tp1711
(I8622
I8527
tp1712
s(g6
I8
tp1713
(I8537
I8432
tp1714
s(g8
I2
tp1715
(I8607
I8526
tp1716
ssba.