(lp0
(iSample
Sample
p1
(dp2
S'timeStamp'
p3
F1440410374.806262
sS'moteData'
p4
(dp5
(S'8031'
p6
I8
tp7
(I80
I75
tp8
s(S'8054'
p9
I6
tp10
(I105
I105
tp11
s(g9
I7
tp12
(I117
I117
tp13
s(g6
I3
tp14
(I97
I93
tp15
s(S'85d2'
p16
I4
tp17
(I72
I72
tp18
s(g16
I5
tp19
(I29
I29
tp20
ssba(iSample
Sample
p21
(dp22
g3
F1440410378.205325
sg4
(dp23
(g6
I8
tp24
(I105
I98
tp25
s(g9
I6
tp26
(I130
I130
tp27
s(g9
I7
tp28
(I142
I142
tp29
s(g6
I3
tp30
(I122
I115
tp31
s(g16
I4
tp32
(I102
I101
tp33
s(g16
I5
tp34
(I59
I59
tp35
ssba(iSample
Sample
p36
(dp37
g3
F1440410382.167354
sg4
(dp38
(g6
I8
tp39
(I134
I127
tp40
s(g9
I6
tp41
(I159
I159
tp42
s(g9
I7
tp43
(I171
I171
tp44
s(g6
I3
tp45
(I151
I143
tp46
s(g16
I4
tp47
(I126
I125
tp48
s(g16
I5
tp49
(I83
I83
tp50
ssba(iSample
Sample
p51
(dp52
g3
F1440410385.387891
sg4
(dp53
(g6
I8
tp54
(I158
I150
tp55
s(g9
I6
tp56
(I183
I183
tp57
s(g9
I7
tp58
(I195
I195
tp59
s(g6
I3
tp60
(I175
I167
tp61
s(g16
I4
tp62
(I150
I149
tp63
s(g16
I5
tp64
(I107
I106
tp65
ssba(iSample
Sample
p66
(dp67
g3
F1440410388.633305
sg4
(dp68
(g6
I8
tp69
(I184
I175
tp70
s(g9
I6
tp71
(I209
I209
tp72
s(g9
I7
tp73
(I221
I221
tp74
s(g6
I3
tp75
(I201
I192
tp76
s(g16
I4
tp77
(I176
I175
tp78
s(g16
I5
tp79
(I133
I131
tp80
ssba(iSample
Sample
p81
(dp82
g3
F1440410392.182834
sg4
(dp83
(g6
I8
tp84
(I208
I199
tp85
s(g9
I6
tp86
(I233
I233
tp87
s(g9
I7
tp88
(I245
I245
tp89
s(g6
I3
tp90
(I225
I216
tp91
s(g16
I4
tp92
(I200
I198
tp93
s(g16
I5
tp94
(I157
I155
tp95
ssba(iSample
Sample
p96
(dp97
g3
F1440410395.401408
sg4
(dp98
(g6
I8
tp99
(I232
I222
tp100
s(g9
I6
tp101
(I257
I257
tp102
s(g9
I7
tp103
(I269
I269
tp104
s(g6
I3
tp105
(I249
I239
tp106
s(g16
I4
tp107
(I224
I222
tp108
s(g16
I5
tp109
(I181
I179
tp110
ssba(iSample
Sample
p111
(dp112
g3
F1440410398.595034
sg4
(dp113
(g6
I8
tp114
(I256
I246
tp115
s(g9
I6
tp116
(I281
I281
tp117
s(g9
I7
tp118
(I293
I293
tp119
s(g6
I3
tp120
(I273
I262
tp121
s(g16
I4
tp122
(I250
I248
tp123
s(g16
I5
tp124
(I207
I204
tp125
ssba(iSample
Sample
p126
(dp127
g3
F1440410402.186428
sg4
(dp128
(g6
I8
tp129
(I284
I272
tp130
s(g9
I6
tp131
(I308
I308
tp132
s(g9
I7
tp133
(I320
I320
tp134
s(g6
I3
tp135
(I301
I290
tp136
s(g16
I4
tp137
(I276
I274
tp138
s(g16
I5
tp139
(I233
I229
tp140
ssba(iSample
Sample
p141
(dp142
g3
F1440410405.677384
sg4
(dp143
(g6
I8
tp144
(I308
I296
tp145
s(g9
I6
tp146
(I333
I333
tp147
s(g9
I7
tp148
(I345
I345
tp149
s(g6
I3
tp150
(I325
I314
tp151
s(g16
I4
tp152
(I300
I298
tp153
s(g16
I5
tp154
(I257
I252
tp155
ssba(iSample
Sample
p156
(dp157
g3
F1440410408.881036
sg4
(dp158
(g6
I8
tp159
(I333
I321
tp160
s(g9
I6
tp161
(I358
I358
tp162
s(g9
I7
tp163
(I370
I370
tp164
s(g6
I3
tp165
(I350
I339
tp166
s(g16
I4
tp167
(I325
I322
tp168
s(g16
I5
tp169
(I282
I276
tp170
ssba(iSample
Sample
p171
(dp172
g3
F1440410412.23521
sg4
(dp173
(g6
I8
tp174
(I357
I345
tp175
s(g9
I6
tp176
(I382
I382
tp177
s(g9
I7
tp178
(I394
I394
tp179
s(g6
I3
tp180
(I374
I363
tp181
s(g16
I4
tp182
(I349
I346
tp183
s(g16
I5
tp184
(I306
I300
tp185
ssba(iSample
Sample
p186
(dp187
g3
F1440410415.488344
sg4
(dp188
(g6
I8
tp189
(I381
I369
tp190
s(g9
I6
tp191
(I406
I406
tp192
s(g9
I7
tp193
(I418
I418
tp194
s(g6
I3
tp195
(I398
I387
tp196
s(g16
I4
tp197
(I373
I370
tp198
s(g16
I5
tp199
(I330
I324
tp200
ssba(iSample
Sample
p201
(dp202
g3
F1440410418.751312
sg4
(dp203
(g6
I8
tp204
(I410
I397
tp205
s(g9
I6
tp206
(I430
I430
tp207
s(g9
I7
tp208
(I442
I442
tp209
s(g6
I3
tp210
(I427
I416
tp211
s(g16
I4
tp212
(I404
I401
tp213
s(g16
I5
tp214
(I361
I355
tp215
ssba(iSample
Sample
p216
(dp217
g3
F1440410422.921176
sg4
(dp218
(g6
I8
tp219
(I437
I424
tp220
s(g9
I6
tp221
(I461
I461
tp222
s(g9
I7
tp223
(I473
I473
tp224
s(g6
I3
tp225
(I454
I443
tp226
s(g16
I4
tp227
(I429
I425
tp228
s(g16
I5
tp229
(I386
I380
tp230
ssba(iSample
Sample
p231
(dp232
g3
F1440410426.37064
sg4
(dp233
(g6
I8
tp234
(I465
I452
tp235
s(g9
I6
tp236
(I487
I487
tp237
s(g9
I7
tp238
(I499
I499
tp239
s(g6
I3
tp240
(I482
I471
tp241
s(g16
I4
tp242
(I457
I453
tp243
s(g16
I5
tp244
(I414
I408
tp245
ssba(iSample
Sample
p246
(dp247
g3
F1440410430.102095
sg4
(dp248
(g6
I8
tp249
(I489
I476
tp250
s(g9
I6
tp251
(I514
I514
tp252
s(g9
I7
tp253
(I526
I526
tp254
s(g6
I3
tp255
(I506
I495
tp256
s(g16
I4
tp257
(I481
I477
tp258
s(g16
I5
tp259
(I438
I432
tp260
ssba(iSample
Sample
p261
(dp262
g3
F1440410433.298145
sg4
(dp263
(g6
I8
tp264
(I513
I499
tp265
s(g9
I6
tp266
(I538
I538
tp267
s(g9
I7
tp268
(I550
I550
tp269
s(g6
I3
tp270
(I530
I518
tp271
s(g16
I4
tp272
(I505
I501
tp273
s(g16
I5
tp274
(I462
I456
tp275
ssba(iSample
Sample
p276
(dp277
g3
F1440410436.542562
sg4
(dp278
(g6
I8
tp279
(I537
I522
tp280
s(g9
I6
tp281
(I562
I562
tp282
s(g9
I7
tp283
(I574
I574
tp284
s(g6
I3
tp285
(I554
I541
tp286
s(g16
I4
tp287
(I529
I525
tp288
s(g16
I5
tp289
(I486
I480
tp290
ssba(iSample
Sample
p291
(dp292
g3
F1440410439.804552
sg4
(dp293
(g6
I8
tp294
(I561
I546
tp295
s(g9
I6
tp296
(I586
I586
tp297
s(g9
I7
tp298
(I598
I598
tp299
s(g6
I3
tp300
(I578
I565
tp301
s(g16
I4
tp302
(I553
I549
tp303
s(g16
I5
tp304
(I510
I503
tp305
ssba(iSample
Sample
p306
(dp307
g3
F1440410443.072028
sg4
(dp308
(g6
I8
tp309
(I585
I570
tp310
s(g9
I6
tp311
(I610
I610
tp312
s(g9
I7
tp313
(I622
I622
tp314
s(g6
I3
tp315
(I602
I589
tp316
s(g16
I4
tp317
(I578
I573
tp318
s(g16
I5
tp319
(I535
I528
tp320
ssba(iSample
Sample
p321
(dp322
g3
F1440410446.429165
sg4
(dp323
(g6
I8
tp324
(I610
I595
tp325
s(g9
I6
tp326
(I635
I635
tp327
s(g9
I7
tp328
(I647
I647
tp329
s(g6
I3
tp330
(I627
I614
tp331
s(g16
I4
tp332
(I603
I598
tp333
s(g16
I5
tp334
(I560
I552
tp335
ssba(iSample
Sample
p336
(dp337
g3
F1440410449.822744
sg4
(dp338
(g6
I8
tp339
(I635
I620
tp340
s(g9
I6
tp341
(I660
I660
tp342
s(g9
I7
tp343
(I672
I672
tp344
s(g6
I3
tp345
(I652
I639
tp346
s(g16
I4
tp347
(I627
I622
tp348
s(g16
I5
tp349
(I584
I576
tp350
ssba(iSample
Sample
p351
(dp352
g3
F1440410453.031113
sg4
(dp353
(g6
I8
tp354
(I659
I643
tp355
s(g9
I6
tp356
(I684
I684
tp357
s(g9
I7
tp358
(I696
I696
tp359
s(g6
I3
tp360
(I676
I663
tp361
s(g16
I4
tp362
(I652
I647
tp363
s(g16
I5
tp364
(I609
I601
tp365
ssba(iSample
Sample
p366
(dp367
g3
F1440410456.430216
sg4
(dp368
(g6
I8
tp369
(I684
I668
tp370
s(g9
I6
tp371
(I709
I709
tp372
s(g9
I7
tp373
(I721
I721
tp374
s(g6
I3
tp375
(I701
I688
tp376
s(g16
I4
tp377
(I676
I670
tp378
s(g16
I5
tp379
(I633
I625
tp380
ssba(iSample
Sample
p381
(dp382
g3
F1440410459.684442
sg4
(dp383
(g6
I8
tp384
(I709
I692
tp385
s(g9
I6
tp386
(I734
I734
tp387
s(g9
I7
tp388
(I746
I745
tp389
s(g6
I3
tp390
(I726
I712
tp391
s(g16
I4
tp392
(I701
I694
tp393
s(g16
I5
tp394
(I658
I650
tp395
ssba(iSample
Sample
p396
(dp397
g3
F1440410463.096901
sg4
(dp398
(g6
I8
tp399
(I734
I717
tp400
s(g9
I6
tp401
(I759
I759
tp402
s(g9
I7
tp403
(I771
I770
tp404
s(g6
I3
tp405
(I751
I736
tp406
s(g16
I4
tp407
(I726
I719
tp408
s(g16
I5
tp409
(I683
I674
tp410
ssba(iSample
Sample
p411
(dp412
g3
F1440410466.428423
sg4
(dp413
(g6
I8
tp414
(I758
I741
tp415
s(g9
I6
tp416
(I783
I783
tp417
s(g9
I7
tp418
(I795
I794
tp419
s(g6
I3
tp420
(I775
I760
tp421
s(g16
I4
tp422
(I750
I743
tp423
s(g16
I5
tp424
(I707
I697
tp425
ssba(iSample
Sample
p426
(dp427
g3
F1440410469.685485
sg4
(dp428
(g6
I8
tp429
(I782
I765
tp430
s(g9
I6
tp431
(I807
I807
tp432
s(g9
I7
tp433
(I819
I818
tp434
s(g6
I3
tp435
(I799
I784
tp436
s(g16
I4
tp437
(I774
I767
tp438
s(g16
I5
tp439
(I731
I721
tp440
ssba(iSample
Sample
p441
(dp442
g3
F1440410472.897202
sg4
(dp443
(g6
I8
tp444
(I807
I790
tp445
s(g9
I6
tp446
(I832
I832
tp447
s(g9
I7
tp448
(I844
I842
tp449
s(g6
I3
tp450
(I824
I809
tp451
s(g16
I4
tp452
(I799
I792
tp453
s(g16
I5
tp454
(I756
I746
tp455
ssba(iSample
Sample
p456
(dp457
g3
F1440410476.281364
sg4
(dp458
(g6
I8
tp459
(I831
I814
tp460
s(g9
I6
tp461
(I856
I856
tp462
s(g9
I7
tp463
(I868
I866
tp464
s(g6
I3
tp465
(I848
I833
tp466
s(g16
I4
tp467
(I823
I816
tp468
s(g16
I5
tp469
(I780
I770
tp470
ssba(iSample
Sample
p471
(dp472
g3
F1440410479.531032
sg4
(dp473
(g6
I8
tp474
(I858
I841
tp475
s(g9
I6
tp476
(I880
I880
tp477
s(g9
I7
tp478
(I892
I890
tp479
s(g6
I3
tp480
(I875
I860
tp481
s(g16
I4
tp482
(I850
I843
tp483
s(g16
I5
tp484
(I807
I797
tp485
ssba(iSample
Sample
p486
(dp487
g3
F1440410483.136579
sg4
(dp488
(g6
I8
tp489
(I882
I865
tp490
s(g9
I6
tp491
(I907
I907
tp492
s(g9
I7
tp493
(I919
I917
tp494
s(g6
I3
tp495
(I899
I884
tp496
s(g16
I4
tp497
(I874
I867
tp498
s(g16
I5
tp499
(I831
I820
tp500
ssba(iSample
Sample
p501
(dp502
g3
F1440410486.384863
sg4
(dp503
(g6
I8
tp504
(I909
I892
tp505
s(g9
I6
tp506
(I934
I934
tp507
s(g9
I7
tp508
(I946
I944
tp509
s(g6
I3
tp510
(I926
I910
tp511
s(g16
I4
tp512
(I901
I893
tp513
s(g16
I5
tp514
(I858
I847
tp515
ssba(iSample
Sample
p516
(dp517
g3
F1440410490.081527
sg4
(dp518
(g6
I8
tp519
(I936
I919
tp520
s(g9
I6
tp521
(I961
I961
tp522
s(g9
I7
tp523
(I973
I971
tp524
s(g6
I3
tp525
(I953
I937
tp526
s(g16
I4
tp527
(I928
I920
tp528
s(g16
I5
tp529
(I885
I874
tp530
ssba(iSample
Sample
p531
(dp532
g3
F1440410493.678924
sg4
(dp533
(g6
I8
tp534
(I961
I943
tp535
s(g9
I6
tp536
(I985
I985
tp537
s(g9
I7
tp538
(I997
I995
tp539
s(g6
I3
tp540
(I978
I962
tp541
s(g16
I4
tp542
(I953
I945
tp543
s(g16
I5
tp544
(I910
I899
tp545
ssba(iSample
Sample
p546
(dp547
g3
F1440410497.100783
sg4
(dp548
(g6
I8
tp549
(I985
I967
tp550
s(g9
I6
tp551
(I1010
I1010
tp552
s(g9
I7
tp553
(I1022
I1019
tp554
s(g6
I3
tp555
(I1002
I986
tp556
s(g16
I4
tp557
(I977
I969
tp558
s(g16
I5
tp559
(I934
I923
tp560
ssba(iSample
Sample
p561
(dp562
g3
F1440410500.303494
sg4
(dp563
(g6
I8
tp564
(I1013
I995
tp565
s(g9
I6
tp566
(I1038
I1038
tp567
s(g9
I7
tp568
(I1050
I1047
tp569
s(g6
I3
tp570
(I1030
I1014
tp571
s(g16
I4
tp572
(I1005
I996
tp573
s(g16
I5
tp574
(I962
I951
tp575
ssba(iSample
Sample
p576
(dp577
g3
F1440410504.102885
sg4
(dp578
(g6
I8
tp579
(I1037
I1019
tp580
s(g9
I6
tp581
(I1062
I1062
tp582
s(g9
I7
tp583
(I1074
I1071
tp584
s(g6
I3
tp585
(I1054
I1038
tp586
s(g16
I4
tp587
(I1029
I1020
tp588
s(g16
I5
tp589
(I986
I975
tp590
ssba(iSample
Sample
p591
(dp592
g3
F1440410507.385311
sg4
(dp593
(g6
I8
tp594
(I1062
I1044
tp595
s(g9
I6
tp596
(I1087
I1087
tp597
s(g9
I7
tp598
(I1099
I1096
tp599
s(g6
I3
tp600
(I1079
I1062
tp601
s(g16
I4
tp602
(I1054
I1045
tp603
s(g16
I5
tp604
(I1011
I1000
tp605
ssba(iSample
Sample
p606
(dp607
g3
F1440410510.703932
sg4
(dp608
(g6
I8
tp609
(I1086
I1068
tp610
s(g9
I6
tp611
(I1111
I1111
tp612
s(g9
I7
tp613
(I1123
I1120
tp614
s(g6
I3
tp615
(I1103
I1086
tp616
s(g16
I4
tp617
(I1078
I1069
tp618
s(g16
I5
tp619
(I1035
I1023
tp620
ssba(iSample
Sample
p621
(dp622
g3
F1440410513.965817
sg4
(dp623
(g6
I8
tp624
(I1112
I1094
tp625
s(g9
I6
tp626
(I1137
I1137
tp627
s(g9
I7
tp628
(I1149
I1146
tp629
s(g6
I3
tp630
(I1129
I1112
tp631
s(g16
I4
tp632
(I1104
I1095
tp633
s(g16
I5
tp634
(I1061
I1049
tp635
ssba(iSample
Sample
p636
(dp637
g3
F1440410517.474579
sg4
(dp638
(g6
I8
tp639
(I1136
I1118
tp640
s(g9
I6
tp641
(I1161
I1161
tp642
s(g9
I7
tp643
(I1173
I1170
tp644
s(g6
I3
tp645
(I1153
I1134
tp646
s(g16
I4
tp647
(I1128
I1119
tp648
s(g16
I5
tp649
(I1085
I1073
tp650
ssba(iSample
Sample
p651
(dp652
g3
F1440410520.678068
sg4
(dp653
(g6
I8
tp654
(I1160
I1142
tp655
s(g9
I6
tp656
(I1185
I1185
tp657
s(g9
I7
tp658
(I1197
I1194
tp659
s(g6
I3
tp660
(I1177
I1158
tp661
s(g16
I4
tp662
(I1152
I1143
tp663
s(g16
I5
tp664
(I1109
I1097
tp665
ssba(iSample
Sample
p666
(dp667
g3
F1440410523.927714
sg4
(dp668
(g6
I8
tp669
(I1184
I1166
tp670
s(g9
I6
tp671
(I1209
I1209
tp672
s(g9
I7
tp673
(I1221
I1218
tp674
s(g6
I3
tp675
(I1201
I1182
tp676
s(g16
I4
tp677
(I1176
I1167
tp678
s(g16
I5
tp679
(I1133
I1120
tp680
ssba(iSample
Sample
p681
(dp682
g3
F1440410527.223201
sg4
(dp683
(g6
I8
tp684
(I1208
I1190
tp685
s(g9
I6
tp686
(I1233
I1233
tp687
s(g9
I7
tp688
(I1245
I1242
tp689
s(g6
I3
tp690
(I1225
I1206
tp691
s(g16
I4
tp692
(I1201
I1192
tp693
s(g16
I5
tp694
(I1158
I1145
tp695
ssba(iSample
Sample
p696
(dp697
g3
F1440410530.576392
sg4
(dp698
(g6
I8
tp699
(I1233
I1215
tp700
s(g9
I6
tp701
(I1258
I1258
tp702
s(g9
I7
tp703
(I1270
I1267
tp704
s(g6
I3
tp705
(I1250
I1231
tp706
s(g16
I4
tp707
(I1225
I1216
tp708
s(g16
I5
tp709
(I1182
I1169
tp710
ssba(iSample
Sample
p711
(dp712
g3
F1440410533.791119
sg4
(dp713
(g6
I8
tp714
(I1257
I1239
tp715
s(g9
I6
tp716
(I1282
I1282
tp717
s(g9
I7
tp718
(I1294
I1291
tp719
s(g6
I3
tp720
(I1274
I1254
tp721
s(g16
I4
tp722
(I1249
I1240
tp723
s(g16
I5
tp724
(I1206
I1193
tp725
ssba(iSample
Sample
p726
(dp727
g3
F1440410537.098796
sg4
(dp728
(g6
I8
tp729
(I1282
I1264
tp730
s(g9
I6
tp731
(I1307
I1307
tp732
s(g9
I7
tp733
(I1319
I1316
tp734
s(g6
I3
tp735
(I1299
I1279
tp736
s(g16
I4
tp737
(I1274
I1265
tp738
s(g16
I5
tp739
(I1231
I1218
tp740
ssba(iSample
Sample
p741
(dp742
g3
F1440410540.424042
sg4
(dp743
(g6
I8
tp744
(I1307
I1289
tp745
s(g9
I6
tp746
(I1331
I1331
tp747
s(g9
I7
tp748
(I1343
I1340
tp749
s(g6
I3
tp750
(I1324
I1304
tp751
s(g16
I4
tp752
(I1299
I1290
tp753
s(g16
I5
tp754
(I1256
I1243
tp755
ssba(iSample
Sample
p756
(dp757
g3
F1440410543.785773
sg4
(dp758
(g6
I8
tp759
(I1334
I1316
tp760
s(g9
I6
tp761
(I1356
I1356
tp762
s(g9
I7
tp763
(I1368
I1365
tp764
s(g6
I3
tp765
(I1351
I1329
tp766
s(g16
I4
tp767
(I1327
I1317
tp768
s(g16
I5
tp769
(I1284
I1271
tp770
ssba(iSample
Sample
p771
(dp772
g3
F1440410547.612561
sg4
(dp773
(g6
I8
tp774
(I1359
I1341
tp775
s(g9
I6
tp776
(I1384
I1384
tp777
s(g9
I7
tp778
(I1396
I1393
tp779
s(g6
I3
tp780
(I1376
I1354
tp781
s(g16
I4
tp782
(I1351
I1341
tp783
s(g16
I5
tp784
(I1308
I1295
tp785
ssba(iSample
Sample
p786
(dp787
g3
F1440410550.823285
sg4
(dp788
(g6
I8
tp789
(I1383
I1365
tp790
s(g9
I6
tp791
(I1408
I1408
tp792
s(g9
I7
tp793
(I1420
I1417
tp794
s(g6
I3
tp795
(I1400
I1378
tp796
s(g16
I4
tp797
(I1375
I1365
tp798
s(g16
I5
tp799
(I1332
I1319
tp800
ssba(iSample
Sample
p801
(dp802
g3
F1440410554.0763
sg4
(dp803
(g6
I8
tp804
(I1407
I1389
tp805
s(g9
I6
tp806
(I1432
I1432
tp807
s(g9
I7
tp808
(I1444
I1441
tp809
s(g6
I3
tp810
(I1424
I1402
tp811
s(g16
I4
tp812
(I1399
I1389
tp813
s(g16
I5
tp814
(I1356
I1343
tp815
ssba(iSample
Sample
p816
(dp817
g3
F1440410557.33081
sg4
(dp818
(g6
I8
tp819
(I1431
I1413
tp820
s(g9
I6
tp821
(I1456
I1456
tp822
s(g9
I7
tp823
(I1468
I1465
tp824
s(g6
I3
tp825
(I1448
I1425
tp826
s(g16
I4
tp827
(I1423
I1413
tp828
s(g16
I5
tp829
(I1380
I1367
tp830
ssba(iSample
Sample
p831
(dp832
g3
F1440410560.529575
sg4
(dp833
(g6
I8
tp834
(I1455
I1437
tp835
s(g9
I6
tp836
(I1480
I1480
tp837
s(g9
I7
tp838
(I1492
I1489
tp839
s(g6
I3
tp840
(I1472
I1448
tp841
s(g16
I4
tp842
(I1447
I1437
tp843
s(g16
I5
tp844
(I1404
I1391
tp845
ssba(iSample
Sample
p846
(dp847
g3
F1440410563.773799
sg4
(dp848
(g6
I8
tp849
(I1479
I1461
tp850
s(g9
I6
tp851
(I1504
I1504
tp852
s(g9
I7
tp853
(I1516
I1513
tp854
s(g6
I3
tp855
(I1496
I1472
tp856
s(g16
I4
tp857
(I1470
I1459
tp858
s(g16
I5
tp859
(I1427
I1414
tp860
ssba(iSample
Sample
p861
(dp862
g3
F1440410567.015717
sg4
(dp863
(g6
I8
tp864
(I1503
I1485
tp865
s(g9
I6
tp866
(I1528
I1528
tp867
s(g9
I7
tp868
(I1540
I1537
tp869
s(g6
I3
tp870
(I1520
I1496
tp871
s(g16
I4
tp872
(I1497
I1486
tp873
s(g16
I5
tp874
(I1454
I1439
tp875
ssba(iSample
Sample
p876
(dp877
g3
F1440410570.666271
sg4
(dp878
(g6
I8
tp879
(I1530
I1511
tp880
s(g9
I6
tp881
(I1555
I1555
tp882
s(g9
I7
tp883
(I1567
I1564
tp884
s(g6
I3
tp885
(I1547
I1523
tp886
s(g16
I4
tp887
(I1521
I1510
tp888
s(g16
I5
tp889
(I1478
I1463
tp890
ssba(iSample
Sample
p891
(dp892
g3
F1440410573.951317
sg4
(dp893
(g6
I8
tp894
(I1556
I1537
tp895
s(g9
I6
tp896
(I1581
I1581
tp897
s(g9
I7
tp898
(I1593
I1590
tp899
s(g6
I3
tp900
(I1573
I1549
tp901
s(g16
I4
tp902
(I1547
I1536
tp903
s(g16
I5
tp904
(I1504
I1488
tp905
ssba.