(lp0
(iSample
Sample
p1
(dp2
S'timeStamp'
p3
F1440415407.969978
sS'moteData'
p4
(dp5
(S'8031'
p6
I6
tp7
(I1090
I1012
tp8
s(S'85d2'
p9
I3
tp10
(I960
I945
tp11
s(S'8054'
p12
I5
tp13
(I1108
I1084
tp14
s(g9
I4
tp15
(I1070
I1051
tp16
s(g6
I2
tp17
(I1081
I1006
tp18
s(g12
I8
tp19
(I1097
I1075
tp20
ssba(iSample
Sample
p21
(dp22
g3
F1440415411.077825
sg4
(dp23
(g6
I6
tp24
(I1113
I1033
tp25
s(g9
I3
tp26
(I984
I969
tp27
s(g12
I5
tp28
(I1131
I1107
tp29
s(g9
I4
tp30
(I1094
I1075
tp31
s(g6
I2
tp32
(I1104
I1026
tp33
s(g12
I8
tp34
(I1120
I1098
tp35
ssba(iSample
Sample
p36
(dp37
g3
F1440415414.261021
sg4
(dp38
(g6
I6
tp39
(I1137
I1055
tp40
s(g9
I3
tp41
(I1008
I993
tp42
s(g12
I5
tp43
(I1154
I1130
tp44
s(g9
I4
tp45
(I1118
I1098
tp46
s(g6
I2
tp47
(I1128
I1048
tp48
s(g12
I8
tp49
(I1143
I1120
tp50
ssba(iSample
Sample
p51
(dp52
g3
F1440415417.50817
sg4
(dp53
(g6
I6
tp54
(I1161
I1076
tp55
s(g9
I3
tp56
(I1034
I1019
tp57
s(g12
I5
tp58
(I1178
I1154
tp59
s(g9
I4
tp60
(I1144
I1123
tp61
s(g6
I2
tp62
(I1152
I1069
tp63
s(g12
I8
tp64
(I1167
I1143
tp65
ssba(iSample
Sample
p66
(dp67
g3
F1440415421.067618
sg4
(dp68
(g6
I6
tp69
(I1187
I1099
tp70
s(g9
I3
tp71
(I1059
I1044
tp72
s(g12
I5
tp73
(I1205
I1181
tp74
s(g9
I4
tp75
(I1169
I1148
tp76
s(g6
I2
tp77
(I1178
I1093
tp78
s(g12
I8
tp79
(I1194
I1170
tp80
ssba(iSample
Sample
p81
(dp82
g3
F1440415424.387606
sg4
(dp83
(g6
I6
tp84
(I1211
I1120
tp85
s(g9
I3
tp86
(I1081
I1066
tp87
s(g12
I5
tp88
(I1229
I1205
tp89
s(g9
I4
tp90
(I1191
I1170
tp91
s(g6
I2
tp92
(I1202
I1117
tp93
s(g12
I8
tp94
(I1218
I1194
tp95
ssba(iSample
Sample
p96
(dp97
g3
F1440415427.36348
sg4
(dp98
(g6
I6
tp99
(I1234
I1142
tp100
s(g9
I3
tp101
(I1106
I1090
tp102
s(g12
I5
tp103
(I1251
I1226
tp104
s(g9
I4
tp105
(I1216
I1195
tp106
s(g6
I2
tp107
(I1225
I1140
tp108
s(g12
I8
tp109
(I1240
I1216
tp110
ssba(iSample
Sample
p111
(dp112
g3
F1440415430.723298
sg4
(dp113
(g6
I6
tp114
(I1258
I1164
tp115
s(g9
I3
tp116
(I1128
I1112
tp117
s(g12
I5
tp118
(I1276
I1251
tp119
s(g9
I4
tp120
(I1238
I1217
tp121
s(g6
I2
tp122
(I1249
I1163
tp123
s(g12
I8
tp124
(I1265
I1241
tp125
ssba(iSample
Sample
p126
(dp127
g3
F1440415433.680694
sg4
(dp128
(g6
I6
tp129
(I1280
I1186
tp130
s(g9
I3
tp131
(I1150
I1134
tp132
s(g12
I5
tp133
(I1298
I1273
tp134
s(g9
I4
tp135
(I1260
I1239
tp136
s(g6
I2
tp137
(I1271
I1183
tp138
s(g12
I8
tp139
(I1287
I1263
tp140
ssba(iSample
Sample
p141
(dp142
g3
F1440415436.722861
sg4
(dp143
(g6
I6
tp144
(I1302
I1206
tp145
s(g9
I3
tp146
(I1172
I1156
tp147
s(g12
I5
tp148
(I1320
I1295
tp149
s(g9
I4
tp150
(I1282
I1260
tp151
s(g6
I2
tp152
(I1293
I1203
tp153
s(g12
I8
tp154
(I1309
I1285
tp155
ssba(iSample
Sample
p156
(dp157
g3
F1440415439.635064
sg4
(dp158
(g6
I6
tp159
(I1324
I1225
tp160
s(g9
I3
tp161
(I1194
I1177
tp162
s(g12
I5
tp163
(I1342
I1317
tp164
s(g9
I4
tp165
(I1304
I1282
tp166
s(g6
I2
tp167
(I1315
I1223
tp168
s(g12
I8
tp169
(I1331
I1307
tp170
ssba(iSample
Sample
p171
(dp172
g3
F1440415442.606294
sg4
(dp173
(g6
I6
tp174
(I1346
I1245
tp175
s(g9
I3
tp176
(I1216
I1199
tp177
s(g12
I5
tp178
(I1364
I1338
tp179
s(g9
I4
tp180
(I1326
I1304
tp181
s(g6
I2
tp182
(I1337
I1243
tp183
s(g12
I8
tp184
(I1353
I1329
tp185
ssba(iSample
Sample
p186
(dp187
g3
F1440415445.574812
sg4
(dp188
(g6
I6
tp189
(I1368
I1266
tp190
s(g9
I3
tp191
(I1238
I1221
tp192
s(g12
I5
tp193
(I1386
I1360
tp194
s(g9
I4
tp195
(I1348
I1326
tp196
s(g6
I2
tp197
(I1359
I1263
tp198
s(g12
I8
tp199
(I1375
I1350
tp200
ssba(iSample
Sample
p201
(dp202
g3
F1440415448.540809
sg4
(dp203
(g6
I6
tp204
(I1390
I1286
tp205
s(g9
I3
tp206
(I1260
I1241
tp207
s(g12
I5
tp208
(I1408
I1381
tp209
s(g9
I4
tp210
(I1370
I1347
tp211
s(g6
I2
tp212
(I1381
I1284
tp213
s(g12
I8
tp214
(I1397
I1371
tp215
ssba(iSample
Sample
p216
(dp217
g3
F1440415451.514439
sg4
(dp218
(g6
I6
tp219
(I1413
I1307
tp220
s(g9
I3
tp221
(I1285
I1266
tp222
s(g12
I5
tp223
(I1431
I1403
tp224
s(g9
I4
tp225
(I1395
I1372
tp226
s(g6
I2
tp227
(I1404
I1305
tp228
s(g12
I8
tp229
(I1420
I1394
tp230
ssba(iSample
Sample
p231
(dp232
g3
F1440415454.935392
sg4
(dp233
(g6
I6
tp234
(I1437
I1329
tp235
s(g9
I3
tp236
(I1307
I1288
tp237
s(g12
I5
tp238
(I1455
I1427
tp239
s(g9
I4
tp240
(I1417
I1392
tp241
s(g6
I2
tp242
(I1428
I1328
tp243
s(g12
I8
tp244
(I1444
I1418
tp245
ssba(iSample
Sample
p246
(dp247
g3
F1440415457.909259
sg4
(dp248
(g6
I6
tp249
(I1459
I1350
tp250
s(g9
I3
tp251
(I1330
I1311
tp252
s(g12
I5
tp253
(I1477
I1449
tp254
s(g9
I4
tp255
(I1440
I1414
tp256
s(g6
I2
tp257
(I1450
I1348
tp258
s(g12
I8
tp259
(I1466
I1440
tp260
ssba(iSample
Sample
p261
(dp262
g3
F1440415460.961441
sg4
(dp263
(g6
I6
tp264
(I1483
I1372
tp265
s(g9
I3
tp266
(I1353
I1334
tp267
s(g12
I5
tp268
(I1500
I1472
tp269
s(g9
I4
tp270
(I1463
I1437
tp271
s(g6
I2
tp272
(I1474
I1370
tp273
s(g12
I8
tp274
(I1489
I1463
tp275
ssba(iSample
Sample
p276
(dp277
g3
F1440415464.068633
sg4
(dp278
(g6
I6
tp279
(I1505
I1393
tp280
s(g9
I3
tp281
(I1375
I1355
tp282
s(g12
I5
tp283
(I1523
I1495
tp284
s(g9
I4
tp285
(I1485
I1458
tp286
s(g6
I2
tp287
(I1496
I1391
tp288
s(g12
I8
tp289
(I1512
I1486
tp290
ssba(iSample
Sample
p291
(dp292
g3
F1440415467.086853
sg4
(dp293
(g6
I6
tp294
(I1527
I1413
tp295
s(g9
I3
tp296
(I1398
I1378
tp297
s(g12
I5
tp298
(I1545
I1517
tp299
s(g9
I4
tp300
(I1508
I1481
tp301
s(g6
I2
tp302
(I1518
I1413
tp303
s(g12
I8
tp304
(I1534
I1508
tp305
ssba(iSample
Sample
p306
(dp307
g3
F1440415470.142966
sg4
(dp308
(g6
I6
tp309
(I1550
I1436
tp310
s(g9
I3
tp311
(I1424
I1404
tp312
s(g12
I5
tp313
(I1568
I1540
tp314
s(g9
I4
tp315
(I1534
I1507
tp316
s(g6
I2
tp317
(I1541
I1435
tp318
s(g12
I8
tp319
(I1557
I1531
tp320
ssba(iSample
Sample
p321
(dp322
g3
F1440415473.660307
sg4
(dp323
(g6
I6
tp324
(I1579
I1463
tp325
s(g9
I3
tp326
(I1449
I1428
tp327
s(g12
I5
tp328
(I1596
I1568
tp329
s(g9
I4
tp330
(I1559
I1532
tp331
s(g6
I2
tp332
(I1570
I1460
tp333
s(g12
I8
tp334
(I1585
I1558
tp335
ssba(iSample
Sample
p336
(dp337
g3
F1440415477.100286
sg4
(dp338
(g6
I6
tp339
(I1601
I1484
tp340
s(g9
I3
tp341
(I1471
I1450
tp342
s(g12
I5
tp343
(I1619
I1591
tp344
s(g9
I4
tp345
(I1581
I1554
tp346
s(g6
I2
tp347
(I1592
I1479
tp348
s(g12
I8
tp349
(I1608
I1581
tp350
ssba(iSample
Sample
p351
(dp352
g3
F1440415480.020113
sg4
(dp353
(g6
I6
tp354
(I1623
I1504
tp355
s(g9
I3
tp356
(I1493
I1471
tp357
s(g12
I5
tp358
(I1641
I1613
tp359
s(g9
I4
tp360
(I1603
I1575
tp361
s(g6
I2
tp362
(I1614
I1500
tp363
s(g12
I8
tp364
(I1630
I1603
tp365
ssba(iSample
Sample
p366
(dp367
g3
F1440415482.992331
sg4
(dp368
(g6
I6
tp369
(I1647
I1526
tp370
s(g9
I3
tp371
(I1518
I1496
tp372
s(g12
I5
tp373
(I1664
I1636
tp374
s(g9
I4
tp375
(I1628
I1599
tp376
s(g6
I2
tp377
(I1638
I1522
tp378
s(g12
I8
tp379
(I1653
I1625
tp380
ssba(iSample
Sample
p381
(dp382
g3
F1440415486.363202
sg4
(dp383
(g6
I6
tp384
(I1670
I1547
tp385
s(g9
I3
tp386
(I1540
I1518
tp387
s(g12
I5
tp388
(I1688
I1660
tp389
s(g9
I4
tp390
(I1650
I1621
tp391
s(g6
I2
tp392
(I1661
I1544
tp393
s(g12
I8
tp394
(I1677
I1649
tp395
ssba(iSample
Sample
p396
(dp397
g3
F1440415489.34784
sg4
(dp398
(g6
I6
tp399
(I1692
I1567
tp400
s(g9
I3
tp401
(I1562
I1540
tp402
s(g12
I5
tp403
(I1710
I1682
tp404
s(g9
I4
tp405
(I1672
I1643
tp406
s(g6
I2
tp407
(I1683
I1564
tp408
s(g12
I8
tp409
(I1699
I1671
tp410
ssba(iSample
Sample
p411
(dp412
g3
F1440415492.314015
sg4
(dp413
(g6
I6
tp414
(I1714
I1587
tp415
s(g9
I3
tp416
(I1585
I1563
tp417
s(g12
I5
tp418
(I1732
I1704
tp419
s(g9
I4
tp420
(I1695
I1665
tp421
s(g6
I2
tp422
(I1705
I1583
tp423
s(g12
I8
tp424
(I1721
I1693
tp425
ssba(iSample
Sample
p426
(dp427
g3
F1440415495.439467
sg4
(dp428
(g6
I6
tp429
(I1738
I1607
tp430
s(g9
I3
tp431
(I1609
I1586
tp432
s(g12
I5
tp433
(I1755
I1727
tp434
s(g9
I4
tp435
(I1719
I1688
tp436
s(g6
I2
tp437
(I1729
I1604
tp438
s(g12
I8
tp439
(I1744
I1714
tp440
ssba(iSample
Sample
p441
(dp442
g3
F1440415498.657572
sg4
(dp443
(g6
I6
tp444
(I1761
I1629
tp445
s(g9
I3
tp446
(I1631
I1608
tp447
s(g12
I5
tp448
(I1779
I1751
tp449
s(g9
I4
tp450
(I1741
I1710
tp451
s(g6
I2
tp452
(I1752
I1625
tp453
s(g12
I8
tp454
(I1768
I1737
tp455
ssba(iSample
Sample
p456
(dp457
g3
F1440415501.678102
sg4
(dp458
(g6
I6
tp459
(I1784
I1649
tp460
s(g9
I3
tp461
(I1654
I1630
tp462
s(g12
I5
tp463
(I1801
I1771
tp464
s(g9
I4
tp465
(I1764
I1730
tp466
s(g6
I2
tp467
(I1775
I1645
tp468
s(g12
I8
tp469
(I1790
I1759
tp470
ssba(iSample
Sample
p471
(dp472
g3
F1440415504.731343
sg4
(dp473
(g6
I6
tp474
(I1806
I1670
tp475
s(g9
I3
tp476
(I1676
I1652
tp477
s(g12
I5
tp478
(I1824
I1794
tp479
s(g9
I4
tp480
(I1786
I1752
tp481
s(g6
I2
tp482
(I1797
I1665
tp483
s(g12
I8
tp484
(I1813
I1782
tp485
ssba(iSample
Sample
p486
(dp487
g3
F1440415507.692991
sg4
(dp488
(g6
I6
tp489
(I1828
I1690
tp490
s(g9
I3
tp491
(I1698
I1673
tp492
s(g12
I5
tp493
(I1846
I1816
tp494
s(g9
I4
tp495
(I1808
I1774
tp496
s(g6
I2
tp497
(I1819
I1686
tp498
s(g12
I8
tp499
(I1835
I1804
tp500
ssba(iSample
Sample
p501
(dp502
g3
F1440415510.706413
sg4
(dp503
(g6
I6
tp504
(I1850
I1711
tp505
s(g9
I3
tp506
(I1721
I1696
tp507
s(g12
I5
tp508
(I1868
I1837
tp509
s(g9
I4
tp510
(I1831
I1797
tp511
s(g6
I2
tp512
(I1841
I1705
tp513
s(g12
I8
tp514
(I1857
I1825
tp515
ssba(iSample
Sample
p516
(dp517
g3
F1440415513.82509
sg4
(dp518
(g6
I6
tp519
(I1874
I1734
tp520
s(g9
I3
tp521
(I1744
I1719
tp522
s(g12
I5
tp523
(I1892
I1861
tp524
s(g9
I4
tp525
(I1854
I1820
tp526
s(g6
I2
tp527
(I1865
I1729
tp528
s(g12
I8
tp529
(I1881
I1849
tp530
ssba(iSample
Sample
p531
(dp532
g3
F1440415516.893214
sg4
(dp533
(g6
I6
tp534
(I1896
I1755
tp535
s(g9
I3
tp536
(I1769
I1744
tp537
s(g12
I5
tp538
(I1914
I1883
tp539
s(g9
I4
tp540
(I1879
I1845
tp541
s(g6
I2
tp542
(I1887
I1750
tp543
s(g12
I8
tp544
(I1903
I1871
tp545
ssba(iSample
Sample
p546
(dp547
g3
F1440415520.257989
sg4
(dp548
(g6
I6
tp549
(I1924
I1781
tp550
s(g9
I3
tp551
(I1794
I1769
tp552
s(g12
I5
tp553
(I1939
I1907
tp554
s(g9
I4
tp555
(I1904
I1868
tp556
s(g6
I2
tp557
(I1915
I1777
tp558
s(g12
I8
tp559
(I1928
I1896
tp560
ssba(iSample
Sample
p561
(dp562
g3
F1440415523.671471
sg4
(dp563
(g6
I6
tp564
(I1946
I1803
tp565
s(g9
I3
tp566
(I1817
I1792
tp567
s(g12
I5
tp568
(I1964
I1932
tp569
s(g9
I4
tp570
(I1927
I1889
tp571
s(g6
I2
tp572
(I1937
I1796
tp573
s(g12
I8
tp574
(I1953
I1920
tp575
ssba(iSample
Sample
p576
(dp577
g3
F1440415526.729691
sg4
(dp578
(g6
I6
tp579
(I1969
I1825
tp580
s(g9
I3
tp581
(I1840
I1815
tp582
s(g12
I5
tp583
(I1987
I1955
tp584
s(g9
I4
tp585
(I1950
I1912
tp586
s(g6
I2
tp587
(I1960
I1817
tp588
s(g12
I8
tp589
(I1976
I1943
tp590
ssba(iSample
Sample
p591
(dp592
g3
F1440415529.862544
sg4
(dp593
(g6
I6
tp594
(I1992
I1847
tp595
s(g9
I3
tp596
(I1862
I1836
tp597
s(g12
I5
tp598
(I2010
I1977
tp599
s(g9
I4
tp600
(I1972
I1933
tp601
s(g6
I2
tp602
(I1983
I1840
tp603
s(g12
I8
tp604
(I1999
I1966
tp605
ssba(iSample
Sample
p606
(dp607
g3
F1440415532.831282
sg4
(dp608
(g6
I6
tp609
(I2014
I1868
tp610
s(g9
I3
tp611
(I1887
I1860
tp612
s(g12
I5
tp613
(I2032
I1999
tp614
s(g9
I4
tp615
(I1997
I1958
tp616
s(g6
I2
tp617
(I2005
I1860
tp618
s(g12
I8
tp619
(I2021
I1988
tp620
ssba(iSample
Sample
p621
(dp622
g3
F1440415536.222463
sg4
(dp623
(g6
I6
tp624
(I2044
I1898
tp625
s(g9
I3
tp626
(I1914
I1887
tp627
s(g12
I5
tp628
(I2062
I2029
tp629
s(g9
I4
tp630
(I2024
I1984
tp631
s(g6
I2
tp632
(I2035
I1887
tp633
s(g12
I8
tp634
(I2051
I2018
tp635
ssba(iSample
Sample
p636
(dp637
g3
F1440415539.836152
sg4
(dp638
(g6
I6
tp639
(I2066
I1919
tp640
s(g9
I3
tp641
(I1936
I1909
tp642
s(g12
I5
tp643
(I2084
I2051
tp644
s(g9
I4
tp645
(I2046
I2006
tp646
s(g6
I2
tp647
(I2057
I1907
tp648
s(g12
I8
tp649
(I2073
I2040
tp650
ssba(iSample
Sample
p651
(dp652
g3
F1440415542.847737
sg4
(dp653
(g6
I6
tp654
(I2089
I1942
tp655
s(g9
I3
tp656
(I1959
I1932
tp657
s(g12
I5
tp658
(I2106
I2073
tp659
s(g9
I4
tp660
(I2069
I2028
tp661
s(g6
I2
tp662
(I2080
I1930
tp663
s(g12
I8
tp664
(I2095
I2062
tp665
ssba(iSample
Sample
p666
(dp667
g3
F1440415545.914
sg4
(dp668
(g6
I6
tp669
(I2114
I1965
tp670
s(g9
I3
tp671
(I1988
I1960
tp672
s(g12
I5
tp673
(I2131
I2096
tp674
s(g9
I4
tp675
(I2098
I2057
tp676
s(g6
I2
tp677
(I2105
I1954
tp678
s(g12
I8
tp679
(I2120
I2087
tp680
ssba(iSample
Sample
p681
(dp682
g3
F1440415549.837947
sg4
(dp683
(g6
I6
tp684
(I2140
I1990
tp685
s(g9
I3
tp686
(I2010
I1981
tp687
s(g12
I5
tp688
(I2158
I2122
tp689
s(g9
I4
tp690
(I2120
I2077
tp691
s(g6
I2
tp692
(I2131
I1979
tp693
s(g12
I8
tp694
(I2147
I2113
tp695
ssba(iSample
Sample
p696
(dp697
g3
F1440415552.806225
sg4
(dp698
(g6
I6
tp699
(I2163
I2012
tp700
s(g9
I3
tp701
(I2033
I2002
tp702
s(g12
I5
tp703
(I2180
I2144
tp704
s(g9
I4
tp705
(I2143
I2100
tp706
s(g6
I2
tp707
(I2154
I1999
tp708
s(g12
I8
tp709
(I2169
I2135
tp710
ssba(iSample
Sample
p711
(dp712
g3
F1440415555.932555
sg4
(dp713
(g6
I6
tp714
(I2186
I2033
tp715
s(g9
I3
tp716
(I2057
I2025
tp717
s(g12
I5
tp718
(I2203
I2166
tp719
s(g9
I4
tp720
(I2167
I2122
tp721
s(g6
I2
tp722
(I2177
I2021
tp723
s(g12
I8
tp724
(I2192
I2157
tp725
ssba(iSample
Sample
p726
(dp727
g3
F1440415559.178872
sg4
(dp728
(g6
I6
tp729
(I2210
I2056
tp730
s(g9
I3
tp731
(I2081
I2049
tp732
s(g12
I5
tp733
(I2227
I2190
tp734
s(g9
I4
tp735
(I2191
I2146
tp736
s(g6
I2
tp737
(I2201
I2043
tp738
s(g12
I8
tp739
(I2216
I2180
tp740
ssba(iSample
Sample
p741
(dp742
g3
F1440415562.408034
sg4
(dp743
(g6
I6
tp744
(I2233
I2077
tp745
s(g9
I3
tp746
(I2103
I2068
tp747
s(g12
I5
tp748
(I2251
I2212
tp749
s(g9
I4
tp750
(I2213
I2168
tp751
s(g6
I2
tp752
(I2224
I2064
tp753
s(g12
I8
tp754
(I2240
I2203
tp755
ssba(iSample
Sample
p756
(dp757
g3
F1440415565.410673
sg4
(dp758
(g6
I6
tp759
(I2255
I2097
tp760
s(g9
I3
tp761
(I2125
I2090
tp762
s(g12
I5
tp763
(I2273
I2234
tp764
s(g9
I4
tp765
(I2235
I2190
tp766
s(g6
I2
tp767
(I2246
I2085
tp768
s(g12
I8
tp769
(I2262
I2224
tp770
ssba(iSample
Sample
p771
(dp772
g3
F1440415568.382979
sg4
(dp773
(g6
I6
tp774
(I2278
I2119
tp775
s(g9
I3
tp776
(I2148
I2113
tp777
s(g12
I5
tp778
(I2295
I2256
tp779
s(g9
I4
tp780
(I2258
I2213
tp781
s(g6
I2
tp782
(I2269
I2106
tp783
s(g12
I8
tp784
(I2284
I2246
tp785
ssba(iSample
Sample
p786
(dp787
g3
F1440415571.463212
sg4
(dp788
(g6
I6
tp789
(I2301
I2141
tp790
s(g9
I3
tp791
(I2172
I2137
tp792
s(g12
I5
tp793
(I2318
I2277
tp794
s(g9
I4
tp795
(I2282
I2237
tp796
s(g6
I2
tp797
(I2292
I2128
tp798
s(g12
I8
tp799
(I2307
I2269
tp800
ssba(iSample
Sample
p801
(dp802
g3
F1440415574.691426
sg4
(dp803
(g6
I6
tp804
(I2324
I2162
tp805
s(g9
I3
tp806
(I2195
I2159
tp807
s(g12
I5
tp808
(I2342
I2301
tp809
s(g9
I4
tp810
(I2305
I2258
tp811
s(g6
I2
tp812
(I2315
I2149
tp813
s(g12
I8
tp814
(I2331
I2293
tp815
ssba(iSample
Sample
p816
(dp817
g3
F1440415577.813569
sg4
(dp818
(g6
I6
tp819
(I2348
I2185
tp820
s(g9
I3
tp821
(I2219
I2183
tp822
s(g12
I5
tp823
(I2365
I2324
tp824
s(g9
I4
tp825
(I2329
I2282
tp826
s(g6
I2
tp827
(I2339
I2171
tp828
s(g12
I8
tp829
(I2354
I2315
tp830
ssba(iSample
Sample
p831
(dp832
g3
F1440415581.043677
sg4
(dp833
(g6
I6
tp834
(I2371
I2206
tp835
s(g9
I3
tp836
(I2241
I2205
tp837
s(g12
I5
tp838
(I2389
I2347
tp839
s(g9
I4
tp840
(I2351
I2302
tp841
s(g6
I2
tp842
(I2362
I2193
tp843
s(g12
I8
tp844
(I2378
I2339
tp845
ssba(iSample
Sample
p846
(dp847
g3
F1440415584.014676
sg4
(dp848
(g6
I6
tp849
(I2393
I2227
tp850
s(g9
I3
tp851
(I2263
I2226
tp852
s(g12
I5
tp853
(I2411
I2368
tp854
s(g9
I4
tp855
(I2373
I2324
tp856
s(g6
I2
tp857
(I2384
I2215
tp858
s(g12
I8
tp859
(I2400
I2360
tp860
ssba(iSample
Sample
p861
(dp862
g3
F1440415586.987546
sg4
(dp863
(g6
I6
tp864
(I2418
I2251
tp865
s(g9
I3
tp866
(I2288
I2251
tp867
s(g12
I5
tp868
(I2433
I2389
tp869
s(g9
I4
tp870
(I2398
I2348
tp871
s(g6
I2
tp872
(I2409
I2239
tp873
s(g12
I8
tp874
(I2422
I2381
tp875
ssba(iSample
Sample
p876
(dp877
g3
F1440415590.358222
sg4
(dp878
(g6
I6
tp879
(I2440
I2273
tp880
s(g9
I3
tp881
(I2310
I2272
tp882
s(g12
I5
tp883
(I2458
I2413
tp884
s(g9
I4
tp885
(I2420
I2370
tp886
s(g6
I2
tp887
(I2431
I2261
tp888
s(g12
I8
tp889
(I2447
I2406
tp890
ssba(iSample
Sample
p891
(dp892
g3
F1440415593.380533
sg4
(dp893
(g6
I6
tp894
(I2465
I2296
tp895
s(g9
I3
tp896
(I2338
I2299
tp897
s(g12
I5
tp898
(I2480
I2435
tp899
s(g9
I4
tp900
(I2448
I2396
tp901
s(g6
I2
tp902
(I2456
I2285
tp903
s(g12
I8
tp904
(I2469
I2428
tp905
ssba.