(lp0
(iSample
Sample
p1
(dp2
S'moteRSSI'
p3
(dp4
S'85d2'
p5
I-56
sS'8031'
p6
I-58
sS'8054'
p7
I-51
ssS'timeStamp'
p8
F1440512547.343258
sS'moteData'
p9
(dp10
(g5
I2
tp11
(I185
I181
tp12
s(g6
I8
tp13
(I332
I322
tp14
s(g6
I5
tp15
(I321
I315
tp16
s(g5
I3
tp17
(I219
I216
tp18
s(g7
I6
tp19
(I42
I42
tp20
s(g7
I4
tp21
(I59
I59
tp22
ssba(iSample
Sample
p23
(dp24
g3
(dp25
g5
I-58
sg6
I-54
sg7
I-54
ssg8
F1440512550.487019
sg9
(dp26
(g5
I2
tp27
(I209
I204
tp28
s(g6
I8
tp29
(I355
I345
tp30
s(g6
I5
tp31
(I344
I338
tp32
s(g5
I3
tp33
(I243
I239
tp34
s(g7
I6
tp35
(I65
I65
tp36
s(g7
I4
tp37
(I82
I82
tp38
ssba(iSample
Sample
p39
(dp40
g3
(dp41
g5
I-57
sg6
I-63
sg7
I-53
ssg8
F1440512553.604215
sg9
(dp42
(g5
I2
tp43
(I233
I227
tp44
s(g6
I8
tp45
(I378
I367
tp46
s(g6
I5
tp47
(I367
I361
tp48
s(g5
I3
tp49
(I267
I263
tp50
s(g7
I6
tp51
(I89
I89
tp52
s(g7
I4
tp53
(I106
I106
tp54
ssba(iSample
Sample
p55
(dp56
g3
(dp57
g5
I-61
sg6
I-56
sg7
I-58
ssg8
F1440512556.888641
sg9
(dp58
(g5
I2
tp59
(I255
I249
tp60
s(g6
I8
tp61
(I402
I391
tp62
s(g6
I5
tp63
(I391
I385
tp64
s(g5
I3
tp65
(I289
I285
tp66
s(g7
I6
tp67
(I112
I112
tp68
s(g7
I4
tp69
(I129
I129
tp70
ssba(iSample
Sample
p71
(dp72
g3
(dp73
g5
I-56
sg6
I-62
sg7
I-56
ssg8
F1440512559.861921
sg9
(dp74
(g5
I2
tp75
(I277
I271
tp76
s(g6
I8
tp77
(I424
I413
tp78
s(g6
I5
tp79
(I413
I406
tp80
s(g5
I3
tp81
(I311
I307
tp82
s(g7
I6
tp83
(I134
I134
tp84
s(g7
I4
tp85
(I151
I151
tp86
ssba(iSample
Sample
p87
(dp88
g3
(dp89
g5
I-57
sg6
I-49
sg7
I-56
ssg8
F1440512562.833284
sg9
(dp90
(g5
I2
tp91
(I301
I294
tp92
s(g6
I8
tp93
(I446
I435
tp94
s(g6
I5
tp95
(I435
I428
tp96
s(g5
I3
tp97
(I335
I330
tp98
s(g7
I6
tp99
(I156
I156
tp100
s(g7
I4
tp101
(I173
I173
tp102
ssba(iSample
Sample
p103
(dp104
g3
(dp105
g5
I-57
sg6
I-50
sg7
I-61
ssg8
F1440512566.031524
sg9
(dp106
(g5
I2
tp107
(I323
I315
tp108
s(g6
I8
tp109
(I470
I459
tp110
s(g6
I5
tp111
(I459
I451
tp112
s(g5
I3
tp113
(I357
I352
tp114
s(g7
I6
tp115
(I180
I180
tp116
s(g7
I4
tp117
(I197
I197
tp118
ssba(iSample
Sample
p119
(dp120
g3
(dp121
g5
I-60
sg6
I-58
sg7
I-51
ssg8
F1440512568.952383
sg9
(dp122
(g5
I2
tp123
(I345
I336
tp124
s(g6
I8
tp125
(I492
I480
tp126
s(g6
I5
tp127
(I481
I473
tp128
s(g5
I3
tp129
(I379
I373
tp130
s(g7
I6
tp131
(I202
I202
tp132
s(g7
I4
tp133
(I219
I219
tp134
ssba(iSample
Sample
p135
(dp136
g3
(dp137
g5
I-67
sg6
I-54
sg7
I-60
ssg8
F1440512571.977715
sg9
(dp138
(g5
I2
tp139
(I367
I358
tp140
s(g6
I8
tp141
(I514
I500
tp142
s(g6
I5
tp143
(I503
I494
tp144
s(g5
I3
tp145
(I401
I394
tp146
s(g7
I6
tp147
(I224
I224
tp148
s(g7
I4
tp149
(I241
I241
tp150
ssba(iSample
Sample
p151
(dp152
g3
(dp153
g5
I-56
sg6
I-52
sg7
I-55
ssg8
F1440512574.908127
sg9
(dp154
(g5
I2
tp155
(I389
I380
tp156
s(g6
I8
tp157
(I536
I520
tp158
s(g6
I5
tp159
(I525
I514
tp160
s(g5
I3
tp161
(I423
I415
tp162
s(g7
I6
tp163
(I246
I246
tp164
s(g7
I4
tp165
(I263
I263
tp166
ssba(iSample
Sample
p167
(dp168
g3
(dp169
g5
I-59
sg6
I-51
sg7
I-59
ssg8
F1440512577.891032
sg9
(dp170
(g5
I2
tp171
(I412
I403
tp172
s(g6
I8
tp173
(I559
I542
tp174
s(g6
I5
tp175
(I548
I537
tp176
s(g5
I3
tp177
(I446
I437
tp178
s(g7
I6
tp179
(I269
I269
tp180
s(g7
I4
tp181
(I286
I286
tp182
ssba(iSample
Sample
p183
(dp184
g3
(dp185
g5
I-56
sg6
I-54
sg7
I-58
ssg8
F1440512581.025962
sg9
(dp186
(g5
I2
tp187
(I434
I425
tp188
s(g6
I8
tp189
(I581
I563
tp190
s(g6
I5
tp191
(I570
I559
tp192
s(g5
I3
tp193
(I468
I458
tp194
s(g7
I6
tp195
(I291
I291
tp196
s(g7
I4
tp197
(I308
I308
tp198
ssba(iSample
Sample
p199
(dp200
g3
(dp201
g5
I-59
sg6
I-55
sg7
I-50
ssg8
F1440512584.023927
sg9
(dp202
(g5
I2
tp203
(I457
I448
tp204
s(g6
I8
tp205
(I603
I584
tp206
s(g6
I5
tp207
(I592
I581
tp208
s(g5
I3
tp209
(I491
I481
tp210
s(g7
I6
tp211
(I314
I314
tp212
s(g7
I4
tp213
(I331
I331
tp214
ssba(iSample
Sample
p215
(dp216
g3
(dp217
g5
I-57
sg6
I-53
sg7
I-54
ssg8
F1440512587.120174
sg9
(dp218
(g5
I2
tp219
(I481
I472
tp220
s(g6
I8
tp221
(I626
I606
tp222
s(g6
I5
tp223
(I615
I604
tp224
s(g5
I3
tp225
(I515
I505
tp226
s(g7
I6
tp227
(I337
I337
tp228
s(g7
I4
tp229
(I354
I354
tp230
ssba(iSample
Sample
p231
(dp232
g3
(dp233
g5
I-58
sg6
I-58
sg7
I-54
ssg8
F1440512590.360621
sg9
(dp234
(g5
I2
tp235
(I505
I496
tp236
s(g6
I8
tp237
(I650
I630
tp238
s(g6
I5
tp239
(I639
I627
tp240
s(g5
I3
tp241
(I539
I528
tp242
s(g7
I6
tp243
(I361
I361
tp244
s(g7
I4
tp245
(I378
I378
tp246
ssba(iSample
Sample
p247
(dp248
g3
(dp249
g5
I-57
sg6
I-55
sg7
I-56
ssg8
F1440512593.599206
sg9
(dp250
(g5
I2
tp251
(I529
I519
tp252
s(g6
I8
tp253
(I674
I653
tp254
s(g6
I5
tp255
(I663
I651
tp256
s(g5
I3
tp257
(I563
I552
tp258
s(g7
I6
tp259
(I386
I386
tp260
s(g7
I4
tp261
(I403
I403
tp262
ssba(iSample
Sample
p263
(dp264
g3
(dp265
g5
I-62
sg6
I-61
sg7
I-51
ssg8
F1440512596.822741
sg9
(dp266
(g5
I2
tp267
(I551
I540
tp268
s(g6
I8
tp269
(I698
I677
tp270
s(g6
I5
tp271
(I687
I674
tp272
s(g5
I3
tp273
(I585
I574
tp274
s(g7
I6
tp275
(I408
I408
tp276
s(g7
I4
tp277
(I425
I425
tp278
ssba(iSample
Sample
p279
(dp280
g3
(dp281
g5
I-56
sg6
I-54
sg7
I-57
ssg8
F1440512599.800807
sg9
(dp282
(g5
I2
tp283
(I573
I562
tp284
s(g6
I8
tp285
(I720
I699
tp286
s(g6
I5
tp287
(I709
I695
tp288
s(g5
I3
tp289
(I607
I596
tp290
s(g7
I6
tp291
(I430
I430
tp292
s(g7
I4
tp293
(I447
I447
tp294
ssba(iSample
Sample
p295
(dp296
g3
(dp297
g5
I-55
sg6
I-50
sg7
I-55
ssg8
F1440512602.736111
sg9
(dp298
(g5
I2
tp299
(I597
I585
tp300
s(g6
I8
tp301
(I742
I721
tp302
s(g6
I5
tp303
(I731
I717
tp304
s(g5
I3
tp305
(I631
I619
tp306
s(g7
I6
tp307
(I453
I453
tp308
s(g7
I4
tp309
(I470
I470
tp310
ssba(iSample
Sample
p311
(dp312
g3
(dp313
g5
I-58
sg6
I-49
sg7
I-57
ssg8
F1440512605.982446
sg9
(dp314
(g5
I2
tp315
(I620
I608
tp316
s(g6
I8
tp317
(I766
I745
tp318
s(g6
I5
tp319
(I755
I740
tp320
s(g5
I3
tp321
(I654
I642
tp322
s(g7
I6
tp323
(I477
I477
tp324
s(g7
I4
tp325
(I494
I494
tp326
ssba(iSample
Sample
p327
(dp328
g3
(dp329
g5
I-62
sg6
I-55
sg7
I-57
ssg8
F1440512609.143127
sg9
(dp330
(g5
I2
tp331
(I647
I635
tp332
s(g6
I8
tp333
(I789
I767
tp334
s(g6
I5
tp335
(I778
I762
tp336
s(g5
I3
tp337
(I681
I669
tp338
s(g7
I6
tp339
(I503
I503
tp340
s(g7
I4
tp341
(I520
I519
tp342
ssba(iSample
Sample
p343
(dp344
g3
(dp345
g5
I-55
sg6
I-54
sg7
I-57
ssg8
F1440512612.801739
sg9
(dp346
(g5
I2
tp347
(I669
I656
tp348
s(g6
I8
tp349
(I816
I791
tp350
s(g6
I5
tp351
(I805
I789
tp352
s(g5
I3
tp353
(I703
I691
tp354
s(g7
I6
tp355
(I526
I526
tp356
s(g7
I4
tp357
(I543
I542
tp358
ssba(iSample
Sample
p359
(dp360
g3
(dp361
g5
I-53
sg6
I-56
sg7
I-56
ssg8
F1440512615.817786
sg9
(dp362
(g5
I2
tp363
(I692
I679
tp364
s(g6
I8
tp365
(I839
I813
tp366
s(g6
I5
tp367
(I828
I812
tp368
s(g5
I3
tp369
(I726
I712
tp370
s(g7
I6
tp371
(I549
I549
tp372
s(g7
I4
tp373
(I566
I565
tp374
ssba(iSample
Sample
p375
(dp376
g3
(dp377
g5
I-53
sg6
I-53
sg7
I-55
ssg8
F1440512618.811622
sg9
(dp378
(g5
I2
tp379
(I715
I699
tp380
s(g6
I8
tp381
(I861
I834
tp382
s(g6
I5
tp383
(I850
I834
tp384
s(g5
I3
tp385
(I749
I734
tp386
s(g7
I6
tp387
(I572
I572
tp388
s(g7
I4
tp389
(I589
I587
tp390
ssba(iSample
Sample
p391
(dp392
g3
(dp393
g5
I-56
sg6
I-54
sg7
I-56
ssg8
F1440512621.954896
sg9
(dp394
(g5
I2
tp395
(I737
I720
tp396
s(g6
I8
tp397
(I884
I856
tp398
s(g6
I5
tp399
(I873
I857
tp400
s(g5
I3
tp401
(I771
I756
tp402
s(g7
I6
tp403
(I594
I594
tp404
s(g7
I4
tp405
(I611
I609
tp406
ssba(iSample
Sample
p407
(dp408
g3
(dp409
g5
I-59
sg6
I-61
sg7
I-50
ssg8
F1440512624.895082
sg9
(dp410
(g5
I2
tp411
(I761
I744
tp412
s(g6
I8
tp413
(I906
I878
tp414
s(g6
I5
tp415
(I895
I879
tp416
s(g5
I3
tp417
(I795
I780
tp418
s(g7
I6
tp419
(I618
I618
tp420
s(g7
I4
tp421
(I635
I633
tp422
ssba(iSample
Sample
p423
(dp424
g3
(dp425
g5
I-57
sg6
I-54
sg7
I-55
ssg8
F1440512628.187024
sg9
(dp426
(g5
I2
tp427
(I785
I767
tp428
s(g6
I8
tp429
(I932
I904
tp430
s(g6
I5
tp431
(I921
I904
tp432
s(g5
I3
tp433
(I819
I804
tp434
s(g7
I6
tp435
(I642
I642
tp436
s(g7
I4
tp437
(I659
I657
tp438
ssba(iSample
Sample
p439
(dp440
g3
(dp441
g5
I-60
sg6
I-58
sg7
I-54
ssg8
F1440512631.449278
sg9
(dp442
(g5
I2
tp443
(I808
I790
tp444
s(g6
I8
tp445
(I954
I926
tp446
s(g6
I5
tp447
(I943
I926
tp448
s(g5
I3
tp449
(I842
I825
tp450
s(g7
I6
tp451
(I665
I665
tp452
s(g7
I4
tp453
(I682
I679
tp454
ssba(iSample
Sample
p455
(dp456
g3
(dp457
g5
I-62
sg6
I-62
sg7
I-60
ssg8
F1440512634.5271
sg9
(dp458
(g5
I2
tp459
(I832
I814
tp460
s(g6
I8
tp461
(I977
I949
tp462
s(g6
I5
tp463
(I966
I948
tp464
s(g5
I3
tp465
(I866
I848
tp466
s(g7
I6
tp467
(I688
I688
tp468
s(g7
I4
tp469
(I705
I702
tp470
ssba(iSample
Sample
p471
(dp472
g3
(dp473
g5
I-55
sg6
I-51
sg7
I-51
ssg8
F1440512637.778638
sg9
(dp474
(g5
I2
tp475
(I858
I840
tp476
s(g6
I8
tp477
(I1001
I973
tp478
s(g6
I5
tp479
(I990
I970
tp480
s(g5
I3
tp481
(I892
I873
tp482
s(g7
I6
tp483
(I712
I712
tp484
s(g7
I4
tp485
(I729
I726
tp486
ssba(iSample
Sample
p487
(dp488
g3
(dp489
g5
I-62
sg6
I-55
sg7
I-54
ssg8
F1440512641.210542
sg9
(dp490
(g5
I2
tp491
(I880
I862
tp492
s(g6
I8
tp493
(I1027
I999
tp494
s(g6
I5
tp495
(I1016
I995
tp496
s(g5
I3
tp497
(I914
I895
tp498
s(g7
I6
tp499
(I737
I737
tp500
s(g7
I4
tp501
(I754
I751
tp502
ssba(iSample
Sample
p503
(dp504
g3
(dp505
g5
I-55
sg6
I-52
sg7
I-56
ssg8
F1440512644.191938
sg9
(dp506
(g5
I2
tp507
(I902
I884
tp508
s(g6
I8
tp509
(I1049
I1020
tp510
s(g6
I5
tp511
(I1038
I1016
tp512
s(g5
I3
tp513
(I936
I916
tp514
s(g7
I6
tp515
(I759
I759
tp516
s(g7
I4
tp517
(I776
I773
tp518
ssba(iSample
Sample
p519
(dp520
g3
(dp521
g5
I-59
sg6
I-50
sg7
I-54
ssg8
F1440512647.172348
sg9
(dp522
(g5
I2
tp523
(I926
I908
tp524
s(g6
I8
tp525
(I1073
I1043
tp526
s(g6
I5
tp527
(I1062
I1040
tp528
s(g5
I3
tp529
(I960
I939
tp530
s(g7
I6
tp531
(I783
I783
tp532
s(g7
I4
tp533
(I800
I797
tp534
ssba(iSample
Sample
p535
(dp536
g3
(dp537
g5
I-53
sg6
I-56
sg7
I-56
ssg8
F1440512650.403079
sg9
(dp538
(g5
I2
tp539
(I948
I927
tp540
s(g6
I8
tp541
(I1095
I1065
tp542
s(g6
I5
tp543
(I1084
I1062
tp544
s(g5
I3
tp545
(I982
I960
tp546
s(g7
I6
tp547
(I805
I805
tp548
s(g7
I4
tp549
(I822
I819
tp550
ssba(iSample
Sample
p551
(dp552
g3
(dp553
g5
I-55
sg6
I-49
sg7
I-58
ssg8
F1440512653.414273
sg9
(dp554
(g5
I2
tp555
(I973
I951
tp556
s(g6
I8
tp557
(I1118
I1087
tp558
s(g6
I5
tp559
(I1107
I1085
tp560
s(g5
I3
tp561
(I1007
I985
tp562
s(g7
I6
tp563
(I829
I829
tp564
s(g7
I4
tp565
(I846
I843
tp566
ssba(iSample
Sample
p567
(dp568
g3
(dp569
g5
I-55
sg6
I-50
sg7
I-56
ssg8
F1440512656.807644
sg9
(dp570
(g5
I2
tp571
(I997
I974
tp572
s(g6
I8
tp573
(I1142
I1111
tp574
s(g6
I5
tp575
(I1131
I1109
tp576
s(g5
I3
tp577
(I1031
I1007
tp578
s(g7
I6
tp579
(I853
I853
tp580
s(g7
I4
tp581
(I870
I867
tp582
ssba(iSample
Sample
p583
(dp584
g3
(dp585
g5
I-55
sg6
I-50
sg7
I-54
ssg8
F1440512660.015584
sg9
(dp586
(g5
I2
tp587
(I1020
I997
tp588
s(g6
I8
tp589
(I1166
I1135
tp590
s(g6
I5
tp591
(I1155
I1133
tp592
s(g5
I3
tp593
(I1054
I1028
tp594
s(g7
I6
tp595
(I876
I876
tp596
s(g7
I4
tp597
(I893
I890
tp598
ssba(iSample
Sample
p599
(dp600
g3
(dp601
g5
I-52
sg6
I-52
sg7
I-61
ssg8
F1440512663.158694
sg9
(dp602
(g5
I2
tp603
(I1044
I1019
tp604
s(g6
I8
tp605
(I1189
I1158
tp606
s(g6
I5
tp607
(I1178
I1154
tp608
s(g5
I3
tp609
(I1078
I1052
tp610
s(g7
I6
tp611
(I900
I900
tp612
s(g7
I4
tp613
(I917
I914
tp614
ssba(iSample
Sample
p615
(dp616
g3
(dp617
g5
I-57
sg6
I-53
sg7
I-54
ssg8
F1440512666.344865
sg9
(dp618
(g5
I2
tp619
(I1068
I1043
tp620
s(g6
I8
tp621
(I1213
I1181
tp622
s(g6
I5
tp623
(I1202
I1176
tp624
s(g5
I3
tp625
(I1102
I1075
tp626
s(g7
I6
tp627
(I924
I924
tp628
s(g7
I4
tp629
(I941
I938
tp630
ssba(iSample
Sample
p631
(dp632
g3
(dp633
g5
I-56
sg6
I-54
sg7
I-58
ssg8
F1440512669.579466
sg9
(dp634
(g5
I2
tp635
(I1090
I1065
tp636
s(g6
I8
tp637
(I1237
I1205
tp638
s(g6
I5
tp639
(I1226
I1199
tp640
s(g5
I3
tp641
(I1124
I1097
tp642
s(g7
I6
tp643
(I947
I947
tp644
s(g7
I4
tp645
(I964
I961
tp646
ssba(iSample
Sample
p647
(dp648
g3
(dp649
g5
I-54
sg6
I-54
sg7
I-51
ssg8
F1440512672.605796
sg9
(dp650
(g5
I2
tp651
(I1114
I1089
tp652
s(g6
I8
tp653
(I1261
I1228
tp654
s(g6
I5
tp655
(I1250
I1222
tp656
s(g5
I3
tp657
(I1148
I1119
tp658
s(g7
I6
tp659
(I971
I971
tp660
s(g7
I4
tp661
(I988
I985
tp662
ssba(iSample
Sample
p663
(dp664
g3
(dp665
g5
I-60
sg6
I-56
sg7
I-54
ssg8
F1440512675.830664
sg9
(dp666
(g5
I2
tp667
(I1136
I1111
tp668
s(g6
I8
tp669
(I1283
I1248
tp670
s(g6
I5
tp671
(I1272
I1244
tp672
s(g5
I3
tp673
(I1170
I1141
tp674
s(g7
I6
tp675
(I993
I993
tp676
s(g7
I4
tp677
(I1010
I1007
tp678
ssba(iSample
Sample
p679
(dp680
g3
(dp681
g5
I-52
sg6
I-59
sg7
I-51
ssg8
F1440512678.825636
sg9
(dp682
(g5
I2
tp683
(I1163
I1138
tp684
s(g6
I8
tp685
(I1308
I1273
tp686
s(g6
I5
tp687
(I1297
I1268
tp688
s(g5
I3
tp689
(I1197
I1167
tp690
s(g7
I6
tp691
(I1019
I1019
tp692
s(g7
I4
tp693
(I1036
I1033
tp694
ssba(iSample
Sample
p695
(dp696
g3
(dp697
g5
I-54
sg6
I-54
sg7
I-58
ssg8
F1440512682.417222
sg9
(dp698
(g5
I2
tp699
(I1187
I1161
tp700
s(g6
I8
tp701
(I1332
I1296
tp702
s(g6
I5
tp703
(I1321
I1292
tp704
s(g5
I3
tp705
(I1221
I1190
tp706
s(g7
I6
tp707
(I1043
I1043
tp708
s(g7
I4
tp709
(I1060
I1057
tp710
ssba(iSample
Sample
p711
(dp712
g3
(dp713
g5
I-60
sg6
I-61
sg7
I-50
ssg8
F1440512685.698468
sg9
(dp714
(g5
I2
tp715
(I1209
I1182
tp716
s(g6
I8
tp717
(I1356
I1319
tp718
s(g6
I5
tp719
(I1345
I1315
tp720
s(g5
I3
tp721
(I1243
I1212
tp722
s(g7
I6
tp723
(I1066
I1066
tp724
s(g7
I4
tp725
(I1083
I1078
tp726
ssba(iSample
Sample
p727
(dp728
g3
(dp729
g5
I-53
sg6
I-55
sg7
I-60
ssg8
F1440512688.681904
sg9
(dp730
(g5
I2
tp731
(I1236
I1209
tp732
s(g6
I8
tp733
(I1380
I1343
tp734
s(g6
I5
tp735
(I1369
I1338
tp736
s(g5
I3
tp737
(I1270
I1239
tp738
s(g7
I6
tp739
(I1092
I1092
tp740
s(g7
I4
tp741
(I1109
I1104
tp742
ssba(iSample
Sample
p743
(dp744
g3
(dp745
g5
I-57
sg6
I-54
sg7
I-55
ssg8
F1440512692.277476
sg9
(dp746
(g5
I2
tp747
(I1262
I1235
tp748
s(g6
I8
tp749
(I1405
I1366
tp750
s(g6
I5
tp751
(I1394
I1362
tp752
s(g5
I3
tp753
(I1296
I1265
tp754
s(g7
I6
tp755
(I1116
I1116
tp756
s(g7
I4
tp757
(I1133
I1128
tp758
ssba(iSample
Sample
p759
(dp760
g3
(dp761
g5
I-52
sg6
I-57
sg7
I-56
ssg8
F1440512695.835261
sg9
(dp762
(g5
I2
tp763
(I1286
I1259
tp764
s(g6
I8
tp765
(I1431
I1392
tp766
s(g6
I5
tp767
(I1420
I1388
tp768
s(g5
I3
tp769
(I1320
I1289
tp770
s(g7
I6
tp771
(I1142
I1142
tp772
s(g7
I4
tp773
(I1159
I1154
tp774
ssba(iSample
Sample
p775
(dp776
g3
(dp777
g5
I-61
sg6
I-52
sg7
I-57
ssg8
F1440512699.068018
sg9
(dp778
(g5
I2
tp779
(I1308
I1280
tp780
s(g6
I8
tp781
(I1455
I1416
tp782
s(g6
I5
tp783
(I1444
I1411
tp784
s(g5
I3
tp785
(I1342
I1311
tp786
s(g7
I6
tp787
(I1165
I1165
tp788
s(g7
I4
tp789
(I1182
I1177
tp790
ssba(iSample
Sample
p791
(dp792
g3
(dp793
g5
I-56
sg6
I-56
sg7
I-58
ssg8
F1440512702.016523
sg9
(dp794
(g5
I2
tp795
(I1331
I1303
tp796
s(g6
I8
tp797
(I1477
I1438
tp798
s(g6
I5
tp799
(I1466
I1432
tp800
s(g5
I3
tp801
(I1365
I1332
tp802
s(g7
I6
tp803
(I1187
I1187
tp804
s(g7
I4
tp805
(I1204
I1199
tp806
ssba(iSample
Sample
p807
(dp808
g3
(dp809
g5
I-58
sg6
I-59
sg7
I-51
ssg8
F1440512705.17909
sg9
(dp810
(g5
I2
tp811
(I1353
I1325
tp812
s(g6
I8
tp813
(I1500
I1460
tp814
s(g6
I5
tp815
(I1489
I1455
tp816
s(g5
I3
tp817
(I1387
I1354
tp818
s(g7
I6
tp819
(I1210
I1210
tp820
s(g7
I4
tp821
(I1227
I1222
tp822
ssba(iSample
Sample
p823
(dp824
g3
(dp825
g5
I-59
sg6
I-55
sg7
I-59
ssg8
F1440512708.163668
sg9
(dp826
(g5
I2
tp827
(I1376
I1348
tp828
s(g6
I8
tp829
(I1522
I1481
tp830
s(g6
I5
tp831
(I1511
I1476
tp832
s(g5
I3
tp833
(I1410
I1376
tp834
s(g7
I6
tp835
(I1232
I1232
tp836
s(g7
I4
tp837
(I1249
I1244
tp838
ssba(iSample
Sample
p839
(dp840
g3
(dp841
g5
I-57
sg6
I-50
sg7
I-51
ssg8
F1440512711.223873
sg9
(dp842
(g5
I2
tp843
(I1400
I1372
tp844
s(g6
I8
tp845
(I1544
I1501
tp846
s(g6
I5
tp847
(I1533
I1496
tp848
s(g5
I3
tp849
(I1434
I1400
tp850
s(g7
I6
tp851
(I1256
I1256
tp852
s(g7
I4
tp853
(I1273
I1268
tp854
ssba(iSample
Sample
p855
(dp856
g3
(dp857
g5
I-59
sg6
I-54
sg7
I-54
ssg8
F1440512714.539293
sg9
(dp858
(g5
I2
tp859
(I1424
I1396
tp860
s(g6
I8
tp861
(I1569
I1524
tp862
s(g6
I5
tp863
(I1558
I1521
tp864
s(g5
I3
tp865
(I1458
I1421
tp866
s(g7
I6
tp867
(I1281
I1281
tp868
s(g7
I4
tp869
(I1298
I1291
tp870
ssba(iSample
Sample
p871
(dp872
g3
(dp873
g5
I-53
sg6
I-51
sg7
I-57
ssg8
F1440512717.707041
sg9
(dp874
(g5
I2
tp875
(I1446
I1416
tp876
s(g6
I8
tp877
(I1592
I1546
tp878
s(g6
I5
tp879
(I1581
I1541
tp880
s(g5
I3
tp881
(I1480
I1442
tp882
s(g7
I6
tp883
(I1303
I1303
tp884
s(g7
I4
tp885
(I1320
I1313
tp886
ssba(iSample
Sample
p887
(dp888
g3
(dp889
g5
I-63
sg6
I-51
sg7
I-55
ssg8
F1440512720.683935
sg9
(dp890
(g5
I2
tp891
(I1470
I1437
tp892
s(g6
I8
tp893
(I1614
I1566
tp894
s(g6
I5
tp895
(I1603
I1562
tp896
s(g5
I3
tp897
(I1504
I1464
tp898
s(g7
I6
tp899
(I1327
I1326
tp900
s(g7
I4
tp901
(I1344
I1337
tp902
ssba(iSample
Sample
p903
(dp904
g3
(dp905
g5
I-54
sg6
I-55
sg7
I-55
ssg8
F1440512723.884787
sg9
(dp906
(g5
I2
tp907
(I1493
I1459
tp908
s(g6
I8
tp909
(I1638
I1589
tp910
s(g6
I5
tp911
(I1627
I1585
tp912
s(g5
I3
tp913
(I1527
I1487
tp914
s(g7
I6
tp915
(I1350
I1348
tp916
s(g7
I4
tp917
(I1367
I1359
tp918
ssba(iSample
Sample
p919
(dp920
g3
(dp921
g5
I-52
sg6
I-49
sg7
I-56
ssg8
F1440512727.059178
sg9
(dp922
(g5
I2
tp923
(I1515
I1480
tp924
s(g6
I8
tp925
(I1661
I1611
tp926
s(g6
I5
tp927
(I1650
I1607
tp928
s(g5
I3
tp929
(I1549
I1507
tp930
s(g7
I6
tp931
(I1372
I1370
tp932
s(g7
I4
tp933
(I1389
I1381
tp934
ssba(iSample
Sample
p935
(dp936
g3
(dp937
g5
I-55
sg6
I-54
sg7
I-59
ssg8
F1440512730.010535
sg9
(dp938
(g5
I2
tp939
(I1539
I1504
tp940
s(g6
I8
tp941
(I1683
I1632
tp942
s(g6
I5
tp943
(I1672
I1629
tp944
s(g5
I3
tp945
(I1573
I1529
tp946
s(g7
I6
tp947
(I1395
I1393
tp948
s(g7
I4
tp949
(I1412
I1404
tp950
ssba(iSample
Sample
p951
(dp952
g3
(dp953
g5
I-58
sg6
I-61
sg7
I-50
ssg8
F1440512733.183175
sg9
(dp954
(g5
I2
tp955
(I1561
I1526
tp956
s(g6
I8
tp957
(I1707
I1655
tp958
s(g6
I5
tp959
(I1696
I1653
tp960
s(g5
I3
tp961
(I1595
I1551
tp962
s(g7
I6
tp963
(I1418
I1416
tp964
s(g7
I4
tp965
(I1435
I1427
tp966
ssba.