(lp0
(iSample
Sample
p1
(dp2
S'timeStamp'
p3
F1440581325.973218
sS'moteSignal'
p4
(dp5
S'f53b'
p6
(I-48
I107
tp7
ssS'moteData'
p8
(dp9
(g6
I5
tp10
(I29422
I29379
tp11
s(g6
I3
tp12
(I29430
I29386
tp13
ssba(iSample
Sample
p14
(dp15
g3
F1440581328.500207
sg4
(dp16
g6
(I-50
I107
tp17
ssg8
(dp18
(g6
I5
tp19
(I29440
I29397
tp20
s(g6
I3
tp21
(I29448
I29404
tp22
ssba(iSample
Sample
p23
(dp24
g3
F1440581330.828429
sg4
(dp25
g6
(I-50
I107
tp26
ssg8
(dp27
(g6
I5
tp28
(I29458
I29415
tp29
s(g6
I3
tp30
(I29466
I29422
tp31
ssba(iSample
Sample
p32
(dp33
g3
F1440581333.28865
sg4
(dp34
g6
(I-51
I107
tp35
ssg8
(dp36
(g6
I5
tp37
(I29476
I29433
tp38
s(g6
I3
tp39
(I29484
I29440
tp40
ssba(iSample
Sample
p41
(dp42
g3
F1440581335.750226
sg4
(dp43
g6
(I-48
I107
tp44
ssg8
(dp45
(g6
I5
tp46
(I29494
I29451
tp47
s(g6
I3
tp48
(I29502
I29458
tp49
ssba(iSample
Sample
p50
(dp51
g3
F1440581338.115527
sg4
(dp52
g6
(I-48
I107
tp53
ssg8
(dp54
(g6
I5
tp55
(I29512
I29469
tp56
s(g6
I3
tp57
(I29520
I29476
tp58
ssba(iSample
Sample
p59
(dp60
g3
F1440581340.630795
sg4
(dp61
g6
(I-50
I107
tp62
ssg8
(dp63
(g6
I5
tp64
(I29530
I29487
tp65
s(g6
I3
tp66
(I29538
I29494
tp67
ssba(iSample
Sample
p68
(dp69
g3
F1440581343.011836
sg4
(dp70
g6
(I-47
I107
tp71
ssg8
(dp72
(g6
I5
tp73
(I29548
I29505
tp74
s(g6
I3
tp75
(I29556
I29512
tp76
ssba(iSample
Sample
p77
(dp78
g3
F1440581345.453847
sg4
(dp79
g6
(I-48
I107
tp80
ssg8
(dp81
(g6
I5
tp82
(I29567
I29524
tp83
s(g6
I3
tp84
(I29575
I29531
tp85
ssba(iSample
Sample
p86
(dp87
g3
F1440581347.9715
sg4
(dp88
g6
(I-46
I107
tp89
ssg8
(dp90
(g6
I5
tp91
(I29585
I29542
tp92
s(g6
I3
tp93
(I29593
I29549
tp94
ssba(iSample
Sample
p95
(dp96
g3
F1440581350.442602
sg4
(dp97
g6
(I-58
I107
tp98
ssg8
(dp99
(g6
I5
tp100
(I29603
I29559
tp101
s(g6
I3
tp102
(I29611
I29567
tp103
ssba(iSample
Sample
p104
(dp105
g3
F1440581352.854597
sg4
(dp106
g6
(I-50
I107
tp107
ssg8
(dp108
(g6
I5
tp109
(I29621
I29577
tp110
s(g6
I3
tp111
(I29629
I29585
tp112
ssba(iSample
Sample
p113
(dp114
g3
F1440581355.339706
sg4
(dp115
g6
(I-47
I107
tp116
ssg8
(dp117
(g6
I5
tp118
(I29639
I29595
tp119
s(g6
I3
tp120
(I29647
I29603
tp121
ssba(iSample
Sample
p122
(dp123
g3
F1440581357.708052
sg4
(dp124
g6
(I-50
I107
tp125
ssg8
(dp126
(g6
I5
tp127
(I29657
I29613
tp128
s(g6
I3
tp129
(I29665
I29621
tp130
ssba(iSample
Sample
p131
(dp132
g3
F1440581360.13568
sg4
(dp133
g6
(I-50
I107
tp134
ssg8
(dp135
(g6
I5
tp136
(I29675
I29631
tp137
s(g6
I3
tp138
(I29683
I29639
tp139
ssba(iSample
Sample
p140
(dp141
g3
F1440581362.558096
sg4
(dp142
g6
(I-50
I107
tp143
ssg8
(dp144
(g6
I5
tp145
(I29693
I29649
tp146
s(g6
I3
tp147
(I29701
I29657
tp148
ssba(iSample
Sample
p149
(dp150
g3
F1440581365.080351
sg4
(dp151
g6
(I-49
I107
tp152
ssg8
(dp153
(g6
I5
tp154
(I29711
I29667
tp155
s(g6
I3
tp156
(I29719
I29675
tp157
ssba(iSample
Sample
p158
(dp159
g3
F1440581367.46573
sg4
(dp160
g6
(I-51
I107
tp161
ssg8
(dp162
(g6
I5
tp163
(I29729
I29685
tp164
s(g6
I3
tp165
(I29737
I29693
tp166
ssba(iSample
Sample
p167
(dp168
g3
F1440581369.94257
sg4
(dp169
g6
(I-52
I107
tp170
ssg8
(dp171
(g6
I5
tp172
(I29747
I29703
tp173
s(g6
I3
tp174
(I29755
I29711
tp175
ssba(iSample
Sample
p176
(dp177
g3
F1440581372.319867
sg4
(dp178
g6
(I-57
I107
tp179
ssg8
(dp180
(g6
I5
tp181
(I29765
I29721
tp182
s(g6
I3
tp183
(I29773
I29729
tp184
ssba(iSample
Sample
p185
(dp186
g3
F1440581374.766005
sg4
(dp187
g6
(I-68
I107
tp188
ssg8
(dp189
(g6
I5
tp190
(I29783
I29739
tp191
s(g6
I3
tp192
(I29791
I29747
tp193
ssba(iSample
Sample
p194
(dp195
g3
F1440581377.197316
sg4
(dp196
g6
(I-67
I107
tp197
ssg8
(dp198
(g6
I5
tp199
(I29801
I29757
tp200
s(g6
I3
tp201
(I29809
I29765
tp202
ssba(iSample
Sample
p203
(dp204
g3
F1440581379.571554
sg4
(dp205
g6
(I-59
I107
tp206
ssg8
(dp207
(g6
I5
tp208
(I29819
I29775
tp209
s(g6
I3
tp210
(I29827
I29783
tp211
ssba(iSample
Sample
p212
(dp213
g3
F1440581382.043137
sg4
(dp214
g6
(I-58
I107
tp215
ssg8
(dp216
(g6
I5
tp217
(I29837
I29793
tp218
s(g6
I3
tp219
(I29845
I29801
tp220
ssba(iSample
Sample
p221
(dp222
g3
F1440581384.46066
sg4
(dp223
g6
(I-52
I107
tp224
ssg8
(dp225
(g6
I5
tp226
(I29855
I29811
tp227
s(g6
I3
tp228
(I29863
I29819
tp229
ssba(iSample
Sample
p230
(dp231
g3
F1440581386.901388
sg4
(dp232
g6
(I-49
I107
tp233
ssg8
(dp234
(g6
I5
tp235
(I29873
I29829
tp236
s(g6
I3
tp237
(I29881
I29836
tp238
ssba(iSample
Sample
p239
(dp240
g3
F1440581389.32707
sg4
(dp241
g6
(I-50
I107
tp242
ssg8
(dp243
(g6
I5
tp244
(I29891
I29847
tp245
s(g6
I3
tp246
(I29899
I29854
tp247
ssba(iSample
Sample
p248
(dp249
g3
F1440581391.753078
sg4
(dp250
g6
(I-49
I107
tp251
ssg8
(dp252
(g6
I5
tp253
(I29909
I29865
tp254
s(g6
I3
tp255
(I29917
I29872
tp256
ssba(iSample
Sample
p257
(dp258
g3
F1440581394.182815
sg4
(dp259
g6
(I-49
I106
tp260
ssg8
(dp261
(g6
I5
tp262
(I29927
I29883
tp263
s(g6
I3
tp264
(I29935
I29890
tp265
ssba(iSample
Sample
p266
(dp267
g3
F1440581396.604945
sg4
(dp268
g6
(I-47
I107
tp269
ssg8
(dp270
(g6
I5
tp271
(I29945
I29901
tp272
s(g6
I3
tp273
(I29953
I29908
tp274
ssba(iSample
Sample
p275
(dp276
g3
F1440581399.055978
sg4
(dp277
g6
(I-48
I107
tp278
ssg8
(dp279
(g6
I5
tp280
(I29963
I29919
tp281
s(g6
I3
tp282
(I29971
I29926
tp283
ssba(iSample
Sample
p284
(dp285
g3
F1440581401.486159
sg4
(dp286
g6
(I-49
I107
tp287
ssg8
(dp288
(g6
I5
tp289
(I29981
I29937
tp290
s(g6
I3
tp291
(I29989
I29944
tp292
ssba(iSample
Sample
p293
(dp294
g3
F1440581403.912744
sg4
(dp295
g6
(I-50
I107
tp296
ssg8
(dp297
(g6
I5
tp298
(I29999
I29955
tp299
s(g6
I3
tp300
(I30007
I29962
tp301
ssba(iSample
Sample
p302
(dp303
g3
F1440581406.339369
sg4
(dp304
g6
(I-52
I107
tp305
ssg8
(dp306
(g6
I5
tp307
(I30017
I29973
tp308
s(g6
I3
tp309
(I30025
I29980
tp310
ssba(iSample
Sample
p311
(dp312
g3
F1440581408.8288
sg4
(dp313
g6
(I-51
I107
tp314
ssg8
(dp315
(g6
I5
tp316
(I30035
I29990
tp317
s(g6
I3
tp318
(I30043
I29998
tp319
ssba(iSample
Sample
p320
(dp321
g3
F1440581411.243364
sg4
(dp322
g6
(I-51
I107
tp323
ssg8
(dp324
(g6
I5
tp325
(I30053
I30008
tp326
s(g6
I3
tp327
(I30061
I30016
tp328
ssba(iSample
Sample
p329
(dp330
g3
F1440581413.624998
sg4
(dp331
g6
(I-50
I107
tp332
ssg8
(dp333
(g6
I5
tp334
(I30071
I30026
tp335
s(g6
I3
tp336
(I30079
I30034
tp337
ssba(iSample
Sample
p338
(dp339
g3
F1440581416.073501
sg4
(dp340
g6
(I-50
I107
tp341
ssg8
(dp342
(g6
I5
tp343
(I30089
I30044
tp344
s(g6
I3
tp345
(I30097
I30052
tp346
ssba(iSample
Sample
p347
(dp348
g3
F1440581418.489182
sg4
(dp349
g6
(I-49
I107
tp350
ssg8
(dp351
(g6
I5
tp352
(I30110
I30065
tp353
s(g6
I3
tp354
(I30118
I30073
tp355
ssba(iSample
Sample
p356
(dp357
g3
F1440581421.301966
sg4
(dp358
g6
(I-47
I107
tp359
ssg8
(dp360
(g6
I5
tp361
(I30128
I30083
tp362
s(g6
I3
tp363
(I30136
I30091
tp364
ssba(iSample
Sample
p365
(dp366
g3
F1440581423.801523
sg4
(dp367
g6
(I-47
I107
tp368
ssg8
(dp369
(g6
I5
tp370
(I30146
I30101
tp371
s(g6
I3
tp372
(I30154
I30109
tp373
ssba(iSample
Sample
p374
(dp375
g3
F1440581426.170545
sg4
(dp376
g6
(I-51
I107
tp377
ssg8
(dp378
(g6
I5
tp379
(I30164
I30119
tp380
s(g6
I3
tp381
(I30172
I30127
tp382
ssba(iSample
Sample
p383
(dp384
g3
F1440581428.593989
sg4
(dp385
g6
(I-49
I107
tp386
ssg8
(dp387
(g6
I5
tp388
(I30183
I30138
tp389
s(g6
I3
tp390
(I30191
I30146
tp391
ssba(iSample
Sample
p392
(dp393
g3
F1440581431.168622
sg4
(dp394
g6
(I-51
I107
tp395
ssg8
(dp396
(g6
I5
tp397
(I30201
I30156
tp398
s(g6
I3
tp399
(I30209
I30164
tp400
ssba(iSample
Sample
p401
(dp402
g3
F1440581433.599254
sg4
(dp403
g6
(I-51
I107
tp404
ssg8
(dp405
(g6
I5
tp406
(I30219
I30174
tp407
s(g6
I3
tp408
(I30227
I30182
tp409
ssba(iSample
Sample
p410
(dp411
g3
F1440581436.034546
sg4
(dp412
g6
(I-51
I107
tp413
ssg8
(dp414
(g6
I5
tp415
(I30237
I30192
tp416
s(g6
I3
tp417
(I30245
I30200
tp418
ssba(iSample
Sample
p419
(dp420
g3
F1440581438.45377
sg4
(dp421
g6
(I-52
I107
tp422
ssg8
(dp423
(g6
I5
tp424
(I30255
I30210
tp425
s(g6
I3
tp426
(I30263
I30218
tp427
ssba(iSample
Sample
p428
(dp429
g3
F1440581440.922079
sg4
(dp430
g6
(I-53
I107
tp431
ssg8
(dp432
(g6
I5
tp433
(I30273
I30228
tp434
s(g6
I3
tp435
(I30281
I30236
tp436
ssba(iSample
Sample
p437
(dp438
g3
F1440581443.336797
sg4
(dp439
g6
(I-47
I107
tp440
ssg8
(dp441
(g6
I5
tp442
(I30291
I30246
tp443
s(g6
I3
tp444
(I30299
I30254
tp445
ssba(iSample
Sample
p446
(dp447
g3
F1440581445.776952
sg4
(dp448
g6
(I-50
I107
tp449
ssg8
(dp450
(g6
I5
tp451
(I30309
I30264
tp452
s(g6
I3
tp453
(I30317
I30272
tp454
ssba(iSample
Sample
p455
(dp456
g3
F1440581448.221367
sg4
(dp457
g6
(I-49
I107
tp458
ssg8
(dp459
(g6
I5
tp460
(I30327
I30282
tp461
s(g6
I3
tp462
(I30335
I30290
tp463
ssba(iSample
Sample
p464
(dp465
g3
F1440581450.67058
sg4
(dp466
g6
(I-48
I107
tp467
ssg8
(dp468
(g6
I5
tp469
(I30345
I30300
tp470
s(g6
I3
tp471
(I30353
I30308
tp472
ssba(iSample
Sample
p473
(dp474
g3
F1440581453.050933
sg4
(dp475
g6
(I-53
I107
tp476
ssg8
(dp477
(g6
I5
tp478
(I30363
I30318
tp479
s(g6
I3
tp480
(I30371
I30326
tp481
ssba(iSample
Sample
p482
(dp483
g3
F1440581455.478589
sg4
(dp484
g6
(I-55
I106
tp485
ssg8
(dp486
(g6
I5
tp487
(I30381
I30336
tp488
s(g6
I3
tp489
(I30389
I30343
tp490
ssba(iSample
Sample
p491
(dp492
g3
F1440581457.928612
sg4
(dp493
g6
(I-53
I107
tp494
ssg8
(dp495
(g6
I5
tp496
(I30399
I30354
tp497
s(g6
I3
tp498
(I30407
I30361
tp499
ssba(iSample
Sample
p500
(dp501
g3
F1440581460.351658
sg4
(dp502
g6
(I-54
I107
tp503
ssg8
(dp504
(g6
I5
tp505
(I30417
I30372
tp506
s(g6
I3
tp507
(I30425
I30379
tp508
ssba(iSample
Sample
p509
(dp510
g3
F1440581462.781938
sg4
(dp511
g6
(I-54
I107
tp512
ssg8
(dp513
(g6
I5
tp514
(I30435
I30390
tp515
s(g6
I3
tp516
(I30443
I30397
tp517
ssba(iSample
Sample
p518
(dp519
g3
F1440581465.221821
sg4
(dp520
g6
(I-54
I107
tp521
ssg8
(dp522
(g6
I5
tp523
(I30453
I30408
tp524
s(g6
I3
tp525
(I30461
I30415
tp526
ssba(iSample
Sample
p527
(dp528
g3
F1440581467.702378
sg4
(dp529
g6
(I-53
I107
tp530
ssg8
(dp531
(g6
I5
tp532
(I30471
I30426
tp533
s(g6
I3
tp534
(I30479
I30433
tp535
ssba(iSample
Sample
p536
(dp537
g3
F1440581470.090927
sg4
(dp538
g6
(I-53
I107
tp539
ssg8
(dp540
(g6
I5
tp541
(I30489
I30444
tp542
s(g6
I3
tp543
(I30497
I30451
tp544
ssba.