(lp0
(iSample
Sample
p1
(dp2
S'timeStamp'
p3
F1440581092.368734
sS'moteSignal'
p4
(dp5
S'f53b'
p6
(I-45
I107
tp7
ssS'moteData'
p8
(dp9
(g6
I5
tp10
(I27692
I27650
tp11
s(g6
I3
tp12
(I27700
I27656
tp13
ssba(iSample
Sample
p14
(dp15
g3
F1440581094.9169
sg4
(dp16
g6
(I-45
I107
tp17
ssg8
(dp18
(g6
I5
tp19
(I27711
I27669
tp20
s(g6
I3
tp21
(I27719
I27675
tp22
ssba(iSample
Sample
p23
(dp24
g3
F1440581097.353795
sg4
(dp25
g6
(I-45
I107
tp26
ssg8
(dp27
(g6
I5
tp28
(I27729
I27687
tp29
s(g6
I3
tp30
(I27737
I27693
tp31
ssba(iSample
Sample
p32
(dp33
g3
F1440581099.805288
sg4
(dp34
g6
(I-45
I107
tp35
ssg8
(dp36
(g6
I5
tp37
(I27747
I27705
tp38
s(g6
I3
tp39
(I27755
I27711
tp40
ssba(iSample
Sample
p41
(dp42
g3
F1440581102.216238
sg4
(dp43
g6
(I-44
I107
tp44
ssg8
(dp45
(g6
I5
tp46
(I27765
I27723
tp47
s(g6
I3
tp48
(I27773
I27729
tp49
ssba(iSample
Sample
p50
(dp51
g3
F1440581104.644792
sg4
(dp52
g6
(I-46
I107
tp53
ssg8
(dp54
(g6
I5
tp55
(I27783
I27741
tp56
s(g6
I3
tp57
(I27791
I27747
tp58
ssba(iSample
Sample
p59
(dp60
g3
F1440581107.09753
sg4
(dp61
g6
(I-44
I107
tp62
ssg8
(dp63
(g6
I5
tp64
(I27801
I27759
tp65
s(g6
I3
tp66
(I27809
I27765
tp67
ssba(iSample
Sample
p68
(dp69
g3
F1440581109.487088
sg4
(dp70
g6
(I-45
I107
tp71
ssg8
(dp72
(g6
I5
tp73
(I27822
I27780
tp74
s(g6
I3
tp75
(I27830
I27786
tp76
ssba(iSample
Sample
p77
(dp78
g3
F1440581112.329799
sg4
(dp79
g6
(I-45
I107
tp80
ssg8
(dp81
(g6
I5
tp82
(I27840
I27798
tp83
s(g6
I3
tp84
(I27848
I27804
tp85
ssba(iSample
Sample
p86
(dp87
g3
F1440581114.764685
sg4
(dp88
g6
(I-47
I107
tp89
ssg8
(dp90
(g6
I5
tp91
(I27858
I27815
tp92
s(g6
I3
tp93
(I27866
I27822
tp94
ssba(iSample
Sample
p95
(dp96
g3
F1440581117.209957
sg4
(dp97
g6
(I-46
I107
tp98
ssg8
(dp99
(g6
I5
tp100
(I27876
I27833
tp101
s(g6
I3
tp102
(I27884
I27840
tp103
ssba(iSample
Sample
p104
(dp105
g3
F1440581119.648734
sg4
(dp106
g6
(I-44
I107
tp107
ssg8
(dp108
(g6
I5
tp109
(I27894
I27851
tp110
s(g6
I3
tp111
(I27902
I27858
tp112
ssba(iSample
Sample
p113
(dp114
g3
F1440581122.068038
sg4
(dp115
g6
(I-44
I107
tp116
ssg8
(dp117
(g6
I5
tp118
(I27912
I27869
tp119
s(g6
I3
tp120
(I27920
I27876
tp121
ssba(iSample
Sample
p122
(dp123
g3
F1440581124.558381
sg4
(dp124
g6
(I-45
I107
tp125
ssg8
(dp126
(g6
I5
tp127
(I27930
I27887
tp128
s(g6
I3
tp129
(I27938
I27894
tp130
ssba(iSample
Sample
p131
(dp132
g3
F1440581126.957107
sg4
(dp133
g6
(I-43
I107
tp134
ssg8
(dp135
(g6
I5
tp136
(I27948
I27905
tp137
s(g6
I3
tp138
(I27956
I27912
tp139
ssba(iSample
Sample
p140
(dp141
g3
F1440581129.359069
sg4
(dp142
g6
(I-45
I107
tp143
ssg8
(dp144
(g6
I5
tp145
(I27966
I27923
tp146
s(g6
I3
tp147
(I27974
I27930
tp148
ssba(iSample
Sample
p149
(dp150
g3
F1440581131.837535
sg4
(dp151
g6
(I-50
I107
tp152
ssg8
(dp153
(g6
I5
tp154
(I27984
I27941
tp155
s(g6
I3
tp156
(I27992
I27948
tp157
ssba(iSample
Sample
p158
(dp159
g3
F1440581134.330449
sg4
(dp160
g6
(I-47
I106
tp161
ssg8
(dp162
(g6
I5
tp163
(I28003
I27960
tp164
s(g6
I3
tp165
(I28011
I27967
tp166
ssba(iSample
Sample
p167
(dp168
g3
F1440581136.813042
sg4
(dp169
g6
(I-46
I107
tp170
ssg8
(dp171
(g6
I5
tp172
(I28021
I27978
tp173
s(g6
I3
tp174
(I28029
I27985
tp175
ssba(iSample
Sample
p176
(dp177
g3
F1440581139.231756
sg4
(dp178
g6
(I-46
I107
tp179
ssg8
(dp180
(g6
I5
tp181
(I28039
I27996
tp182
s(g6
I3
tp183
(I28047
I28003
tp184
ssba(iSample
Sample
p185
(dp186
g3
F1440581141.646021
sg4
(dp187
g6
(I-44
I107
tp188
ssg8
(dp189
(g6
I5
tp190
(I28057
I28014
tp191
s(g6
I3
tp192
(I28065
I28021
tp193
ssba(iSample
Sample
p194
(dp195
g3
F1440581144.10161
sg4
(dp196
g6
(I-45
I107
tp197
ssg8
(dp198
(g6
I5
tp199
(I28075
I28032
tp200
s(g6
I3
tp201
(I28083
I28039
tp202
ssba(iSample
Sample
p203
(dp204
g3
F1440581146.516658
sg4
(dp205
g6
(I-44
I107
tp206
ssg8
(dp207
(g6
I5
tp208
(I28093
I28050
tp209
s(g6
I3
tp210
(I28101
I28057
tp211
ssba(iSample
Sample
p212
(dp213
g3
F1440581148.99291
sg4
(dp214
g6
(I-45
I107
tp215
ssg8
(dp216
(g6
I5
tp217
(I28111
I28068
tp218
s(g6
I3
tp219
(I28119
I28075
tp220
ssba(iSample
Sample
p221
(dp222
g3
F1440581151.413961
sg4
(dp223
g6
(I-46
I107
tp224
ssg8
(dp225
(g6
I5
tp226
(I28129
I28086
tp227
s(g6
I3
tp228
(I28137
I28093
tp229
ssba(iSample
Sample
p230
(dp231
g3
F1440581153.840165
sg4
(dp232
g6
(I-49
I107
tp233
ssg8
(dp234
(g6
I5
tp235
(I28147
I28104
tp236
s(g6
I3
tp237
(I28155
I28111
tp238
ssba(iSample
Sample
p239
(dp240
g3
F1440581156.307299
sg4
(dp241
g6
(I-47
I107
tp242
ssg8
(dp243
(g6
I5
tp244
(I28165
I28122
tp245
s(g6
I3
tp246
(I28173
I28129
tp247
ssba(iSample
Sample
p248
(dp249
g3
F1440581158.688715
sg4
(dp250
g6
(I-47
I107
tp251
ssg8
(dp252
(g6
I5
tp253
(I28183
I28140
tp254
s(g6
I3
tp255
(I28191
I28147
tp256
ssba(iSample
Sample
p257
(dp258
g3
F1440581161.111766
sg4
(dp259
g6
(I-46
I107
tp260
ssg8
(dp261
(g6
I5
tp262
(I28201
I28158
tp263
s(g6
I3
tp264
(I28209
I28165
tp265
ssba(iSample
Sample
p266
(dp267
g3
F1440581163.542982
sg4
(dp268
g6
(I-47
I107
tp269
ssg8
(dp270
(g6
I5
tp271
(I28219
I28176
tp272
s(g6
I3
tp273
(I28227
I28183
tp274
ssba(iSample
Sample
p275
(dp276
g3
F1440581165.972842
sg4
(dp277
g6
(I-48
I107
tp278
ssg8
(dp279
(g6
I5
tp280
(I28237
I28194
tp281
s(g6
I3
tp282
(I28245
I28201
tp283
ssba(iSample
Sample
p284
(dp285
g3
F1440581168.406816
sg4
(dp286
g6
(I-49
I107
tp287
ssg8
(dp288
(g6
I5
tp289
(I28255
I28212
tp290
s(g6
I3
tp291
(I28263
I28219
tp292
ssba(iSample
Sample
p293
(dp294
g3
F1440581170.85264
sg4
(dp295
g6
(I-48
I107
tp296
ssg8
(dp297
(g6
I5
tp298
(I28273
I28230
tp299
s(g6
I3
tp300
(I28281
I28237
tp301
ssba(iSample
Sample
p302
(dp303
g3
F1440581173.299541
sg4
(dp304
g6
(I-47
I107
tp305
ssg8
(dp306
(g6
I5
tp307
(I28291
I28248
tp308
s(g6
I3
tp309
(I28299
I28255
tp310
ssba(iSample
Sample
p311
(dp312
g3
F1440581175.753236
sg4
(dp313
g6
(I-44
I107
tp314
ssg8
(dp315
(g6
I5
tp316
(I28309
I28266
tp317
s(g6
I3
tp318
(I28317
I28273
tp319
ssba(iSample
Sample
p320
(dp321
g3
F1440581178.151557
sg4
(dp322
g6
(I-45
I107
tp323
ssg8
(dp324
(g6
I5
tp325
(I28327
I28284
tp326
s(g6
I3
tp327
(I28335
I28291
tp328
ssba(iSample
Sample
p329
(dp330
g3
F1440581180.599053
sg4
(dp331
g6
(I-44
I107
tp332
ssg8
(dp333
(g6
I5
tp334
(I28345
I28302
tp335
s(g6
I3
tp336
(I28353
I28309
tp337
ssba(iSample
Sample
p338
(dp339
g3
F1440581183.070131
sg4
(dp340
g6
(I-46
I107
tp341
ssg8
(dp342
(g6
I5
tp343
(I28364
I28321
tp344
s(g6
I3
tp345
(I28372
I28328
tp346
ssba(iSample
Sample
p347
(dp348
g3
F1440581185.623631
sg4
(dp349
g6
(I-46
I107
tp350
ssg8
(dp351
(g6
I5
tp352
(I28383
I28340
tp353
s(g6
I3
tp354
(I28391
I28347
tp355
ssba(iSample
Sample
p356
(dp357
g3
F1440581188.181423
sg4
(dp358
g6
(I-46
I107
tp359
ssg8
(dp360
(g6
I5
tp361
(I28401
I28358
tp362
s(g6
I3
tp363
(I28409
I28365
tp364
ssba(iSample
Sample
p365
(dp366
g3
F1440581190.627451
sg4
(dp367
g6
(I-47
I106
tp368
ssg8
(dp369
(g6
I5
tp370
(I28420
I28377
tp371
s(g6
I3
tp372
(I28428
I28384
tp373
ssba(iSample
Sample
p374
(dp375
g3
F1440581193.182877
sg4
(dp376
g6
(I-45
I107
tp377
ssg8
(dp378
(g6
I5
tp379
(I28438
I28395
tp380
s(g6
I3
tp381
(I28446
I28402
tp382
ssba(iSample
Sample
p383
(dp384
g3
F1440581195.632008
sg4
(dp385
g6
(I-44
I107
tp386
ssg8
(dp387
(g6
I5
tp388
(I28457
I28414
tp389
s(g6
I3
tp390
(I28465
I28421
tp391
ssba(iSample
Sample
p392
(dp393
g3
F1440581198.258929
sg4
(dp394
g6
(I-45
I107
tp395
ssg8
(dp396
(g6
I5
tp397
(I28476
I28433
tp398
s(g6
I3
tp399
(I28484
I28440
tp400
ssba(iSample
Sample
p401
(dp402
g3
F1440581200.715063
sg4
(dp403
g6
(I-46
I107
tp404
ssg8
(dp405
(g6
I5
tp406
(I28494
I28451
tp407
s(g6
I3
tp408
(I28502
I28458
tp409
ssba(iSample
Sample
p410
(dp411
g3
F1440581203.204526
sg4
(dp412
g6
(I-46
I107
tp413
ssg8
(dp414
(g6
I5
tp415
(I28513
I28470
tp416
s(g6
I3
tp417
(I28521
I28477
tp418
ssba(iSample
Sample
p419
(dp420
g3
F1440581205.715989
sg4
(dp421
g6
(I-45
I107
tp422
ssg8
(dp423
(g6
I5
tp424
(I28531
I28488
tp425
s(g6
I3
tp426
(I28539
I28495
tp427
ssba(iSample
Sample
p428
(dp429
g3
F1440581208.189695
sg4
(dp430
g6
(I-46
I107
tp431
ssg8
(dp432
(g6
I5
tp433
(I28550
I28507
tp434
s(g6
I3
tp435
(I28558
I28514
tp436
ssba(iSample
Sample
p437
(dp438
g3
F1440581210.75403
sg4
(dp439
g6
(I-44
I107
tp440
ssg8
(dp441
(g6
I5
tp442
(I28569
I28526
tp443
s(g6
I3
tp444
(I28577
I28533
tp445
ssba(iSample
Sample
p446
(dp447
g3
F1440581213.361678
sg4
(dp448
g6
(I-46
I107
tp449
ssg8
(dp450
(g6
I5
tp451
(I28588
I28545
tp452
s(g6
I3
tp453
(I28596
I28552
tp454
ssba(iSample
Sample
p455
(dp456
g3
F1440581215.891184
sg4
(dp457
g6
(I-46
I107
tp458
ssg8
(dp459
(g6
I5
tp460
(I28607
I28564
tp461
s(g6
I3
tp462
(I28615
I28571
tp463
ssba(iSample
Sample
p464
(dp465
g3
F1440581218.418164
sg4
(dp466
g6
(I-47
I107
tp467
ssg8
(dp468
(g6
I5
tp469
(I28625
I28582
tp470
s(g6
I3
tp471
(I28633
I28589
tp472
ssba(iSample
Sample
p473
(dp474
g3
F1440581220.924942
sg4
(dp475
g6
(I-47
I107
tp476
ssg8
(dp477
(g6
I5
tp478
(I28644
I28601
tp479
s(g6
I3
tp480
(I28652
I28608
tp481
ssba(iSample
Sample
p482
(dp483
g3
F1440581223.457444
sg4
(dp484
g6
(I-45
I107
tp485
ssg8
(dp486
(g6
I5
tp487
(I28663
I28620
tp488
s(g6
I3
tp489
(I28671
I28627
tp490
ssba(iSample
Sample
p491
(dp492
g3
F1440581225.988753
sg4
(dp493
g6
(I-44
I107
tp494
ssg8
(dp495
(g6
I5
tp496
(I28681
I28638
tp497
s(g6
I3
tp498
(I28689
I28645
tp499
ssba(iSample
Sample
p500
(dp501
g3
F1440581228.425635
sg4
(dp502
g6
(I-45
I107
tp503
ssg8
(dp504
(g6
I5
tp505
(I28699
I28656
tp506
s(g6
I3
tp507
(I28707
I28663
tp508
ssba(iSample
Sample
p509
(dp510
g3
F1440581230.859471
sg4
(dp511
g6
(I-46
I107
tp512
ssg8
(dp513
(g6
I5
tp514
(I28717
I28674
tp515
s(g6
I3
tp516
(I28725
I28681
tp517
ssba(iSample
Sample
p518
(dp519
g3
F1440581233.347411
sg4
(dp520
g6
(I-47
I107
tp521
ssg8
(dp522
(g6
I5
tp523
(I28736
I28693
tp524
s(g6
I3
tp525
(I28744
I28700
tp526
ssba(iSample
Sample
p527
(dp528
g3
F1440581235.892544
sg4
(dp529
g6
(I-46
I107
tp530
ssg8
(dp531
(g6
I5
tp532
(I28755
I28712
tp533
s(g6
I3
tp534
(I28763
I28719
tp535
ssba(iSample
Sample
p536
(dp537
g3
F1440581238.452719
sg4
(dp538
g6
(I-45
I107
tp539
ssg8
(dp540
(g6
I5
tp541
(I28774
I28731
tp542
s(g6
I3
tp543
(I28782
I28738
tp544
ssba.