(lp0
(iSample
Sample
p1
(dp2
S'timeStamp'
p3
F1440429784.550386
sS'moteData'
p4
(dp5
(S'8031'
p6
I5
tp7
(I24682
I23410
tp8
s(S'8054'
p9
I7
tp10
(I24636
I24117
tp11
s(g9
I4
tp12
(I24647
I24159
tp13
s(S'85d2'
p14
I6
tp15
(I24601
I24124
tp16
s(g14
I8
tp17
(I24539
I24069
tp18
s(g6
I2
tp19
(I24667
I23394
tp20
ssba(iSample
Sample
p21
(dp22
g3
F1440429788.214901
sg4
(dp23
(g6
I5
tp24
(I24707
I23434
tp25
s(g9
I7
tp26
(I24663
I24144
tp27
s(g9
I4
tp28
(I24674
I24186
tp29
s(g14
I6
tp30
(I24626
I24149
tp31
s(g14
I8
tp32
(I24564
I24094
tp33
s(g6
I2
tp34
(I24692
I23419
tp35
ssba(iSample
Sample
p36
(dp37
g3
F1440429791.490058
sg4
(dp38
(g6
I5
tp39
(I24731
I23458
tp40
s(g9
I7
tp41
(I24687
I24168
tp42
s(g9
I4
tp43
(I24698
I24209
tp44
s(g14
I6
tp45
(I24650
I24172
tp46
s(g14
I8
tp47
(I24588
I24118
tp48
s(g6
I2
tp49
(I24716
I23443
tp50
ssba(iSample
Sample
p51
(dp52
g3
F1440429794.711773
sg4
(dp53
(g6
I5
tp54
(I24758
I23485
tp55
s(g9
I7
tp56
(I24711
I24192
tp57
s(g9
I4
tp58
(I24722
I24233
tp59
s(g14
I6
tp60
(I24674
I24196
tp61
s(g14
I8
tp62
(I24612
I24142
tp63
s(g6
I2
tp64
(I24743
I23470
tp65
ssba(iSample
Sample
p66
(dp67
g3
F1440429798.399036
sg4
(dp68
(g6
I5
tp69
(I24791
I23516
tp70
s(g9
I7
tp71
(I24748
I24228
tp72
s(g9
I4
tp73
(I24759
I24270
tp74
s(g14
I6
tp75
(I24710
I24232
tp76
s(g14
I8
tp77
(I24648
I24178
tp78
s(g6
I2
tp79
(I24776
I23503
tp80
ssba(iSample
Sample
p81
(dp82
g3
F1440429802.839451
sg4
(dp83
(g6
I5
tp84
(I24815
I23540
tp85
s(g9
I7
tp86
(I24771
I24250
tp87
s(g9
I4
tp88
(I24782
I24292
tp89
s(g14
I6
tp90
(I24733
I24255
tp91
s(g14
I8
tp92
(I24671
I24201
tp93
s(g6
I2
tp94
(I24800
I23526
tp95
ssba(iSample
Sample
p96
(dp97
g3
F1440429806.087773
sg4
(dp98
(g6
I5
tp99
(I24838
I23562
tp100
s(g9
I7
tp101
(I24795
I24274
tp102
s(g9
I4
tp103
(I24806
I24315
tp104
s(g14
I6
tp105
(I24757
I24279
tp106
s(g14
I8
tp107
(I24695
I24225
tp108
s(g6
I2
tp109
(I24823
I23547
tp110
ssba(iSample
Sample
p111
(dp112
g3
F1440429809.192485
sg4
(dp113
(g6
I5
tp114
(I24861
I23584
tp115
s(g9
I7
tp116
(I24818
I24297
tp117
s(g9
I4
tp118
(I24829
I24338
tp119
s(g14
I6
tp120
(I24780
I24302
tp121
s(g14
I8
tp122
(I24718
I24248
tp123
s(g6
I2
tp124
(I24846
I23568
tp125
ssba(iSample
Sample
p126
(dp127
g3
F1440429812.325248
sg4
(dp128
(g6
I5
tp129
(I24885
I23608
tp130
s(g9
I7
tp131
(I24842
I24319
tp132
s(g9
I4
tp133
(I24853
I24361
tp134
s(g14
I6
tp135
(I24804
I24326
tp136
s(g14
I8
tp137
(I24742
I24271
tp138
s(g6
I2
tp139
(I24870
I23591
tp140
ssba(iSample
Sample
p141
(dp142
g3
F1440429815.602972
sg4
(dp143
(g6
I5
tp144
(I24909
I23629
tp145
s(g9
I7
tp146
(I24866
I24341
tp147
s(g9
I4
tp148
(I24877
I24383
tp149
s(g14
I6
tp150
(I24828
I24350
tp151
s(g14
I8
tp152
(I24766
I24295
tp153
s(g6
I2
tp154
(I24894
I23613
tp155
ssba(iSample
Sample
p156
(dp157
g3
F1440429818.804918
sg4
(dp158
(g6
I5
tp159
(I24940
I23660
tp160
s(g9
I7
tp161
(I24897
I24371
tp162
s(g9
I4
tp163
(I24908
I24414
tp164
s(g14
I6
tp165
(I24859
I24381
tp166
s(g14
I8
tp167
(I24797
I24326
tp168
s(g6
I2
tp169
(I24925
I23643
tp170
ssba(iSample
Sample
p171
(dp172
g3
F1440429822.989091
sg4
(dp173
(g6
I5
tp174
(I24964
I23682
tp175
s(g9
I7
tp176
(I24921
I24393
tp177
s(g9
I4
tp178
(I24932
I24438
tp179
s(g14
I6
tp180
(I24883
I24405
tp181
s(g14
I8
tp182
(I24821
I24350
tp183
s(g6
I2
tp184
(I24949
I23667
tp185
ssba(iSample
Sample
p186
(dp187
g3
F1440429826.203951
sg4
(dp188
(g6
I5
tp189
(I24987
I23703
tp190
s(g9
I7
tp191
(I24944
I24416
tp192
s(g9
I4
tp193
(I24955
I24461
tp194
s(g14
I6
tp195
(I24906
I24428
tp196
s(g14
I8
tp197
(I24844
I24373
tp198
s(g6
I2
tp199
(I24972
I23689
tp200
ssba(iSample
Sample
p201
(dp202
g3
F1440429829.36099
sg4
(dp203
(g6
I5
tp204
(I25013
I23728
tp205
s(g9
I7
tp206
(I24968
I24440
tp207
s(g9
I4
tp208
(I24979
I24485
tp209
s(g14
I6
tp210
(I24930
I24452
tp211
s(g14
I8
tp212
(I24868
I24397
tp213
s(g6
I2
tp214
(I24998
I23715
tp215
ssba(iSample
Sample
p216
(dp217
g3
F1440429832.882286
sg4
(dp218
(g6
I5
tp219
(I25038
I23753
tp220
s(g9
I7
tp221
(I24995
I24467
tp222
s(g9
I4
tp223
(I25006
I24512
tp224
s(g14
I6
tp225
(I24957
I24479
tp226
s(g14
I8
tp227
(I24895
I24423
tp228
s(g6
I2
tp229
(I25023
I23740
tp230
ssba(iSample
Sample
p231
(dp232
g3
F1440429836.177534
sg4
(dp233
(g6
I5
tp234
(I25061
I23774
tp235
s(g9
I7
tp236
(I25018
I24490
tp237
s(g9
I4
tp238
(I25029
I24535
tp239
s(g14
I6
tp240
(I24980
I24501
tp241
s(g14
I8
tp242
(I24918
I24446
tp243
s(g6
I2
tp244
(I25046
I23761
tp245
ssba(iSample
Sample
p246
(dp247
g3
F1440429839.296918
sg4
(dp248
(g6
I5
tp249
(I25084
I23796
tp250
s(g9
I7
tp251
(I25041
I24513
tp252
s(g9
I4
tp253
(I25052
I24558
tp254
s(g14
I6
tp255
(I25003
I24524
tp256
s(g14
I8
tp257
(I24941
I24469
tp258
s(g6
I2
tp259
(I25069
I23784
tp260
ssba(iSample
Sample
p261
(dp262
g3
F1440429842.406503
sg4
(dp263
(g6
I5
tp264
(I25118
I23828
tp265
s(g9
I7
tp266
(I25072
I24544
tp267
s(g9
I4
tp268
(I25083
I24588
tp269
s(g14
I6
tp270
(I25037
I24558
tp271
s(g14
I8
tp272
(I24975
I24503
tp273
s(g6
I2
tp274
(I25103
I23818
tp275
ssba(iSample
Sample
p276
(dp277
g3
F1440429846.972629
sg4
(dp278
(g6
I5
tp279
(I25144
I23851
tp280
s(g9
I7
tp281
(I25100
I24572
tp282
s(g9
I4
tp283
(I25111
I24616
tp284
s(g14
I6
tp285
(I25062
I24583
tp286
s(g14
I8
tp287
(I25000
I24527
tp288
s(g6
I2
tp289
(I25129
I23842
tp290
ssba(iSample
Sample
p291
(dp292
g3
F1440429850.50262
sg4
(dp293
(g6
I5
tp294
(I25167
I23874
tp295
s(g9
I7
tp296
(I25124
I24596
tp297
s(g9
I4
tp298
(I25135
I24640
tp299
s(g14
I6
tp300
(I25086
I24607
tp301
s(g14
I8
tp302
(I25024
I24551
tp303
s(g6
I2
tp304
(I25152
I23864
tp305
ssba(iSample
Sample
p306
(dp307
g3
F1440429853.603056
sg4
(dp308
(g6
I5
tp309
(I25190
I23895
tp310
s(g9
I7
tp311
(I25147
I24619
tp312
s(g9
I4
tp313
(I25158
I24663
tp314
s(g14
I6
tp315
(I25109
I24630
tp316
s(g14
I8
tp317
(I25047
I24574
tp318
s(g6
I2
tp319
(I25175
I23886
tp320
ssba(iSample
Sample
p321
(dp322
g3
F1440429856.726385
sg4
(dp323
(g6
I5
tp324
(I25213
I23916
tp325
s(g9
I7
tp326
(I25170
I24642
tp327
s(g9
I4
tp328
(I25181
I24686
tp329
s(g14
I6
tp330
(I25132
I24653
tp331
s(g14
I8
tp332
(I25070
I24596
tp333
s(g6
I2
tp334
(I25198
I23908
tp335
ssba(iSample
Sample
p336
(dp337
g3
F1440429859.835867
sg4
(dp338
(g6
I5
tp339
(I25239
I23939
tp340
s(g9
I7
tp341
(I25196
I24667
tp342
s(g9
I4
tp343
(I25207
I24712
tp344
s(g14
I6
tp345
(I25158
I24679
tp346
s(g14
I8
tp347
(I25096
I24621
tp348
s(g6
I2
tp349
(I25224
I23934
tp350
ssba(iSample
Sample
p351
(dp352
g3
F1440429863.385885
sg4
(dp353
(g6
I5
tp354
(I25263
I23960
tp355
s(g9
I7
tp356
(I25220
I24691
tp357
s(g9
I4
tp358
(I25231
I24736
tp359
s(g14
I6
tp360
(I25182
I24702
tp361
s(g14
I8
tp362
(I25120
I24645
tp363
s(g6
I2
tp364
(I25248
I23956
tp365
ssba(iSample
Sample
p366
(dp367
g3
F1440429866.590157
sg4
(dp368
(g6
I5
tp369
(I25286
I23983
tp370
s(g9
I7
tp371
(I25243
I24714
tp372
s(g9
I4
tp373
(I25254
I24759
tp374
s(g14
I6
tp375
(I25205
I24725
tp376
s(g14
I8
tp377
(I25143
I24667
tp378
s(g6
I2
tp379
(I25271
I23978
tp380
ssba(iSample
Sample
p381
(dp382
g3
F1440429869.71746
sg4
(dp383
(g6
I5
tp384
(I25310
I24005
tp385
s(g9
I7
tp386
(I25267
I24738
tp387
s(g9
I4
tp388
(I25278
I24783
tp389
s(g14
I6
tp390
(I25229
I24748
tp391
s(g14
I8
tp392
(I25167
I24691
tp393
s(g6
I2
tp394
(I25295
I24001
tp395
ssba(iSample
Sample
p396
(dp397
g3
F1440429872.923478
sg4
(dp398
(g6
I5
tp399
(I25334
I24029
tp400
s(g9
I7
tp401
(I25291
I24762
tp402
s(g9
I4
tp403
(I25302
I24807
tp404
s(g14
I6
tp405
(I25253
I24772
tp406
s(g14
I8
tp407
(I25191
I24715
tp408
s(g6
I2
tp409
(I25319
I24024
tp410
ssba(iSample
Sample
p411
(dp412
g3
F1440429876.257191
sg4
(dp413
(g6
I5
tp414
(I25359
I24053
tp415
s(g9
I7
tp416
(I25316
I24787
tp417
s(g9
I4
tp418
(I25327
I24829
tp419
s(g14
I6
tp420
(I25278
I24797
tp421
s(g14
I8
tp422
(I25216
I24740
tp423
s(g6
I2
tp424
(I25344
I24048
tp425
ssba(iSample
Sample
p426
(dp427
g3
F1440429879.512977
sg4
(dp428
(g6
I5
tp429
(I25382
I24075
tp430
s(g9
I7
tp431
(I25339
I24810
tp432
s(g9
I4
tp433
(I25350
I24851
tp434
s(g14
I6
tp435
(I25301
I24820
tp436
s(g14
I8
tp437
(I25239
I24763
tp438
s(g6
I2
tp439
(I25367
I24070
tp440
ssba(iSample
Sample
p441
(dp442
g3
F1440429882.632677
sg4
(dp443
(g6
I5
tp444
(I25406
I24097
tp445
s(g9
I7
tp446
(I25362
I24832
tp447
s(g9
I4
tp448
(I25373
I24874
tp449
s(g14
I6
tp450
(I25324
I24843
tp451
s(g14
I8
tp452
(I25262
I24786
tp453
s(g6
I2
tp454
(I25391
I24094
tp455
ssba(iSample
Sample
p456
(dp457
g3
F1440429885.884768
sg4
(dp458
(g6
I5
tp459
(I25432
I24121
tp460
s(g9
I7
tp461
(I25387
I24857
tp462
s(g9
I4
tp463
(I25398
I24899
tp464
s(g14
I6
tp465
(I25350
I24868
tp466
s(g14
I8
tp467
(I25288
I24812
tp468
s(g6
I2
tp469
(I25417
I24120
tp470
ssba(iSample
Sample
p471
(dp472
g3
F1440429889.393339
sg4
(dp473
(g6
I5
tp474
(I25455
I24143
tp475
s(g9
I7
tp476
(I25412
I24881
tp477
s(g9
I4
tp478
(I25423
I24924
tp479
s(g14
I6
tp480
(I25374
I24892
tp481
s(g14
I8
tp482
(I25312
I24835
tp483
s(g6
I2
tp484
(I25440
I24142
tp485
ssba(iSample
Sample
p486
(dp487
g3
F1440429892.502999
sg4
(dp488
(g6
I5
tp489
(I25478
I24165
tp490
s(g9
I7
tp491
(I25435
I24903
tp492
s(g9
I4
tp493
(I25446
I24947
tp494
s(g14
I6
tp495
(I25397
I24915
tp496
s(g14
I8
tp497
(I25335
I24858
tp498
s(g6
I2
tp499
(I25463
I24165
tp500
ssba(iSample
Sample
p501
(dp502
g3
F1440429895.642862
sg4
(dp503
(g6
I5
tp504
(I25698
I24376
tp505
s(g9
I7
tp506
(I25655
I25119
tp507
s(g9
I4
tp508
(I25666
I25157
tp509
s(g14
I6
tp510
(I25617
I25131
tp511
s(g14
I8
tp512
(I25555
I25074
tp513
s(g6
I2
tp514
(I25683
I24375
tp515
ssba(iSample
Sample
p516
(dp517
g3
F1440429925.36127
sg4
(dp518
(g6
I5
tp519
(I25722
I24399
tp520
s(g9
I7
tp521
(I25679
I25142
tp522
s(g9
I4
tp523
(I25690
I25181
tp524
s(g14
I6
tp525
(I25641
I25155
tp526
s(g14
I8
tp527
(I25579
I25098
tp528
s(g6
I2
tp529
(I25707
I24398
tp530
ssba(iSample
Sample
p531
(dp532
g3
F1440429928.584865
sg4
(dp533
(g6
I5
tp534
(I25745
I24421
tp535
s(g9
I7
tp536
(I25702
I25165
tp537
s(g9
I4
tp538
(I25713
I25203
tp539
s(g14
I6
tp540
(I25664
I25176
tp541
s(g14
I8
tp542
(I25602
I25121
tp543
s(g6
I2
tp544
(I25730
I24420
tp545
ssba(iSample
Sample
p546
(dp547
g3
F1440429931.689891
sg4
(dp548
(g6
I5
tp549
(I25768
I24443
tp550
s(g9
I7
tp551
(I25725
I25188
tp552
s(g9
I4
tp553
(I25736
I25226
tp554
s(g14
I6
tp555
(I25687
I25198
tp556
s(g14
I8
tp557
(I25625
I25144
tp558
s(g6
I2
tp559
(I25753
I24442
tp560
ssba(iSample
Sample
p561
(dp562
g3
F1440429934.752368
sg4
(dp563
(g6
I5
tp564
(I25791
I24464
tp565
s(g9
I7
tp566
(I25748
I25209
tp567
s(g9
I4
tp568
(I25759
I25249
tp569
s(g14
I6
tp570
(I25710
I25221
tp571
s(g14
I8
tp572
(I25648
I25167
tp573
s(g6
I2
tp574
(I25776
I24464
tp575
ssba(iSample
Sample
p576
(dp577
g3
F1440429937.880351
sg4
(dp578
(g6
I5
tp579
(I25817
I24489
tp580
s(g9
I7
tp581
(I25774
I25235
tp582
s(g9
I4
tp583
(I25785
I25274
tp584
s(g14
I6
tp585
(I25736
I25246
tp586
s(g14
I8
tp587
(I25674
I25192
tp588
s(g6
I2
tp589
(I25802
I24488
tp590
ssba(iSample
Sample
p591
(dp592
g3
F1440429941.388379
sg4
(dp593
(g6
I5
tp594
(I25841
I24513
tp595
s(g9
I7
tp596
(I25797
I25257
tp597
s(g9
I4
tp598
(I25808
I25294
tp599
s(g14
I6
tp600
(I25759
I25269
tp601
s(g14
I8
tp602
(I25697
I25215
tp603
s(g6
I2
tp604
(I25826
I24511
tp605
ssba(iSample
Sample
p606
(dp607
g3
F1440429944.720876
sg4
(dp608
(g6
I5
tp609
(I25865
I24537
tp610
s(g9
I7
tp611
(I25822
I25282
tp612
s(g9
I4
tp613
(I25833
I25317
tp614
s(g14
I6
tp615
(I25784
I25294
tp616
s(g14
I8
tp617
(I25722
I25240
tp618
s(g6
I2
tp619
(I25850
I24533
tp620
ssba(iSample
Sample
p621
(dp622
g3
F1440429947.883698
sg4
(dp623
(g6
I5
tp624
(I25890
I24562
tp625
s(g9
I7
tp626
(I25847
I25306
tp627
s(g9
I4
tp628
(I25858
I25341
tp629
s(g14
I6
tp630
(I25809
I25319
tp631
s(g14
I8
tp632
(I25747
I25265
tp633
s(g6
I2
tp634
(I25875
I24557
tp635
ssba(iSample
Sample
p636
(dp637
g3
F1440429951.249774
sg4
(dp638
(g6
I5
tp639
(I25913
I24584
tp640
s(g9
I7
tp641
(I25870
I25329
tp642
s(g9
I4
tp643
(I25881
I25364
tp644
s(g14
I6
tp645
(I25832
I25342
tp646
s(g14
I8
tp647
(I25770
I25287
tp648
s(g6
I2
tp649
(I25898
I24580
tp650
ssba(iSample
Sample
p651
(dp652
g3
F1440429954.392718
sg4
(dp653
(g6
I5
tp654
(I25940
I24611
tp655
s(g9
I7
tp656
(I25897
I25356
tp657
s(g9
I4
tp658
(I25908
I25390
tp659
s(g14
I6
tp660
(I25859
I25369
tp661
s(g14
I8
tp662
(I25797
I25314
tp663
s(g6
I2
tp664
(I25925
I24606
tp665
ssba(iSample
Sample
p666
(dp667
g3
F1440429957.999813
sg4
(dp668
(g6
I5
tp669
(I25963
I24633
tp670
s(g9
I7
tp671
(I25920
I25379
tp672
s(g9
I4
tp673
(I25931
I25413
tp674
s(g14
I6
tp675
(I25882
I25392
tp676
s(g14
I8
tp677
(I25820
I25337
tp678
s(g6
I2
tp679
(I25948
I24629
tp680
ssba(iSample
Sample
p681
(dp682
g3
F1440429961.149814
sg4
(dp683
(g6
I5
tp684
(I25987
I24657
tp685
s(g9
I7
tp686
(I25944
I25403
tp687
s(g9
I4
tp688
(I25955
I25437
tp689
s(g14
I6
tp690
(I25906
I25416
tp691
s(g14
I8
tp692
(I25844
I25361
tp693
s(g6
I2
tp694
(I25972
I24653
tp695
ssba(iSample
Sample
p696
(dp697
g3
F1440429964.369074
sg4
(dp698
(g6
I5
tp699
(I26010
I24679
tp700
s(g9
I7
tp701
(I25967
I25426
tp702
s(g9
I4
tp703
(I25978
I25460
tp704
s(g14
I6
tp705
(I25929
I25439
tp706
s(g14
I8
tp707
(I25867
I25384
tp708
s(g6
I2
tp709
(I25995
I24675
tp710
ssba(iSample
Sample
p711
(dp712
g3
F1440429967.491188
sg4
(dp713
(g6
I5
tp714
(I26039
I24708
tp715
s(g9
I7
tp716
(I25993
I25452
tp717
s(g9
I4
tp718
(I26004
I25486
tp719
s(g14
I6
tp720
(I25958
I25468
tp721
s(g14
I8
tp722
(I25896
I25413
tp723
s(g6
I2
tp724
(I26024
I24703
tp725
ssba(iSample
Sample
p726
(dp727
g3
F1440429971.35256
sg4
(dp728
(g6
I5
tp729
(I26062
I24731
tp730
s(g9
I7
tp731
(I26019
I25476
tp732
s(g9
I4
tp733
(I26030
I25511
tp734
s(g14
I6
tp735
(I25981
I25490
tp736
s(g14
I8
tp737
(I25919
I25436
tp738
s(g6
I2
tp739
(I26047
I24725
tp740
ssba(iSample
Sample
p741
(dp742
g3
F1440429974.474246
sg4
(dp743
(g6
I5
tp744
(I26086
I24755
tp745
s(g9
I7
tp746
(I26043
I25500
tp747
s(g9
I4
tp748
(I26054
I25534
tp749
s(g14
I6
tp750
(I26005
I25514
tp751
s(g14
I8
tp752
(I25943
I25460
tp753
s(g6
I2
tp754
(I26071
I24746
tp755
ssba(iSample
Sample
p756
(dp757
g3
F1440429977.781482
sg4
(dp758
(g6
I5
tp759
(I26110
I24779
tp760
s(g9
I7
tp761
(I26067
I25524
tp762
s(g9
I4
tp763
(I26078
I25558
tp764
s(g14
I6
tp765
(I26029
I25538
tp766
s(g14
I8
tp767
(I25967
I25484
tp768
s(g6
I2
tp769
(I26095
I24770
tp770
ssba(iSample
Sample
p771
(dp772
g3
F1440429980.986285
sg4
(dp773
(g6
I5
tp774
(I26134
I24800
tp775
s(g9
I7
tp776
(I26090
I25546
tp777
s(g9
I4
tp778
(I26101
I25581
tp779
s(g14
I6
tp780
(I26052
I25560
tp781
s(g14
I8
tp782
(I25990
I25506
tp783
s(g6
I2
tp784
(I26119
I24793
tp785
ssba(iSample
Sample
p786
(dp787
g3
F1440429984.200752
sg4
(dp788
(g6
I5
tp789
(I26160
I24824
tp790
s(g9
I7
tp791
(I26114
I25570
tp792
s(g9
I4
tp793
(I26125
I25604
tp794
s(g14
I6
tp795
(I26076
I25584
tp796
s(g14
I8
tp797
(I26014
I25530
tp798
s(g6
I2
tp799
(I26145
I24818
tp800
ssba(iSample
Sample
p801
(dp802
g3
F1440429987.694545
sg4
(dp803
(g6
I5
tp804
(I26183
I24847
tp805
s(g9
I7
tp806
(I26140
I25596
tp807
s(g9
I4
tp808
(I26151
I25629
tp809
s(g14
I6
tp810
(I26102
I25610
tp811
s(g14
I8
tp812
(I26040
I25555
tp813
s(g6
I2
tp814
(I26168
I24841
tp815
ssba(iSample
Sample
p816
(dp817
g3
F1440429990.795247
sg4
(dp818
(g6
I5
tp819
(I26206
I24868
tp820
s(g9
I7
tp821
(I26163
I25619
tp822
s(g9
I4
tp823
(I26174
I25651
tp824
s(g14
I6
tp825
(I26125
I25632
tp826
s(g14
I8
tp827
(I26063
I25578
tp828
s(g6
I2
tp829
(I26191
I24864
tp830
ssba(iSample
Sample
p831
(dp832
g3
F1440429993.901975
sg4
(dp833
(g6
I5
tp834
(I26229
I24890
tp835
s(g9
I7
tp836
(I26186
I25641
tp837
s(g9
I4
tp838
(I26197
I25674
tp839
s(g14
I6
tp840
(I26148
I25655
tp841
s(g14
I8
tp842
(I26086
I25601
tp843
s(g6
I2
tp844
(I26214
I24886
tp845
ssba(iSample
Sample
p846
(dp847
g3
F1440429997.042441
sg4
(dp848
(g6
I5
tp849
(I26252
I24911
tp850
s(g9
I7
tp851
(I26209
I25664
tp852
s(g9
I4
tp853
(I26220
I25697
tp854
s(g14
I6
tp855
(I26171
I25678
tp856
s(g14
I8
tp857
(I26109
I25624
tp858
s(g6
I2
tp859
(I26237
I24907
tp860
ssba(iSample
Sample
p861
(dp862
g3
F1440430000.167916
sg4
(dp863
(g6
I5
tp864
(I26285
I24943
tp865
s(g9
I7
tp866
(I26241
I25695
tp867
s(g9
I4
tp868
(I26252
I25729
tp869
s(g14
I6
tp870
(I26204
I25711
tp871
s(g14
I8
tp872
(I26142
I25657
tp873
s(g6
I2
tp874
(I26270
I24939
tp875
ssba(iSample
Sample
p876
(dp877
g3
F1440430004.598722
sg4
(dp878
(g6
I5
tp879
(I26308
I24965
tp880
s(g9
I7
tp881
(I26265
I25719
tp882
s(g9
I4
tp883
(I26276
I25752
tp884
s(g14
I6
tp885
(I26227
I25734
tp886
s(g14
I8
tp887
(I26165
I25679
tp888
s(g6
I2
tp889
(I26293
I24962
tp890
ssba(iSample
Sample
p891
(dp892
g3
F1440430007.702252
sg4
(dp893
(g6
I5
tp894
(I26332
I24987
tp895
s(g9
I7
tp896
(I26288
I25742
tp897
s(g9
I4
tp898
(I26299
I25775
tp899
s(g14
I6
tp900
(I26251
I25758
tp901
s(g14
I8
tp902
(I26189
I25702
tp903
s(g6
I2
tp904
(I26317
I24984
tp905
ssba.