(lp0
(iSample
Sample
p1
(dp2
S'timeStamp'
p3
F1440402255.528217
sS'moteData'
p4
(dp5
(S'85d2'
p6
I4
tp7
(I2053
I2033
tp8
s(g6
I3
tp9
(I2062
I2047
tp10
s(S'8054'
p11
I6
tp12
(I2076
I2036
tp13
s(g11
I5
tp14
(I2090
I2050
tp15
ssba(iSample
Sample
p16
(dp17
g3
F1440402261.347877
sg4
(dp18
(g6
I4
tp19
(I2095
I2074
tp20
s(g6
I3
tp21
(I2104
I2089
tp22
s(g11
I6
tp23
(I2118
I2078
tp24
s(g11
I5
tp25
(I2132
I2091
tp26
ssba(iSample
Sample
p27
(dp28
g3
F1440402266.960791
sg4
(dp29
(g6
I4
tp30
(I2138
I2117
tp31
s(g6
I3
tp32
(I2147
I2131
tp33
s(g11
I6
tp34
(I2160
I2120
tp35
s(g11
I5
tp36
(I2174
I2131
tp37
ssba(iSample
Sample
p38
(dp39
g3
F1440402272.767416
sg4
(dp40
(g6
I4
tp41
(I2181
I2160
tp42
s(g6
I3
tp43
(I2190
I2174
tp44
s(g11
I6
tp45
(I2203
I2163
tp46
s(g11
I5
tp47
(I2217
I2173
tp48
ssba(iSample
Sample
p49
(dp50
g3
F1440402278.6029
sg4
(dp51
(g6
I4
tp52
(I2223
I2202
tp53
s(g6
I3
tp54
(I2232
I2215
tp55
s(g11
I6
tp56
(I2246
I2204
tp57
s(g11
I5
tp58
(I2260
I2216
tp59
ssba(iSample
Sample
p60
(dp61
g3
F1440402284.274404
sg4
(dp62
(g6
I4
tp63
(I2265
I2244
tp64
s(g6
I3
tp65
(I2274
I2257
tp66
s(g11
I6
tp67
(I2288
I2245
tp68
s(g11
I5
tp69
(I2302
I2256
tp70
ssba(iSample
Sample
p71
(dp72
g3
F1440402289.955951
sg4
(dp73
(g6
I4
tp74
(I2308
I2286
tp75
s(g6
I3
tp76
(I2317
I2298
tp77
s(g11
I6
tp78
(I2330
I2286
tp79
s(g11
I5
tp80
(I2344
I2298
tp81
ssba(iSample
Sample
p82
(dp83
g3
F1440402295.774754
sg4
(dp84
(g6
I4
tp85
(I2351
I2328
tp86
s(g6
I3
tp87
(I2360
I2341
tp88
s(g11
I6
tp89
(I2373
I2329
tp90
s(g11
I5
tp91
(I2387
I2340
tp92
ssba(iSample
Sample
p93
(dp94
g3
F1440402301.560223
sg4
(dp95
(g6
I4
tp96
(I2393
I2370
tp97
s(g6
I3
tp98
(I2402
I2383
tp99
s(g11
I6
tp100
(I2416
I2372
tp101
s(g11
I5
tp102
(I2430
I2382
tp103
ssba(iSample
Sample
p104
(dp105
g3
F1440402307.244571
sg4
(dp106
(g6
I4
tp107
(I2436
I2412
tp108
s(g6
I3
tp109
(I2445
I2426
tp110
s(g11
I6
tp111
(I2458
I2414
tp112
s(g11
I5
tp113
(I2472
I2424
tp114
ssba(iSample
Sample
p115
(dp116
g3
F1440402313.086314
sg4
(dp117
(g6
I4
tp118
(I2478
I2454
tp119
s(g6
I3
tp120
(I2487
I2468
tp121
s(g11
I6
tp122
(I2501
I2457
tp123
s(g11
I5
tp124
(I2515
I2467
tp125
ssba(iSample
Sample
p126
(dp127
g3
F1440402318.672981
sg4
(dp128
(g6
I4
tp129
(I2521
I2496
tp130
s(g6
I3
tp131
(I2530
I2511
tp132
s(g11
I6
tp133
(I2543
I2498
tp134
s(g11
I5
tp135
(I2557
I2509
tp136
ssba(iSample
Sample
p137
(dp138
g3
F1440402324.558025
sg4
(dp139
(g6
I4
tp140
(I2563
I2538
tp141
s(g6
I3
tp142
(I2572
I2553
tp143
s(g11
I6
tp144
(I2586
I2541
tp145
s(g11
I5
tp146
(I2600
I2552
tp147
ssba(iSample
Sample
p148
(dp149
g3
F1440402330.182898
sg4
(dp150
(g6
I4
tp151
(I2605
I2580
tp152
s(g6
I3
tp153
(I2614
I2595
tp154
s(g11
I6
tp155
(I2628
I2583
tp156
s(g11
I5
tp157
(I2642
I2594
tp158
ssba(iSample
Sample
p159
(dp160
g3
F1440402335.817941
sg4
(dp161
(g6
I4
tp162
(I2647
I2621
tp163
s(g6
I3
tp164
(I2656
I2637
tp165
s(g11
I6
tp166
(I2670
I2625
tp167
s(g11
I5
tp168
(I2684
I2635
tp169
ssba(iSample
Sample
p170
(dp171
g3
F1440402341.518224
sg4
(dp172
(g6
I4
tp173
(I2689
I2663
tp174
s(g6
I3
tp175
(I2698
I2679
tp176
s(g11
I6
tp177
(I2712
I2667
tp178
s(g11
I5
tp179
(I2726
I2677
tp180
ssba(iSample
Sample
p181
(dp182
g3
F1440402347.2281
sg4
(dp183
(g6
I4
tp184
(I2732
I2705
tp185
s(g6
I3
tp186
(I2741
I2722
tp187
s(g11
I6
tp188
(I2754
I2709
tp189
s(g11
I5
tp190
(I2768
I2719
tp191
ssba(iSample
Sample
p192
(dp193
g3
F1440402353.021635
sg4
(dp194
(g6
I4
tp195
(I2774
I2747
tp196
s(g6
I3
tp197
(I2783
I2764
tp198
s(g11
I6
tp199
(I2797
I2752
tp200
s(g11
I5
tp201
(I2811
I2761
tp202
ssba(iSample
Sample
p203
(dp204
g3
F1440402358.672919
sg4
(dp205
(g6
I4
tp206
(I2817
I2790
tp207
s(g6
I3
tp208
(I2826
I2807
tp209
s(g11
I6
tp210
(I2840
I2795
tp211
s(g11
I5
tp212
(I2854
I2804
tp213
ssba(iSample
Sample
p214
(dp215
g3
F1440402364.481796
sg4
(dp216
(g6
I4
tp217
(I2859
I2832
tp218
s(g6
I3
tp219
(I2868
I2849
tp220
s(g11
I6
tp221
(I2882
I2837
tp222
s(g11
I5
tp223
(I2896
I2846
tp224
ssba(iSample
Sample
p225
(dp226
g3
F1440402370.143569
sg4
(dp227
(g6
I4
tp228
(I2902
I2875
tp229
s(g6
I3
tp230
(I2911
I2892
tp231
s(g11
I6
tp232
(I2924
I2879
tp233
s(g11
I5
tp234
(I2938
I2888
tp235
ssba(iSample
Sample
p236
(dp237
g3
F1440402375.94328
sg4
(dp238
(g6
I4
tp239
(I2946
I2919
tp240
s(g6
I3
tp241
(I2955
I2936
tp242
s(g11
I6
tp243
(I2969
I2924
tp244
s(g11
I5
tp245
(I2983
I2933
tp246
ssba(iSample
Sample
p247
(dp248
g3
F1440402381.8924
sg4
(dp249
(g6
I4
tp250
(I2989
I2961
tp251
s(g6
I3
tp252
(I2998
I2979
tp253
s(g11
I6
tp254
(I3011
I2966
tp255
s(g11
I5
tp256
(I3025
I2975
tp257
ssba(iSample
Sample
p258
(dp259
g3
F1440402387.732699
sg4
(dp260
(g6
I4
tp261
(I3031
I3003
tp262
s(g6
I3
tp263
(I3040
I3020
tp264
s(g11
I6
tp265
(I3054
I3009
tp266
s(g11
I5
tp267
(I3068
I3018
tp268
ssba(iSample
Sample
p269
(dp270
g3
F1440402393.417433
sg4
(dp271
(g6
I4
tp272
(I3074
I3046
tp273
s(g6
I3
tp274
(I3083
I3063
tp275
s(g11
I6
tp276
(I3096
I3051
tp277
s(g11
I5
tp278
(I3110
I3060
tp279
ssba(iSample
Sample
p280
(dp281
g3
F1440402399.163779
sg4
(dp282
(g6
I4
tp283
(I3117
I3089
tp284
s(g6
I3
tp285
(I3126
I3105
tp286
s(g11
I6
tp287
(I3139
I3094
tp288
s(g11
I5
tp289
(I3153
I3103
tp290
ssba(iSample
Sample
p291
(dp292
g3
F1440402405.016674
sg4
(dp293
(g6
I4
tp294
(I3161
I3133
tp295
s(g6
I3
tp296
(I3170
I3149
tp297
s(g11
I6
tp298
(I3183
I3138
tp299
s(g11
I5
tp300
(I3197
I3147
tp301
ssba(iSample
Sample
p302
(dp303
g3
F1440402410.947153
sg4
(dp304
(g6
I4
tp305
(I3203
I3174
tp306
s(g6
I3
tp307
(I3212
I3190
tp308
s(g11
I6
tp309
(I3226
I3181
tp310
s(g11
I5
tp311
(I3240
I3190
tp312
ssba(iSample
Sample
p313
(dp314
g3
F1440402416.628442
sg4
(dp315
(g6
I4
tp316
(I3245
I3216
tp317
s(g6
I3
tp318
(I3254
I3232
tp319
s(g11
I6
tp320
(I3268
I3222
tp321
s(g11
I5
tp322
(I3282
I3232
tp323
ssba(iSample
Sample
p324
(dp325
g3
F1440402422.303691
sg4
(dp326
(g6
I4
tp327
(I3287
I3258
tp328
s(g6
I3
tp329
(I3296
I3274
tp330
s(g11
I6
tp331
(I3310
I3264
tp332
s(g11
I5
tp333
(I3324
I3274
tp334
ssba(iSample
Sample
p335
(dp336
g3
F1440402427.989297
sg4
(dp337
(g6
I4
tp338
(I3330
I3301
tp339
s(g6
I3
tp340
(I3339
I3315
tp341
s(g11
I6
tp342
(I3353
I3307
tp343
s(g11
I5
tp344
(I3367
I3317
tp345
ssba(iSample
Sample
p346
(dp347
g3
F1440402433.737455
sg4
(dp348
(g6
I4
tp349
(I3373
I3344
tp350
s(g6
I3
tp351
(I3382
I3358
tp352
s(g11
I6
tp353
(I3395
I3349
tp354
s(g11
I5
tp355
(I3409
I3359
tp356
ssba(iSample
Sample
p357
(dp358
g3
F1440402439.617599
sg4
(dp359
(g6
I4
tp360
(I3415
I3386
tp361
s(g6
I3
tp362
(I3424
I3400
tp363
s(g11
I6
tp364
(I3438
I3392
tp365
s(g11
I5
tp366
(I3452
I3402
tp367
ssba(iSample
Sample
p368
(dp369
g3
F1440402445.210746
sg4
(dp370
(g6
I4
tp371
(I3457
I3427
tp372
s(g6
I3
tp373
(I3466
I3442
tp374
s(g11
I6
tp375
(I3480
I3434
tp376
s(g11
I5
tp377
(I3494
I3444
tp378
ssba(iSample
Sample
p379
(dp380
g3
F1440402450.944958
sg4
(dp381
(g6
I4
tp382
(I3500
I3469
tp383
s(g6
I3
tp384
(I3509
I3484
tp385
s(g11
I6
tp386
(I3522
I3476
tp387
s(g11
I5
tp388
(I3536
I3486
tp389
ssba(iSample
Sample
p390
(dp391
g3
F1440402456.693728
sg4
(dp392
(g6
I4
tp393
(I3542
I3511
tp394
s(g6
I3
tp395
(I3551
I3526
tp396
s(g11
I6
tp397
(I3565
I3519
tp398
s(g11
I5
tp399
(I3579
I3529
tp400
ssba(iSample
Sample
p401
(dp402
g3
F1440402462.407191
sg4
(dp403
(g6
I4
tp404
(I3584
I3553
tp405
s(g6
I3
tp406
(I3593
I3568
tp407
s(g11
I6
tp408
(I3607
I3561
tp409
s(g11
I5
tp410
(I3621
I3571
tp411
ssba(iSample
Sample
p412
(dp413
g3
F1440402468.091013
sg4
(dp414
(g6
I4
tp415
(I3627
I3596
tp416
s(g6
I3
tp417
(I3636
I3611
tp418
s(g11
I6
tp419
(I3649
I3603
tp420
s(g11
I5
tp421
(I3663
I3613
tp422
ssba(iSample
Sample
p423
(dp424
g3
F1440402473.886816
sg4
(dp425
(g6
I4
tp426
(I3669
I3638
tp427
s(g6
I3
tp428
(I3678
I3652
tp429
s(g11
I6
tp430
(I3692
I3646
tp431
s(g11
I5
tp432
(I3706
I3656
tp433
ssba(iSample
Sample
p434
(dp435
g3
F1440402479.528401
sg4
(dp436
(g6
I4
tp437
(I3712
I3680
tp438
s(g6
I3
tp439
(I3721
I3695
tp440
s(g11
I6
tp441
(I3734
I3688
tp442
s(g11
I5
tp443
(I3748
I3698
tp444
ssba(iSample
Sample
p445
(dp446
g3
F1440402485.363574
sg4
(dp447
(g6
I4
tp448
(I3755
I3723
tp449
s(g6
I3
tp450
(I3764
I3738
tp451
s(g11
I6
tp452
(I3777
I3731
tp453
s(g11
I5
tp454
(I3791
I3741
tp455
ssba(iSample
Sample
p456
(dp457
g3
F1440402491.205379
sg4
(dp458
(g6
I4
tp459
(I3799
I3767
tp460
s(g6
I3
tp461
(I3808
I3781
tp462
s(g11
I6
tp463
(I3820
I3774
tp464
s(g11
I5
tp465
(I3834
I3784
tp466
ssba(iSample
Sample
p467
(dp468
g3
F1440402497.108261
sg4
(dp469
(g6
I4
tp470
(I3848
I3814
tp471
s(g6
I3
tp472
(I3857
I3830
tp473
s(g11
I6
tp474
(I3871
I3825
tp475
s(g11
I5
tp476
(I3885
I3834
tp477
ssba(iSample
Sample
p478
(dp479
g3
F1440402503.705696
sg4
(dp480
(g6
I4
tp481
(I3891
I3857
tp482
s(g6
I3
tp483
(I3900
I3872
tp484
s(g11
I6
tp485
(I3913
I3866
tp486
s(g11
I5
tp487
(I3927
I3876
tp488
ssba(iSample
Sample
p489
(dp490
g3
F1440402509.557757
sg4
(dp491
(g6
I4
tp492
(I3937
I3903
tp493
s(g6
I3
tp494
(I3946
I3918
tp495
s(g11
I6
tp496
(I3956
I3908
tp497
s(g11
I5
tp498
(I3970
I3919
tp499
ssba(iSample
Sample
p500
(dp501
g3
F1440402515.795376
sg4
(dp502
(g6
I4
tp503
(I3979
I3945
tp504
s(g6
I3
tp505
(I3988
I3959
tp506
s(g11
I6
tp507
(I4002
I3954
tp508
s(g11
I5
tp509
(I4016
I3965
tp510
ssba(iSample
Sample
p511
(dp512
g3
F1440402521.426426
sg4
(dp513
(g6
I4
tp514
(I4021
I3987
tp515
s(g6
I3
tp516
(I4030
I4001
tp517
s(g11
I6
tp518
(I4044
I3996
tp519
s(g11
I5
tp520
(I4058
I4007
tp521
ssba(iSample
Sample
p522
(dp523
g3
F1440402527.125373
sg4
(dp524
(g6
I4
tp525
(I4064
I4030
tp526
s(g6
I3
tp527
(I4073
I4044
tp528
s(g11
I6
tp529
(I4086
I4038
tp530
s(g11
I5
tp531
(I4100
I4049
tp532
ssba(iSample
Sample
p533
(dp534
g3
F1440402532.90883
sg4
(dp535
(g6
I4
tp536
(I4106
I4072
tp537
s(g6
I3
tp538
(I4115
I4085
tp539
s(g11
I6
tp540
(I4129
I4081
tp541
s(g11
I5
tp542
(I4143
I4092
tp543
ssba(iSample
Sample
p544
(dp545
g3
F1440402538.587823
sg4
(dp546
(g6
I4
tp547
(I4149
I4115
tp548
s(g6
I3
tp549
(I4158
I4127
tp550
s(g11
I6
tp551
(I4171
I4123
tp552
s(g11
I5
tp553
(I4185
I4134
tp554
ssba(iSample
Sample
p555
(dp556
g3
F1440402544.41482
sg4
(dp557
(g6
I4
tp558
(I4191
I4156
tp559
s(g6
I3
tp560
(I4200
I4169
tp561
s(g11
I6
tp562
(I4214
I4166
tp563
s(g11
I5
tp564
(I4228
I4176
tp565
ssba(iSample
Sample
p566
(dp567
g3
F1440402550.11399
sg4
(dp568
(g6
I4
tp569
(I4236
I4200
tp570
s(g6
I3
tp571
(I4245
I4212
tp572
s(g11
I6
tp573
(I4257
I4209
tp574
s(g11
I5
tp575
(I4271
I4219
tp576
ssba(iSample
Sample
p577
(dp578
g3
F1440402556.144031
sg4
(dp579
(g6
I4
tp580
(I4279
I4243
tp581
s(g6
I3
tp582
(I4288
I4255
tp583
s(g11
I6
tp584
(I4301
I4252
tp585
s(g11
I5
tp586
(I4315
I4263
tp587
ssba(iSample
Sample
p588
(dp589
g3
F1440402561.944895
sg4
(dp590
(g6
I4
tp591
(I4321
I4285
tp592
s(g6
I3
tp593
(I4330
I4296
tp594
s(g11
I6
tp595
(I4344
I4295
tp596
s(g11
I5
tp597
(I4358
I4306
tp598
ssba(iSample
Sample
p599
(dp600
g3
F1440402567.626617
sg4
(dp601
(g6
I4
tp602
(I4364
I4328
tp603
s(g6
I3
tp604
(I4373
I4339
tp605
s(g11
I6
tp606
(I4386
I4336
tp607
s(g11
I5
tp608
(I4400
I4348
tp609
ssba(iSample
Sample
p610
(dp611
g3
F1440402573.494618
sg4
(dp612
(g6
I4
tp613
(I4407
I4370
tp614
s(g6
I3
tp615
(I4416
I4382
tp616
s(g11
I6
tp617
(I4430
I4380
tp618
s(g11
I5
tp619
(I4444
I4392
tp620
ssba(iSample
Sample
p621
(dp622
g3
F1440402579.227543
sg4
(dp623
(g6
I4
tp624
(I4449
I4412
tp625
s(g6
I3
tp626
(I4458
I4424
tp627
s(g11
I6
tp628
(I4472
I4422
tp629
s(g11
I5
tp630
(I4486
I4434
tp631
ssba(iSample
Sample
p632
(dp633
g3
F1440402584.925515
sg4
(dp634
(g6
I4
tp635
(I4492
I4455
tp636
s(g6
I3
tp637
(I4501
I4467
tp638
s(g11
I6
tp639
(I4514
I4464
tp640
s(g11
I5
tp641
(I4528
I4476
tp642
ssba(iSample
Sample
p643
(dp644
g3
F1440402590.672216
sg4
(dp645
(g6
I4
tp646
(I4535
I4498
tp647
s(g6
I3
tp648
(I4544
I4509
tp649
s(g11
I6
tp650
(I4557
I4506
tp651
s(g11
I5
tp652
(I4571
I4519
tp653
ssba(iSample
Sample
p654
(dp655
g3
F1440402596.568735
sg4
(dp656
(g6
I4
tp657
(I4577
I4539
tp658
s(g6
I3
tp659
(I4586
I4550
tp660
s(g11
I6
tp661
(I4600
I4549
tp662
s(g11
I5
tp663
(I4614
I4562
tp664
ssba.