(lp0
(iSample
Sample
p1
(dp2
S'timeStamp'
p3
F1440591474.219426
sS'moteSignal'
p4
(dp5
S'f53b'
p6
(I-57
I107
tp7
sS'8031'
p8
(I-53
I107
tp9
sS'8054'
p10
(I-59
I107
tp11
ssS'moteData'
p12
(dp13
(g8
I8
tp14
(I14013
I13657
tp15
s(g6
I2
tp16
(I13881
I13666
tp17
s(g10
I6
tp18
(I14039
I13796
tp19
s(g10
I4
tp20
(I14025
I13770
tp21
s(g6
I7
tp22
(I13957
I13724
tp23
s(g8
I3
tp24
(I14002
I13643
tp25
ssba(iSample
Sample
p26
(dp27
g3
F1440591477.366107
sg4
(dp28
g6
(I-54
I107
tp29
sg8
(I-54
I107
tp30
sg10
(I-59
I107
tp31
ssg12
(dp32
(g8
I8
tp33
(I14036
I13680
tp34
s(g6
I2
tp35
(I13904
I13689
tp36
s(g10
I6
tp37
(I14062
I13819
tp38
s(g10
I4
tp39
(I14048
I13793
tp40
s(g6
I7
tp41
(I13980
I13747
tp42
s(g8
I3
tp43
(I14025
I13666
tp44
ssba(iSample
Sample
p45
(dp46
g3
F1440591480.286484
sg4
(dp47
g6
(I-55
I106
tp48
sg8
(I-50
I107
tp49
sg10
(I-69
I107
tp50
ssg12
(dp51
(g8
I8
tp52
(I14058
I13702
tp53
s(g6
I2
tp54
(I13926
I13711
tp55
s(g10
I6
tp56
(I14084
I13841
tp57
s(g10
I4
tp58
(I14070
I13815
tp59
s(g6
I7
tp60
(I14002
I13769
tp61
s(g8
I3
tp62
(I14047
I13688
tp63
ssba(iSample
Sample
p64
(dp65
g3
F1440591483.258663
sg4
(dp66
g6
(I-59
I107
tp67
sg8
(I-52
I107
tp68
sg10
(I-60
I106
tp69
ssg12
(dp70
(g8
I8
tp71
(I14080
I13723
tp72
s(g6
I2
tp73
(I13948
I13733
tp74
s(g10
I6
tp75
(I14106
I13863
tp76
s(g10
I4
tp77
(I14092
I13837
tp78
s(g6
I7
tp79
(I14024
I13790
tp80
s(g8
I3
tp81
(I14069
I13709
tp82
ssba(iSample
Sample
p83
(dp84
g3
F1440591486.25487
sg4
(dp85
g6
(I-54
I107
tp86
sg8
(I-54
I107
tp87
sg10
(I-60
I107
tp88
ssg12
(dp89
(g8
I8
tp90
(I14103
I13746
tp91
s(g6
I2
tp92
(I13971
I13756
tp93
s(g10
I6
tp94
(I14128
I13885
tp95
s(g10
I4
tp96
(I14114
I13858
tp97
s(g6
I7
tp98
(I14047
I13813
tp99
s(g8
I3
tp100
(I14092
I13731
tp101
ssba(iSample
Sample
p102
(dp103
g3
F1440591489.309104
sg4
(dp104
g6
(I-57
I107
tp105
sg8
(I-54
I107
tp106
sg10
(I-64
I107
tp107
ssg12
(dp108
(g8
I8
tp109
(I14125
I13768
tp110
s(g6
I2
tp111
(I13993
I13778
tp112
s(g10
I6
tp113
(I14151
I13908
tp114
s(g10
I4
tp115
(I14137
I13881
tp116
s(g6
I7
tp117
(I14069
I13835
tp118
s(g8
I3
tp119
(I14114
I13753
tp120
ssba(iSample
Sample
p121
(dp122
g3
F1440591492.281841
sg4
(dp123
g6
(I-55
I107
tp124
sg8
(I-52
I107
tp125
sg10
(I-61
I107
tp126
ssg12
(dp127
(g8
I8
tp128
(I14150
I13793
tp129
s(g6
I2
tp130
(I14018
I13802
tp131
s(g10
I6
tp132
(I14175
I13931
tp133
s(g10
I4
tp134
(I14161
I13905
tp135
s(g6
I7
tp136
(I14094
I13860
tp137
s(g8
I3
tp138
(I14139
I13777
tp139
ssba(iSample
Sample
p140
(dp141
g3
F1440591495.64267
sg4
(dp142
g6
(I-61
I107
tp143
sg8
(I-60
I107
tp144
sg10
(I-64
I107
tp145
ssg12
(dp146
(g8
I8
tp147
(I14172
I13815
tp148
s(g6
I2
tp149
(I14040
I13823
tp150
s(g10
I6
tp151
(I14198
I13954
tp152
s(g10
I4
tp153
(I14184
I13927
tp154
s(g6
I7
tp155
(I14116
I13882
tp156
s(g8
I3
tp157
(I14161
I13799
tp158
ssba(iSample
Sample
p159
(dp160
g3
F1440591498.690295
sg4
(dp161
g6
(I-57
I107
tp162
sg8
(I-50
I107
tp163
sg10
(I-61
I107
tp164
ssg12
(dp165
(g8
I8
tp166
(I14400
I14037
tp167
s(g6
I2
tp168
(I14268
I14048
tp169
s(g10
I6
tp170
(I14220
I13976
tp171
s(g10
I4
tp172
(I14206
I13949
tp173
s(g6
I7
tp174
(I14344
I14107
tp175
s(g8
I3
tp176
(I14389
I14018
tp177
ssba(iSample
Sample
p178
(dp179
g3
F1440591529.421749
sg4
(dp180
g6
(I-59
I107
tp181
sg8
(I-50
I107
tp182
sg10
(I-61
I107
tp183
ssg12
(dp184
(g8
I8
tp185
(I14630
I14265
tp186
s(g6
I2
tp187
(I14500
I14272
tp188
s(g10
I6
tp189
(I14656
I14404
tp190
s(g10
I4
tp191
(I14642
I14375
tp192
s(g6
I7
tp193
(I14576
I14332
tp194
s(g8
I3
tp195
(I14619
I14238
tp196
ssba(iSample
Sample
p197
(dp198
g3
F1440591560.762301
sg4
(dp199
g6
(I-63
I107
tp200
sg8
(I-58
I107
tp201
sg10
(I-62
I107
tp202
ssg12
(dp203
(g8
I8
tp204
(I14654
I14289
tp205
s(g6
I2
tp206
(I14522
I14291
tp207
s(g10
I6
tp208
(I14680
I14428
tp209
s(g10
I4
tp210
(I14666
I14399
tp211
s(g6
I7
tp212
(I14598
I14353
tp213
s(g8
I3
tp214
(I14643
I14262
tp215
ssba(iSample
Sample
p216
(dp217
g3
F1440591563.733473
sg4
(dp218
g6
(I-54
I107
tp219
sg8
(I-55
I107
tp220
sg10
(I-63
I107
tp221
ssg12
(dp222
(g8
I8
tp223
(I14676
I14311
tp224
s(g6
I2
tp225
(I14544
I14312
tp226
s(g10
I6
tp227
(I14702
I14450
tp228
s(g10
I4
tp229
(I14688
I14421
tp230
s(g6
I7
tp231
(I14620
I14374
tp232
s(g8
I3
tp233
(I14665
I14284
tp234
ssba(iSample
Sample
p235
(dp236
g3
F1440591566.693268
sg4
(dp237
g6
(I-61
I107
tp238
sg8
(I-50
I107
tp239
sg10
(I-67
I107
tp240
ssg12
(dp241
(g8
I8
tp242
(I14698
I14333
tp243
s(g6
I2
tp244
(I14566
I14331
tp245
s(g10
I6
tp246
(I14724
I14472
tp247
s(g10
I4
tp248
(I14710
I14443
tp249
s(g6
I7
tp250
(I14642
I14395
tp251
s(g8
I3
tp252
(I14687
I14306
tp253
ssba(iSample
Sample
p254
(dp255
g3
F1440591569.641714
sg4
(dp256
g6
(I-57
I107
tp257
sg8
(I-53
I107
tp258
sg10
(I-62
I107
tp259
ssg12
(dp260
(g8
I8
tp261
(I14721
I14356
tp262
s(g6
I2
tp263
(I14595
I14357
tp264
s(g10
I6
tp265
(I14746
I14493
tp266
s(g10
I4
tp267
(I14732
I14465
tp268
s(g6
I7
tp269
(I14671
I14422
tp270
s(g8
I3
tp271
(I14710
I14329
tp272
ssba(iSample
Sample
p273
(dp274
g3
F1440591573.604409
sg4
(dp275
g6
(I-62
I107
tp276
sg8
(I-52
I107
tp277
sg10
(I-60
I107
tp278
ssg12
(dp279
(g8
I8
tp280
(I14749
I14384
tp281
s(g6
I2
tp282
(I14617
I14379
tp283
s(g10
I6
tp284
(I14775
I14522
tp285
s(g10
I4
tp286
(I14761
I14494
tp287
s(g6
I7
tp288
(I14693
I14444
tp289
s(g8
I3
tp290
(I14738
I14357
tp291
ssba(iSample
Sample
p292
(dp293
g3
F1440591576.593467
sg4
(dp294
g6
(I-54
I107
tp295
sg8
(I-51
I107
tp296
sg10
(I-59
I107
tp297
ssg12
(dp298
(g8
I8
tp299
(I14771
I14405
tp300
s(g6
I2
tp301
(I14639
I14401
tp302
s(g10
I6
tp303
(I14797
I14544
tp304
s(g10
I4
tp305
(I14783
I14516
tp306
s(g6
I7
tp307
(I14715
I14466
tp308
s(g8
I3
tp309
(I14760
I14378
tp310
ssba(iSample
Sample
p311
(dp312
g3
F1440591579.566932
sg4
(dp313
g6
(I-60
I107
tp314
sg8
(I-50
I107
tp315
sg10
(I-62
I107
tp316
ssg12
(dp317
(g8
I8
tp318
(I14794
I14428
tp319
s(g6
I2
tp320
(I14662
I14424
tp321
s(g10
I6
tp322
(I14819
I14566
tp323
s(g10
I4
tp324
(I14805
I14538
tp325
s(g6
I7
tp326
(I14738
I14489
tp327
s(g8
I3
tp328
(I14783
I14401
tp329
ssba(iSample
Sample
p330
(dp331
g3
F1440591582.632851
sg4
(dp332
g6
(I-55
I107
tp333
sg8
(I-49
I107
tp334
sg10
(I-62
I107
tp335
ssg12
(dp336
(g8
I8
tp337
(I14816
I14450
tp338
s(g6
I2
tp339
(I14685
I14447
tp340
s(g10
I6
tp341
(I14842
I14589
tp342
s(g10
I4
tp343
(I14828
I14561
tp344
s(g6
I7
tp345
(I14761
I14510
tp346
s(g8
I3
tp347
(I14805
I14423
tp348
ssba(iSample
Sample
p349
(dp350
g3
F1440591585.738299
sg4
(dp351
g6
(I-61
I107
tp352
sg8
(I-50
I107
tp353
sg10
(I-68
I107
tp354
ssg12
(dp355
(g8
I8
tp356
(I14842
I14476
tp357
s(g6
I2
tp358
(I14710
I14472
tp359
s(g10
I6
tp360
(I14868
I14615
tp361
s(g10
I4
tp362
(I14854
I14587
tp363
s(g6
I7
tp364
(I14786
I14534
tp365
s(g8
I3
tp366
(I14831
I14449
tp367
ssba(iSample
Sample
p368
(dp369
g3
F1440591589.135261
sg4
(dp370
g6
(I-59
I106
tp371
sg8
(I-51
I107
tp372
sg10
(I-61
I107
tp373
ssg12
(dp374
(g8
I8
tp375
(I14864
I14498
tp376
s(g6
I2
tp377
(I14732
I14492
tp378
s(g10
I6
tp379
(I14890
I14637
tp380
s(g10
I4
tp381
(I14876
I14609
tp382
s(g6
I7
tp383
(I14808
I14555
tp384
s(g8
I3
tp385
(I14853
I14471
tp386
ssba(iSample
Sample
p387
(dp388
g3
F1440591592.093309
sg4
(dp389
g6
(I-54
I107
tp390
sg8
(I-51
I107
tp391
sg10
(I-65
I107
tp392
ssg12
(dp393
(g8
I8
tp394
(I14886
I14519
tp395
s(g6
I2
tp396
(I14754
I14514
tp397
s(g10
I6
tp398
(I14912
I14659
tp399
s(g10
I4
tp400
(I14898
I14631
tp401
s(g6
I7
tp402
(I14830
I14575
tp403
s(g8
I3
tp404
(I14875
I14491
tp405
ssba(iSample
Sample
p406
(dp407
g3
F1440591595.047682
sg4
(dp408
g6
(I-57
I107
tp409
sg8
(I-55
I107
tp410
sg10
(I-61
I107
tp411
ssg12
(dp412
(g8
I8
tp413
(I14908
I14541
tp414
s(g6
I2
tp415
(I14776
I14536
tp416
s(g10
I6
tp417
(I14934
I14681
tp418
s(g10
I4
tp419
(I14920
I14653
tp420
s(g6
I7
tp421
(I14852
I14597
tp422
s(g8
I3
tp423
(I14897
I14512
tp424
ssba(iSample
Sample
p425
(dp426
g3
F1440591598.004607
sg4
(dp427
g6
(I-56
I107
tp428
sg8
(I-55
I107
tp429
sg10
(I-60
I107
tp430
ssg12
(dp431
(g8
I8
tp432
(I14930
I14563
tp433
s(g6
I2
tp434
(I14798
I14558
tp435
s(g10
I6
tp436
(I14956
I14703
tp437
s(g10
I4
tp438
(I14942
I14675
tp439
s(g6
I7
tp440
(I14874
I14619
tp441
s(g8
I3
tp442
(I14919
I14533
tp443
ssba(iSample
Sample
p444
(dp445
g3
F1440591601.025092
sg4
(dp446
g6
(I-59
I107
tp447
sg8
(I-50
I107
tp448
sg10
(I-59
I107
tp449
ssg12
(dp450
(g8
I8
tp451
(I14952
I14584
tp452
s(g6
I2
tp453
(I14820
I14580
tp454
s(g10
I6
tp455
(I14978
I14724
tp456
s(g10
I4
tp457
(I14964
I14697
tp458
s(g6
I7
tp459
(I14896
I14641
tp460
s(g8
I3
tp461
(I14941
I14555
tp462
ssba(iSample
Sample
p463
(dp464
g3
F1440591603.977745
sg4
(dp465
g6
(I-58
I107
tp466
sg8
(I-58
I107
tp467
sg10
(I-61
I107
tp468
ssg12
(dp469
(g8
I8
tp470
(I14974
I14606
tp471
s(g6
I2
tp472
(I14844
I14604
tp473
s(g10
I6
tp474
(I15000
I14746
tp475
s(g10
I4
tp476
(I14986
I14719
tp477
s(g6
I7
tp478
(I14920
I14665
tp479
s(g8
I3
tp480
(I14963
I14576
tp481
ssba(iSample
Sample
p482
(dp483
g3
F1440591607.258878
sg4
(dp484
g6
(I-54
I107
tp485
sg8
(I-51
I107
tp486
sg10
(I-60
I107
tp487
ssg12
(dp488
(g8
I8
tp489
(I14998
I14630
tp490
s(g6
I2
tp491
(I14866
I14626
tp492
s(g10
I6
tp493
(I15024
I14770
tp494
s(g10
I4
tp495
(I15010
I14743
tp496
s(g6
I7
tp497
(I14942
I14687
tp498
s(g8
I3
tp499
(I14987
I14599
tp500
ssba(iSample
Sample
p501
(dp502
g3
F1440591610.199891
sg4
(dp503
g6
(I-57
I107
tp504
sg8
(I-55
I107
tp505
sg10
(I-62
I107
tp506
ssg12
(dp507
(g8
I8
tp508
(I15020
I14652
tp509
s(g6
I2
tp510
(I14888
I14647
tp511
s(g10
I6
tp512
(I15046
I14792
tp513
s(g10
I4
tp514
(I15032
I14764
tp515
s(g6
I7
tp516
(I14964
I14708
tp517
s(g8
I3
tp518
(I15009
I14621
tp519
ssba(iSample
Sample
p520
(dp521
g3
F1440591613.17245
sg4
(dp522
g6
(I-57
I107
tp523
sg8
(I-58
I107
tp524
sg10
(I-60
I107
tp525
ssg12
(dp526
(g8
I8
tp527
(I15042
I14674
tp528
s(g6
I2
tp529
(I14910
I14669
tp530
s(g10
I6
tp531
(I15068
I14813
tp532
s(g10
I4
tp533
(I15054
I14786
tp534
s(g6
I7
tp535
(I14986
I14730
tp536
s(g8
I3
tp537
(I15031
I14643
tp538
ssba(iSample
Sample
p539
(dp540
g3
F1440591616.131632
sg4
(dp541
g6
(I-62
I107
tp542
sg8
(I-50
I107
tp543
sg10
(I-60
I107
tp544
ssg12
(dp545
(g8
I8
tp546
(I15064
I14695
tp547
s(g6
I2
tp548
(I14932
I14690
tp549
s(g10
I6
tp550
(I15090
I14835
tp551
s(g10
I4
tp552
(I15076
I14808
tp553
s(g6
I7
tp554
(I15008
I14752
tp555
s(g8
I3
tp556
(I15053
I14665
tp557
ssba(iSample
Sample
p558
(dp559
g3
F1440591619.099404
sg4
(dp560
g6
(I-60
I107
tp561
sg8
(I-57
I107
tp562
sg10
(I-61
I107
tp563
ssg12
(dp564
(g8
I8
tp565
(I15086
I14716
tp566
s(g6
I2
tp567
(I14955
I14713
tp568
s(g10
I6
tp569
(I15112
I14857
tp570
s(g10
I4
tp571
(I15098
I14830
tp572
s(g6
I7
tp573
(I15031
I14774
tp574
s(g8
I3
tp575
(I15075
I14686
tp576
ssba(iSample
Sample
p577
(dp578
g3
F1440591622.22494
sg4
(dp579
g6
(I-61
I107
tp580
sg8
(I-54
I107
tp581
sg10
(I-58
I107
tp582
ssg12
(dp583
(g8
I8
tp584
(I15109
I14739
tp585
s(g6
I2
tp586
(I14977
I14735
tp587
s(g10
I6
tp588
(I15135
I14880
tp589
s(g10
I4
tp590
(I15121
I14853
tp591
s(g6
I7
tp592
(I15053
I14796
tp593
s(g8
I3
tp594
(I15098
I14709
tp595
ssba(iSample
Sample
p596
(dp597
g3
F1440591625.204317
sg4
(dp598
g6
(I-63
I107
tp599
sg8
(I-53
I107
tp600
sg10
(I-59
I107
tp601
ssg12
(dp602
(g8
I8
tp603
(I15133
I14763
tp604
s(g6
I2
tp605
(I15001
I14758
tp606
s(g10
I6
tp607
(I15157
I14902
tp608
s(g10
I4
tp609
(I15143
I14875
tp610
s(g6
I7
tp611
(I15077
I14820
tp612
s(g8
I3
tp613
(I15122
I14733
tp614
ssba(iSample
Sample
p615
(dp616
g3
F1440591628.427686
sg4
(dp617
g6
(I-56
I107
tp618
sg8
(I-55
I107
tp619
sg10
(I-59
I107
tp620
ssg12
(dp621
(g8
I8
tp622
(I15156
I14785
tp623
s(g6
I2
tp624
(I15024
I14780
tp625
s(g10
I6
tp626
(I15181
I14925
tp627
s(g10
I4
tp628
(I15167
I14899
tp629
s(g6
I7
tp630
(I15100
I14843
tp631
s(g8
I3
tp632
(I15145
I14755
tp633
ssba(iSample
Sample
p634
(dp635
g3
F1440591631.537176
sg4
(dp636
g6
(I-57
I107
tp637
sg8
(I-53
I107
tp638
sg10
(I-63
I107
tp639
ssg12
(dp640
(g8
I8
tp641
(I15181
I14810
tp642
s(g6
I2
tp643
(I15049
I14805
tp644
s(g10
I6
tp645
(I15207
I14950
tp646
s(g10
I4
tp647
(I15193
I14923
tp648
s(g6
I7
tp649
(I15125
I14867
tp650
s(g8
I3
tp651
(I15170
I14779
tp652
ssba(iSample
Sample
p653
(dp654
g3
F1440591634.895372
sg4
(dp655
g6
(I-58
I107
tp656
sg8
(I-52
I107
tp657
sg10
(I-59
I107
tp658
ssg12
(dp659
(g8
I8
tp660
(I15206
I14833
tp661
s(g6
I2
tp662
(I15074
I14830
tp663
s(g10
I6
tp664
(I15229
I14972
tp665
s(g10
I4
tp666
(I15215
I14945
tp667
s(g6
I7
tp668
(I15150
I14892
tp669
s(g8
I3
tp670
(I15195
I14803
tp671
ssba(iSample
Sample
p672
(dp673
g3
F1440591638.275046
sg4
(dp674
g6
(I-62
I107
tp675
sg8
(I-56
I107
tp676
sg10
(I-62
I107
tp677
ssg12
(dp678
(g8
I8
tp679
(I15228
I14855
tp680
s(g6
I2
tp681
(I15096
I14852
tp682
s(g10
I6
tp683
(I15254
I14997
tp684
s(g10
I4
tp685
(I15240
I14970
tp686
s(g6
I7
tp687
(I15172
I14914
tp688
s(g8
I3
tp689
(I15217
I14824
tp690
ssba(iSample
Sample
p691
(dp692
g3
F1440591641.262401
sg4
(dp693
g6
(I-62
I107
tp694
sg8
(I-59
I107
tp695
sg10
(I-62
I107
tp696
ssg12
(dp697
(g8
I8
tp698
(I15250
I14877
tp699
s(g6
I2
tp700
(I15118
I14874
tp701
s(g10
I6
tp702
(I15276
I15019
tp703
s(g10
I4
tp704
(I15262
I14991
tp705
s(g6
I7
tp706
(I15194
I14936
tp707
s(g8
I3
tp708
(I15239
I14845
tp709
ssba(iSample
Sample
p710
(dp711
g3
F1440591644.250839
sg4
(dp712
g6
(I-61
I107
tp713
sg8
(I-58
I107
tp714
sg10
(I-60
I107
tp715
ssg12
(dp716
(g8
I8
tp717
(I15282
I14908
tp718
s(g6
I2
tp719
(I15150
I14905
tp720
s(g10
I6
tp721
(I15308
I15051
tp722
s(g10
I4
tp723
(I15294
I15022
tp724
s(g6
I7
tp725
(I15226
I14968
tp726
s(g8
I3
tp727
(I15271
I14877
tp728
ssba(iSample
Sample
p729
(dp730
g3
F1440591648.573819
sg4
(dp731
g6
(I-55
I107
tp732
sg8
(I-51
I107
tp733
sg10
(I-59
I107
tp734
ssg12
(dp735
(g8
I8
tp736
(I15304
I14930
tp737
s(g6
I2
tp738
(I15173
I14928
tp739
s(g10
I6
tp740
(I15330
I15072
tp741
s(g10
I4
tp742
(I15316
I15044
tp743
s(g6
I7
tp744
(I15249
I14991
tp745
s(g8
I3
tp746
(I15293
I14899
tp747
ssba(iSample
Sample
p748
(dp749
g3
F1440591651.633941
sg4
(dp750
g6
(I-59
I107
tp751
sg8
(I-51
I107
tp752
sg10
(I-60
I107
tp753
ssg12
(dp754
(g8
I8
tp755
(I15328
I14953
tp756
s(g6
I2
tp757
(I15196
I14951
tp758
s(g10
I6
tp759
(I15354
I15095
tp760
s(g10
I4
tp761
(I15340
I15066
tp762
s(g6
I7
tp763
(I15272
I15013
tp764
s(g8
I3
tp765
(I15317
I14922
tp766
ssba(iSample
Sample
p767
(dp768
g3
F1440591654.752194
sg4
(dp769
g6
(I-59
I107
tp770
sg8
(I-53
I107
tp771
sg10
(I-60
I107
tp772
ssg12
(dp773
(g8
I8
tp774
(I15350
I14975
tp775
s(g6
I2
tp776
(I15221
I14975
tp777
s(g10
I6
tp778
(I15376
I15117
tp779
s(g10
I4
tp780
(I15362
I15088
tp781
s(g6
I7
tp782
(I15297
I15038
tp783
s(g8
I3
tp784
(I15339
I14944
tp785
ssba(iSample
Sample
p786
(dp787
g3
F1440591658.090608
sg4
(dp788
g6
(I-58
I107
tp789
sg8
(I-58
I107
tp790
sg10
(I-59
I103
tp791
ssg12
(dp792
(g8
I8
tp793
(I15375
I14999
tp794
s(g6
I2
tp795
(I15250
I15001
tp796
s(g10
I6
tp797
(I15401
I15141
tp798
s(g10
I4
tp799
(I15387
I15110
tp800
s(g6
I7
tp801
(I15326
I15066
tp802
s(g8
I3
tp803
(I15364
I14968
tp804
ssba(iSample
Sample
p805
(dp806
g3
F1440591662.046572
sg4
(dp807
g6
(I-57
I107
tp808
sg8
(I-53
I107
tp809
sg10
(I-59
I107
tp810
ssg12
(dp811
(g8
I8
tp812
(I15409
I15032
tp813
s(g6
I2
tp814
(I15278
I15028
tp815
s(g10
I6
tp816
(I15432
I15171
tp817
s(g10
I4
tp818
(I15418
I15139
tp819
s(g6
I7
tp820
(I15354
I15093
tp821
s(g8
I3
tp822
(I15398
I15002
tp823
ssba(iSample
Sample
p824
(dp825
g3
F1440591665.797257
sg4
(dp826
g6
(I-57
I107
tp827
sg8
(I-50
I107
tp828
sg10
(I-60
I107
tp829
ssg12
(dp830
(g8
I8
tp831
(I15432
I15055
tp832
s(g6
I2
tp833
(I15300
I15050
tp834
s(g10
I6
tp835
(I15458
I15197
tp836
s(g10
I4
tp837
(I15444
I15165
tp838
s(g6
I7
tp839
(I15376
I15115
tp840
s(g8
I3
tp841
(I15421
I15025
tp842
ssba(iSample
Sample
p843
(dp844
g3
F1440591668.806458
sg4
(dp845
g6
(I-59
I107
tp846
sg8
(I-52
I107
tp847
sg10
(I-62
I107
tp848
ssg12
(dp849
(g8
I8
tp850
(I15454
I15076
tp851
s(g6
I2
tp852
(I15322
I15071
tp853
s(g10
I6
tp854
(I15480
I15218
tp855
s(g10
I4
tp856
(I15466
I15187
tp857
s(g6
I7
tp858
(I15398
I15137
tp859
s(g8
I3
tp860
(I15443
I15047
tp861
ssba(iSample
Sample
p862
(dp863
g3
F1440591671.760133
sg4
(dp864
g6
(I-55
I107
tp865
sg8
(I-55
I107
tp866
sg10
(I-59
I107
tp867
ssg12
(dp868
(g8
I8
tp869
(I15476
I15097
tp870
s(g6
I2
tp871
(I15346
I15094
tp872
s(g10
I6
tp873
(I15502
I15240
tp874
s(g10
I4
tp875
(I15488
I15208
tp876
s(g6
I7
tp877
(I15422
I15161
tp878
s(g8
I3
tp879
(I15465
I15069
tp880
ssba(iSample
Sample
p881
(dp882
g3
F1440591675.000444
sg4
(dp883
g6
(I-56
I107
tp884
sg8
(I-53
I107
tp885
sg10
(I-61
I107
tp886
ssg12
(dp887
(g8
I8
tp888
(I15501
I15121
tp889
s(g6
I2
tp890
(I15369
I15116
tp891
s(g10
I6
tp892
(I15526
I15264
tp893
s(g10
I4
tp894
(I15512
I15231
tp895
s(g6
I7
tp896
(I15445
I15184
tp897
s(g8
I3
tp898
(I15490
I15091
tp899
ssba(iSample
Sample
p900
(dp901
g3
F1440591678.099853
sg4
(dp902
g6
(I-56
I107
tp903
sg8
(I-55
I107
tp904
sg10
(I-60
I106
tp905
ssg12
(dp906
(g8
I8
tp907
(I15524
I15143
tp908
s(g6
I2
tp909
(I15392
I15139
tp910
s(g10
I6
tp911
(I15549
I15287
tp912
s(g10
I4
tp913
(I15535
I15253
tp914
s(g6
I7
tp915
(I15468
I15207
tp916
s(g8
I3
tp917
(I15513
I15113
tp918
ssba(iSample
Sample
p919
(dp920
g3
F1440591681.211453
sg4
(dp921
g6
(I-61
I107
tp922
sg8
(I-50
I107
tp923
sg10
(I-64
I107
tp924
ssg12
(dp925
(g8
I8
tp926
(I15546
I15164
tp927
s(g6
I2
tp928
(I15414
I15161
tp929
s(g10
I6
tp930
(I15572
I15310
tp931
s(g10
I4
tp932
(I15558
I15274
tp933
s(g6
I7
tp934
(I15490
I15229
tp935
s(g8
I3
tp936
(I15535
I15135
tp937
ssba(iSample
Sample
p938
(dp939
g3
F1440591684.172779
sg4
(dp940
g6
(I-58
I107
tp941
sg8
(I-50
I107
tp942
sg10
(I-60
I107
tp943
ssg12
(dp944
(g8
I8
tp945
(I15576
I15192
tp946
s(g6
I2
tp947
(I15444
I15191
tp948
s(g10
I6
tp949
(I15594
I15331
tp950
s(g10
I4
tp951
(I15580
I15296
tp952
s(g6
I7
tp953
(I15520
I15257
tp954
s(g8
I3
tp955
(I15565
I15164
tp956
ssba(iSample
Sample
p957
(dp958
g3
F1440591688.240768
sg4
(dp959
g6
(I-60
I107
tp960
sg8
(I-57
I107
tp961
sg10
(I-60
I107
tp962
ssg12
(dp963
(g8
I8
tp964
(I15599
I15215
tp965
s(g6
I2
tp966
(I15467
I15213
tp967
s(g10
I6
tp968
(I15625
I15361
tp969
s(g10
I4
tp970
(I15611
I15327
tp971
s(g6
I7
tp972
(I15543
I15279
tp973
s(g8
I3
tp974
(I15588
I15187
tp975
ssba(iSample
Sample
p976
(dp977
g3
F1440591691.356619
sg4
(dp978
g6
(I-63
I107
tp979
sg8
(I-55
I107
tp980
sg10
(I-60
I107
tp981
ssg12
(dp982
(g8
I8
tp983
(I15621
I15237
tp984
s(g6
I2
tp985
(I15489
I15235
tp986
s(g10
I6
tp987
(I15647
I15382
tp988
s(g10
I4
tp989
(I15633
I15349
tp990
s(g6
I7
tp991
(I15565
I15299
tp992
s(g8
I3
tp993
(I15610
I15209
tp994
ssba(iSample
Sample
p995
(dp996
g3
F1440591694.311189
sg4
(dp997
g6
(I-59
I107
tp998
sg8
(I-58
I107
tp999
sg10
(I-61
I107
tp1000
ssg12
(dp1001
(g8
I8
tp1002
(I15643
I15257
tp1003
s(g6
I2
tp1004
(I15511
I15257
tp1005
s(g10
I6
tp1006
(I15669
I15404
tp1007
s(g10
I4
tp1008
(I15655
I15370
tp1009
s(g6
I7
tp1010
(I15587
I15321
tp1011
s(g8
I3
tp1012
(I15632
I15230
tp1013
ssba(iSample
Sample
p1014
(dp1015
g3
F1440591697.267656
sg4
(dp1016
g6
(I-63
I107
tp1017
sg8
(I-53
I107
tp1018
sg10
(I-59
I107
tp1019
ssg12
(dp1020
(g8
I8
tp1021
(I15665
I15279
tp1022
s(g6
I2
tp1023
(I15534
I15279
tp1024
s(g10
I6
tp1025
(I15691
I15426
tp1026
s(g10
I4
tp1027
(I15677
I15392
tp1028
s(g6
I7
tp1029
(I15610
I15343
tp1030
s(g8
I3
tp1031
(I15654
I15252
tp1032
ssba(iSample
Sample
p1033
(dp1034
g3
F1440591700.365207
sg4
(dp1035
g6
(I-58
I107
tp1036
sg8
(I-50
I107
tp1037
sg10
(I-59
I107
tp1038
ssg12
(dp1039
(g8
I8
tp1040
(I15688
I15300
tp1041
s(g6
I2
tp1042
(I15556
I15301
tp1043
s(g10
I6
tp1044
(I15714
I15449
tp1045
s(g10
I4
tp1046
(I15700
I15415
tp1047
s(g6
I7
tp1048
(I15632
I15364
tp1049
s(g8
I3
tp1050
(I15677
I15273
tp1051
ssba(iSample
Sample
p1052
(dp1053
g3
F1440591703.359456
sg4
(dp1054
g6
(I-59
I107
tp1055
sg8
(I-54
I107
tp1056
sg10
(I-62
I107
tp1057
ssg12
(dp1058
(g8
I8
tp1059
(I15710
I15321
tp1060
s(g6
I2
tp1061
(I15578
I15322
tp1062
s(g10
I6
tp1063
(I15736
I15471
tp1064
s(g10
I4
tp1065
(I15722
I15436
tp1066
s(g6
I7
tp1067
(I15654
I15385
tp1068
s(g8
I3
tp1069
(I15699
I15294
tp1070
ssba(iSample
Sample
p1071
(dp1072
g3
F1440591706.312363
sg4
(dp1073
g6
(I-61
I107
tp1074
sg8
(I-49
I107
tp1075
sg10
(I-62
I107
tp1076
ssg12
(dp1077
(g8
I8
tp1078
(I15733
I15343
tp1079
s(g6
I2
tp1080
(I15601
I15345
tp1081
s(g10
I6
tp1082
(I15759
I15494
tp1083
s(g10
I4
tp1084
(I15745
I15459
tp1085
s(g6
I7
tp1086
(I15677
I15407
tp1087
s(g8
I3
tp1088
(I15722
I15315
tp1089
ssba(iSample
Sample
p1090
(dp1091
g3
F1440591709.473955
sg4
(dp1092
g6
(I-59
I107
tp1093
sg8
(I-53
I107
tp1094
sg10
(I-60
I107
tp1095
ssg12
(dp1096
(g8
I8
tp1097
(I15755
I15364
tp1098
s(g6
I2
tp1099
(I15624
I15368
tp1100
s(g10
I6
tp1101
(I15781
I15516
tp1102
s(g10
I4
tp1103
(I15767
I15481
tp1104
s(g6
I7
tp1105
(I15700
I15428
tp1106
s(g8
I3
tp1107
(I15744
I15335
tp1108
ssba(iSample
Sample
p1109
(dp1110
g3
F1440591712.518767
sg4
(dp1111
g6
(I-62
I107
tp1112
sg8
(I-59
I107
tp1113
sg10
(I-59
I107
tp1114
ssg12
(dp1115
(g8
I8
tp1116
(I15778
I15386
tp1117
s(g6
I2
tp1118
(I15649
I15393
tp1119
s(g10
I6
tp1120
(I15804
I15539
tp1121
s(g10
I4
tp1122
(I15790
I15504
tp1123
s(g6
I7
tp1124
(I15725
I15453
tp1125
s(g8
I3
tp1126
(I15767
I15357
tp1127
ssba(iSample
Sample
p1128
(dp1129
g3
F1440591715.921889
sg4
(dp1130
g6
(I-59
I107
tp1131
sg8
(I-59
I107
tp1132
sg10
(I-60
I106
tp1133
ssg12
(dp1134
(g8
I8
tp1135
(I15803
I15410
tp1136
s(g6
I2
tp1137
(I15671
I15413
tp1138
s(g10
I6
tp1139
(I15829
I15564
tp1140
s(g10
I4
tp1141
(I15815
I15528
tp1142
s(g6
I7
tp1143
(I15747
I15475
tp1144
s(g8
I3
tp1145
(I15792
I15381
tp1146
ssba.