(lp0
(iSample
Sample
p1
(dp2
S'timeStamp'
p3
F1440407145.830886
sS'moteData'
p4
(dp5
(S'8054'
p6
I3
tp7
(I12581
I12538
tp8
s(S'8031'
p9
I7
tp10
(I12806
I12464
tp11
s(S'85d2'
p12
I6
tp13
(I12765
I12214
tp14
s(g6
I5
tp15
(I12692
I12640
tp16
s(g12
I4
tp17
(I12775
I12208
tp18
s(g9
I2
tp19
(I12787
I12423
tp20
ssba(iSample
Sample
p21
(dp22
g3
F1440407151.83025
sg4
(dp23
(g6
I3
tp24
(I12626
I12583
tp25
s(g9
I7
tp26
(I12852
I12507
tp27
s(g12
I6
tp28
(I12812
I12261
tp29
s(g6
I5
tp30
(I12737
I12685
tp31
s(g12
I4
tp32
(I12822
I12254
tp33
s(g9
I2
tp34
(I12833
I12467
tp35
ssba(iSample
Sample
p36
(dp37
g3
F1440407158.091337
sg4
(dp38
(g6
I3
tp39
(I12673
I12630
tp40
s(g9
I7
tp41
(I12898
I12548
tp42
s(g12
I6
tp43
(I12860
I12304
tp44
s(g6
I5
tp45
(I12784
I12732
tp46
s(g12
I4
tp47
(I12870
I12301
tp48
s(g9
I2
tp49
(I12879
I12511
tp50
ssba(iSample
Sample
p51
(dp52
g3
F1440407164.602594
sg4
(dp53
(g6
I3
tp54
(I12721
I12678
tp55
s(g9
I7
tp56
(I12947
I12594
tp57
s(g12
I6
tp58
(I12907
I12351
tp59
s(g6
I5
tp60
(I12832
I12780
tp61
s(g12
I4
tp62
(I12917
I12346
tp63
s(g9
I2
tp64
(I12928
I12556
tp65
ssba(iSample
Sample
p66
(dp67
g3
F1440407170.912448
sg4
(dp68
(g6
I3
tp69
(I12767
I12724
tp70
s(g9
I7
tp71
(I12993
I12637
tp72
s(g12
I6
tp73
(I12953
I12397
tp74
s(g6
I5
tp75
(I12878
I12826
tp76
s(g12
I4
tp77
(I12963
I12391
tp78
s(g9
I2
tp79
(I12974
I12601
tp80
ssba(iSample
Sample
p81
(dp82
g3
F1440407177.213881
sg4
(dp83
(g6
I3
tp84
(I12814
I12771
tp85
s(g9
I7
tp86
(I13040
I12683
tp87
s(g12
I6
tp88
(I13003
I12446
tp89
s(g6
I5
tp90
(I12925
I12873
tp91
s(g12
I4
tp92
(I13013
I12441
tp93
s(g9
I2
tp94
(I13021
I12647
tp95
ssba(iSample
Sample
p96
(dp97
g3
F1440407183.981245
sg4
(dp98
(g6
I3
tp99
(I12864
I12821
tp100
s(g9
I7
tp101
(I13090
I12730
tp102
s(g12
I6
tp103
(I13049
I12492
tp104
s(g6
I5
tp105
(I12975
I12923
tp106
s(g12
I4
tp107
(I13059
I12486
tp108
s(g9
I2
tp109
(I13071
I12697
tp110
ssba(iSample
Sample
p111
(dp112
g3
F1440407190.140878
sg4
(dp113
(g6
I3
tp114
(I12909
I12866
tp115
s(g9
I7
tp116
(I13135
I12775
tp117
s(g12
I6
tp118
(I13095
I12538
tp119
s(g6
I5
tp120
(I13020
I12968
tp121
s(g12
I4
tp122
(I13105
I12530
tp123
s(g9
I2
tp124
(I13116
I12740
tp125
ssba(iSample
Sample
p126
(dp127
g3
F1440407196.369704
sg4
(dp128
(g6
I3
tp129
(I12955
I12912
tp130
s(g9
I7
tp131
(I13181
I12820
tp132
s(g12
I6
tp133
(I13140
I12582
tp134
s(g6
I5
tp135
(I13066
I13014
tp136
s(g12
I4
tp137
(I13150
I12573
tp138
s(g9
I2
tp139
(I13162
I12784
tp140
ssba(iSample
Sample
p141
(dp142
g3
F1440407202.420229
sg4
(dp143
(g6
I3
tp144
(I13000
I12957
tp145
s(g9
I7
tp146
(I13225
I12860
tp147
s(g12
I6
tp148
(I13184
I12625
tp149
s(g6
I5
tp150
(I13111
I13059
tp151
s(g12
I4
tp152
(I13194
I12616
tp153
s(g9
I2
tp154
(I13206
I12826
tp155
ssba(iSample
Sample
p156
(dp157
g3
F1440407208.35028
sg4
(dp158
(g6
I3
tp159
(I13044
I13001
tp160
s(g9
I7
tp161
(I13269
I12901
tp162
s(g12
I6
tp163
(I13229
I12668
tp164
s(g6
I5
tp165
(I13155
I13103
tp166
s(g12
I4
tp167
(I13239
I12661
tp168
s(g9
I2
tp169
(I13250
I12865
tp170
ssba(iSample
Sample
p171
(dp172
g3
F1440407214.411269
sg4
(dp173
(g6
I3
tp174
(I13089
I13046
tp175
s(g9
I7
tp176
(I13315
I12942
tp177
s(g12
I6
tp178
(I13275
I12713
tp179
s(g6
I5
tp180
(I13200
I13148
tp181
s(g12
I4
tp182
(I13285
I12703
tp183
s(g9
I2
tp184
(I13296
I12907
tp185
ssba(iSample
Sample
p186
(dp187
g3
F1440407220.616653
sg4
(dp188
(g6
I3
tp189
(I13135
I13092
tp190
s(g9
I7
tp191
(I13361
I12983
tp192
s(g12
I6
tp193
(I13321
I12757
tp194
s(g6
I5
tp195
(I13246
I13194
tp196
s(g12
I4
tp197
(I13331
I12747
tp198
s(g9
I2
tp199
(I13342
I12949
tp200
ssba(iSample
Sample
p201
(dp202
g3
F1440407226.825752
sg4
(dp203
(g6
I3
tp204
(I13181
I13138
tp205
s(g9
I7
tp206
(I13407
I13023
tp207
s(g12
I6
tp208
(I13367
I12800
tp209
s(g6
I5
tp210
(I13292
I13240
tp211
s(g12
I4
tp212
(I13377
I12791
tp213
s(g9
I2
tp214
(I13388
I12992
tp215
ssba(iSample
Sample
p216
(dp217
g3
F1440407233.115752
sg4
(dp218
(g6
I3
tp219
(I13227
I13184
tp220
s(g9
I7
tp221
(I13454
I13064
tp222
s(g12
I6
tp223
(I13414
I12847
tp224
s(g6
I5
tp225
(I13338
I13286
tp226
s(g12
I4
tp227
(I13424
I12835
tp228
s(g9
I2
tp229
(I13435
I13032
tp230
ssba(iSample
Sample
p231
(dp232
g3
F1440407239.425067
sg4
(dp233
(g6
I3
tp234
(I13274
I13231
tp235
s(g9
I7
tp236
(I13499
I13104
tp237
s(g12
I6
tp238
(I13459
I12888
tp239
s(g6
I5
tp240
(I13385
I13333
tp241
s(g12
I4
tp242
(I13469
I12878
tp243
s(g9
I2
tp244
(I13480
I13071
tp245
ssba(iSample
Sample
p246
(dp247
g3
F1440407245.481073
sg4
(dp248
(g6
I3
tp249
(I13319
I13276
tp250
s(g9
I7
tp251
(I13545
I13146
tp252
s(g12
I6
tp253
(I13504
I12932
tp254
s(g6
I5
tp255
(I13430
I13378
tp256
s(g12
I4
tp257
(I13514
I12922
tp258
s(g9
I2
tp259
(I13526
I13114
tp260
ssba(iSample
Sample
p261
(dp262
g3
F1440407251.530579
sg4
(dp263
(g6
I3
tp264
(I13364
I13321
tp265
s(g9
I7
tp266
(I13589
I13186
tp267
s(g12
I6
tp268
(I13548
I12974
tp269
s(g6
I5
tp270
(I13475
I13423
tp271
s(g12
I4
tp272
(I13558
I12966
tp273
s(g9
I2
tp274
(I13570
I13153
tp275
ssba(iSample
Sample
p276
(dp277
g3
F1440407257.474629
sg4
(dp278
(g6
I3
tp279
(I13408
I13365
tp280
s(g9
I7
tp281
(I13634
I13226
tp282
s(g12
I6
tp283
(I13594
I13019
tp284
s(g6
I5
tp285
(I13519
I13467
tp286
s(g12
I4
tp287
(I13604
I13011
tp288
s(g9
I2
tp289
(I13615
I13195
tp290
ssba(iSample
Sample
p291
(dp292
g3
F1440407263.723999
sg4
(dp293
(g6
I3
tp294
(I13454
I13411
tp295
s(g9
I7
tp296
(I13679
I13267
tp297
s(g12
I6
tp298
(I13638
I13060
tp299
s(g6
I5
tp300
(I13565
I13513
tp301
s(g12
I4
tp302
(I13648
I13053
tp303
s(g9
I2
tp304
(I13660
I13236
tp305
ssba(iSample
Sample
p306
(dp307
g3
F1440407269.743938
sg4
(dp308
(g6
I3
tp309
(I13499
I13456
tp310
s(g9
I7
tp311
(I13725
I13311
tp312
s(g12
I6
tp313
(I13685
I13107
tp314
s(g6
I5
tp315
(I13610
I13558
tp316
s(g12
I4
tp317
(I13695
I13099
tp318
s(g9
I2
tp319
(I13706
I13278
tp320
ssba(iSample
Sample
p321
(dp322
g3
F1440407276.037927
sg4
(dp323
(g6
I3
tp324
(I13545
I13502
tp325
s(g9
I7
tp326
(I13771
I13352
tp327
s(g12
I6
tp328
(I13734
I13155
tp329
s(g6
I5
tp330
(I13656
I13604
tp331
s(g12
I4
tp332
(I13744
I13146
tp333
s(g9
I2
tp334
(I13752
I13320
tp335
ssba(iSample
Sample
p336
(dp337
g3
F1440407282.642595
sg4
(dp338
(g6
I3
tp339
(I13594
I13551
tp340
s(g9
I7
tp341
(I13820
I13397
tp342
s(g12
I6
tp343
(I13780
I13200
tp344
s(g6
I5
tp345
(I13705
I13653
tp346
s(g12
I4
tp347
(I13790
I13192
tp348
s(g9
I2
tp349
(I13801
I13365
tp350
ssba(iSample
Sample
p351
(dp352
g3
F1440407288.850468
sg4
(dp353
(g6
I3
tp354
(I13640
I13597
tp355
s(g9
I7
tp356
(I13865
I13439
tp357
s(g12
I6
tp358
(I13824
I13242
tp359
s(g6
I5
tp360
(I13751
I13699
tp361
s(g12
I4
tp362
(I13834
I13234
tp363
s(g9
I2
tp364
(I13846
I13408
tp365
ssba(iSample
Sample
p366
(dp367
g3
F1440407294.769936
sg4
(dp368
(g6
I3
tp369
(I13684
I13641
tp370
s(g9
I7
tp371
(I13910
I13483
tp372
s(g12
I6
tp373
(I13869
I13283
tp374
s(g6
I5
tp375
(I13795
I13743
tp376
s(g12
I4
tp377
(I13879
I13277
tp378
s(g9
I2
tp379
(I13891
I13449
tp380
ssba(iSample
Sample
p381
(dp382
g3
F1440407300.876088
sg4
(dp383
(g6
I3
tp384
(I13729
I13686
tp385
s(g9
I7
tp386
(I13958
I13528
tp387
s(g12
I6
tp388
(I13918
I13331
tp389
s(g6
I5
tp390
(I13840
I13788
tp391
s(g12
I4
tp392
(I13928
I13321
tp393
s(g9
I2
tp394
(I13939
I13496
tp395
ssba(iSample
Sample
p396
(dp397
g3
F1440407307.488923
sg4
(dp398
(g6
I3
tp399
(I13778
I13735
tp400
s(g9
I7
tp401
(I14003
I13572
tp402
s(g12
I6
tp403
(I13963
I13375
tp404
s(g6
I5
tp405
(I13889
I13837
tp406
s(g12
I4
tp407
(I13973
I13364
tp408
s(g9
I2
tp409
(I13984
I13540
tp410
ssba(iSample
Sample
p411
(dp412
g3
F1440407313.547072
sg4
(dp413
(g6
I3
tp414
(I13823
I13780
tp415
s(g9
I7
tp416
(I14049
I13614
tp417
s(g12
I6
tp418
(I14008
I13418
tp419
s(g6
I5
tp420
(I13934
I13882
tp421
s(g12
I4
tp422
(I14018
I13407
tp423
s(g9
I2
tp424
(I14030
I13586
tp425
ssba(iSample
Sample
p426
(dp427
g3
F1440407319.607569
sg4
(dp428
(g6
I3
tp429
(I13868
I13825
tp430
s(g9
I7
tp431
(I14094
I13656
tp432
s(g12
I6
tp433
(I14062
I13470
tp434
s(g6
I5
tp435
(I13979
I13927
tp436
s(g12
I4
tp437
(I14072
I13458
tp438
s(g9
I2
tp439
(I14075
I13629
tp440
ssba(iSample
Sample
p441
(dp442
g3
F1440407326.940232
sg4
(dp443
(g6
I3
tp444
(I13922
I13879
tp445
s(g9
I7
tp446
(I14148
I13710
tp447
s(g12
I6
tp448
(I14108
I13514
tp449
s(g6
I5
tp450
(I14033
I13980
tp451
s(g12
I4
tp452
(I14118
I13503
tp453
s(g9
I2
tp454
(I14129
I13678
tp455
ssba(iSample
Sample
p456
(dp457
g3
F1440407333.152804
sg4
(dp458
(g6
I3
tp459
(I13968
I13925
tp460
s(g9
I7
tp461
(I14197
I13756
tp462
s(g12
I6
tp463
(I14157
I13561
tp464
s(g6
I5
tp465
(I14079
I14026
tp466
s(g12
I4
tp467
(I14167
I13549
tp468
s(g9
I2
tp469
(I14178
I13721
tp470
ssba(iSample
Sample
p471
(dp472
g3
F1440407339.778346
sg4
(dp473
(g6
I3
tp474
(I14017
I13974
tp475
s(g9
I7
tp476
(I14245
I13800
tp477
s(g12
I6
tp478
(I14205
I13606
tp479
s(g6
I5
tp480
(I14128
I14075
tp481
s(g12
I4
tp482
(I14215
I13596
tp483
s(g9
I2
tp484
(I14226
I13766
tp485
ssba(iSample
Sample
p486
(dp487
g3
F1440407346.285415
sg4
(dp488
(g6
I3
tp489
(I14065
I14021
tp490
s(g9
I7
tp491
(I14290
I13841
tp492
s(g12
I6
tp493
(I14250
I13649
tp494
s(g6
I5
tp495
(I14176
I14123
tp496
s(g12
I4
tp497
(I14260
I13639
tp498
s(g9
I2
tp499
(I14271
I13811
tp500
ssba(iSample
Sample
p501
(dp502
g3
F1440407352.335066
sg4
(dp503
(g6
I3
tp504
(I14110
I14066
tp505
s(g9
I7
tp506
(I14336
I13886
tp507
s(g12
I6
tp508
(I14296
I13692
tp509
s(g6
I5
tp510
(I14221
I14168
tp511
s(g12
I4
tp512
(I14306
I13683
tp513
s(g9
I2
tp514
(I14317
I13857
tp515
ssba(iSample
Sample
p516
(dp517
g3
F1440407358.537142
sg4
(dp518
(g6
I3
tp519
(I14156
I14112
tp520
s(g9
I7
tp521
(I14383
I13931
tp522
s(g12
I6
tp523
(I14343
I13737
tp524
s(g6
I5
tp525
(I14267
I14214
tp526
s(g12
I4
tp527
(I14353
I13729
tp528
s(g9
I2
tp529
(I14364
I13903
tp530
ssba(iSample
Sample
p531
(dp532
g3
F1440407364.853282
sg4
(dp533
(g6
I3
tp534
(I14203
I14159
tp535
s(g9
I7
tp536
(I14430
I13978
tp537
s(g12
I6
tp538
(I14389
I13780
tp539
s(g6
I5
tp540
(I14314
I14261
tp541
s(g12
I4
tp542
(I14399
I13775
tp543
s(g9
I2
tp544
(I14411
I13948
tp545
ssba(iSample
Sample
p546
(dp547
g3
F1440407371.054943
sg4
(dp548
(g6
I3
tp549
(I14251
I14206
tp550
s(g9
I7
tp551
(I14476
I14022
tp552
s(g12
I6
tp553
(I14436
I13826
tp554
s(g6
I5
tp555
(I14362
I14309
tp556
s(g12
I4
tp557
(I14446
I13820
tp558
s(g9
I2
tp559
(I14457
I13987
tp560
ssba(iSample
Sample
p561
(dp562
g3
F1440407377.407065
sg4
(dp563
(g6
I3
tp564
(I14296
I14251
tp565
s(g9
I7
tp566
(I14522
I14066
tp567
s(g12
I6
tp568
(I14482
I13870
tp569
s(g6
I5
tp570
(I14407
I14354
tp571
s(g12
I4
tp572
(I14492
I13866
tp573
s(g9
I2
tp574
(I14503
I14032
tp575
ssba(iSample
Sample
p576
(dp577
g3
F1440407383.661689
sg4
(dp578
(g6
I3
tp579
(I14342
I14297
tp580
s(g9
I7
tp581
(I14568
I14112
tp582
s(g12
I6
tp583
(I14528
I13913
tp584
s(g6
I5
tp585
(I14453
I14400
tp586
s(g12
I4
tp587
(I14538
I13911
tp588
s(g9
I2
tp589
(I14549
I14075
tp590
ssba(iSample
Sample
p591
(dp592
g3
F1440407389.877809
sg4
(dp593
(g6
I3
tp594
(I14391
I14346
tp595
s(g9
I7
tp596
(I14616
I14157
tp597
s(g12
I6
tp598
(I14575
I13959
tp599
s(g6
I5
tp600
(I14502
I14449
tp601
s(g12
I4
tp602
(I14585
I13956
tp603
s(g9
I2
tp604
(I14597
I14121
tp605
ssba(iSample
Sample
p606
(dp607
g3
F1440407396.18504
sg4
(dp608
(g6
I3
tp609
(I14435
I14389
tp610
s(g9
I7
tp611
(I14661
I14202
tp612
s(g12
I6
tp613
(I14621
I14003
tp614
s(g6
I5
tp615
(I14546
I14493
tp616
s(g12
I4
tp617
(I14631
I14000
tp618
s(g9
I2
tp619
(I14642
I14164
tp620
ssba(iSample
Sample
p621
(dp622
g3
F1440407402.400917
sg4
(dp623
(g6
I3
tp624
(I14481
I14435
tp625
s(g9
I7
tp626
(I14707
I14248
tp627
s(g12
I6
tp628
(I14669
I14050
tp629
s(g6
I5
tp630
(I14592
I14539
tp631
s(g12
I4
tp632
(I14679
I14047
tp633
s(g9
I2
tp634
(I14688
I14209
tp635
ssba(iSample
Sample
p636
(dp637
g3
F1440407408.9604
sg4
(dp638
(g6
I3
tp639
(I14529
I14483
tp640
s(g9
I7
tp641
(I14754
I14295
tp642
s(g12
I6
tp643
(I14713
I14092
tp644
s(g6
I5
tp645
(I14640
I14587
tp646
s(g12
I4
tp647
(I14723
I14089
tp648
s(g9
I2
tp649
(I14735
I14255
tp650
ssba(iSample
Sample
p651
(dp652
g3
F1440407414.901355
sg4
(dp653
(g6
I3
tp654
(I14573
I14527
tp655
s(g9
I7
tp656
(I14798
I14338
tp657
s(g12
I6
tp658
(I14758
I14136
tp659
s(g6
I5
tp660
(I14684
I14631
tp661
s(g12
I4
tp662
(I14768
I14131
tp663
s(g9
I2
tp664
(I14779
I14298
tp665
ssba(iSample
Sample
p666
(dp667
g3
F1440407420.953412
sg4
(dp668
(g6
I3
tp669
(I14618
I14572
tp670
s(g9
I7
tp671
(I14844
I14383
tp672
s(g12
I6
tp673
(I14804
I14178
tp674
s(g6
I5
tp675
(I14729
I14675
tp676
s(g12
I4
tp677
(I14814
I14175
tp678
s(g9
I2
tp679
(I14825
I14342
tp680
ssba(iSample
Sample
p681
(dp682
g3
F1440407427.141189
sg4
(dp683
(g6
I3
tp684
(I14664
I14618
tp685
s(g9
I7
tp686
(I14889
I14427
tp687
s(g12
I6
tp688
(I14848
I14222
tp689
s(g6
I5
tp690
(I14775
I14721
tp691
s(g12
I4
tp692
(I14858
I14216
tp693
s(g9
I2
tp694
(I14870
I14385
tp695
ssba(iSample
Sample
p696
(dp697
g3
F1440407433.09989
sg4
(dp698
(g6
I3
tp699
(I14710
I14663
tp700
s(g9
I7
tp701
(I14935
I14473
tp702
s(g12
I6
tp703
(I14894
I14267
tp704
s(g6
I5
tp705
(I14821
I14767
tp706
s(g12
I4
tp707
(I14904
I14261
tp708
s(g9
I2
tp709
(I14916
I14429
tp710
ssba(iSample
Sample
p711
(dp712
g3
F1440407439.303623
sg4
(dp713
(g6
I3
tp714
(I14754
I14707
tp715
s(g9
I7
tp716
(I14980
I14518
tp717
s(g12
I6
tp718
(I14940
I14309
tp719
s(g6
I5
tp720
(I14865
I14811
tp721
s(g12
I4
tp722
(I14950
I14306
tp723
s(g9
I2
tp724
(I14961
I14472
tp725
ssba(iSample
Sample
p726
(dp727
g3
F1440407445.50467
sg4
(dp728
(g6
I3
tp729
(I14800
I14753
tp730
s(g9
I7
tp731
(I15025
I14562
tp732
s(g12
I6
tp733
(I14985
I14353
tp734
s(g6
I5
tp735
(I14911
I14856
tp736
s(g12
I4
tp737
(I14995
I14349
tp738
s(g9
I2
tp739
(I15006
I14515
tp740
ssba(iSample
Sample
p741
(dp742
g3
F1440407451.56032
sg4
(dp743
(g6
I3
tp744
(I14845
I14798
tp745
s(g9
I7
tp746
(I15071
I14607
tp747
s(g12
I6
tp748
(I15031
I14399
tp749
s(g6
I5
tp750
(I14956
I14901
tp751
s(g12
I4
tp752
(I15041
I14395
tp753
s(g9
I2
tp754
(I15052
I14561
tp755
ssba(iSample
Sample
p756
(dp757
g3
F1440407457.826504
sg4
(dp758
(g6
I3
tp759
(I14891
I14844
tp760
s(g9
I7
tp761
(I15117
I14650
tp762
s(g12
I6
tp763
(I15077
I14441
tp764
s(g6
I5
tp765
(I15002
I14947
tp766
s(g12
I4
tp767
(I15087
I14439
tp768
s(g9
I2
tp769
(I15098
I14605
tp770
ssba(iSample
Sample
p771
(dp772
g3
F1440407463.992127
sg4
(dp773
(g6
I3
tp774
(I14937
I14890
tp775
s(g9
I7
tp776
(I15163
I14696
tp777
s(g12
I6
tp778
(I15122
I14486
tp779
s(g6
I5
tp780
(I15048
I14993
tp781
s(g12
I4
tp782
(I15132
I14482
tp783
s(g9
I2
tp784
(I15144
I14648
tp785
ssba(iSample
Sample
p786
(dp787
g3
F1440407470.090337
sg4
(dp788
(g6
I3
tp789
(I14982
I14935
tp790
s(g9
I7
tp791
(I15207
I14738
tp792
s(g12
I6
tp793
(I15167
I14531
tp794
s(g6
I5
tp795
(I15093
I15038
tp796
s(g12
I4
tp797
(I15177
I14525
tp798
s(g9
I2
tp799
(I15188
I14689
tp800
ssba(iSample
Sample
p801
(dp802
g3
F1440407476.164467
sg4
(dp803
(g6
I3
tp804
(I15027
I14980
tp805
s(g9
I7
tp806
(I15252
I14782
tp807
s(g12
I6
tp808
(I15211
I14572
tp809
s(g6
I5
tp810
(I15138
I15082
tp811
s(g12
I4
tp812
(I15221
I14569
tp813
s(g9
I2
tp814
(I15233
I14733
tp815
ssba(iSample
Sample
p816
(dp817
g3
F1440407482.130256
sg4
(dp818
(g6
I3
tp819
(I15072
I15025
tp820
s(g9
I7
tp821
(I15298
I14825
tp822
s(g12
I6
tp823
(I15257
I14618
tp824
s(g6
I5
tp825
(I15183
I15127
tp826
s(g12
I4
tp827
(I15267
I14613
tp828
s(g9
I2
tp829
(I15279
I14777
tp830
ssba(iSample
Sample
p831
(dp832
g3
F1440407488.28638
sg4
(dp833
(g6
I3
tp834
(I15117
I15070
tp835
s(g9
I7
tp836
(I15343
I14867
tp837
s(g12
I6
tp838
(I15303
I14661
tp839
s(g6
I5
tp840
(I15228
I15172
tp841
s(g12
I4
tp842
(I15313
I14658
tp843
s(g9
I2
tp844
(I15324
I14822
tp845
ssba(iSample
Sample
p846
(dp847
g3
F1440407494.547073
sg4
(dp848
(g6
I3
tp849
(I15163
I15116
tp850
s(g9
I7
tp851
(I15389
I14908
tp852
s(g12
I6
tp853
(I15349
I14705
tp854
s(g6
I5
tp855
(I15274
I15218
tp856
s(g12
I4
tp857
(I15359
I14701
tp858
s(g9
I2
tp859
(I15370
I14864
tp860
ssba(iSample
Sample
p861
(dp862
g3
F1440407500.759785
sg4
(dp863
(g6
I3
tp864
(I15209
I15162
tp865
s(g9
I7
tp866
(I15435
I14948
tp867
s(g12
I6
tp868
(I15395
I14750
tp869
s(g6
I5
tp870
(I15320
I15264
tp871
s(g12
I4
tp872
(I15405
I14745
tp873
s(g9
I2
tp874
(I15416
I14908
tp875
ssba(iSample
Sample
p876
(dp877
g3
F1440407506.964864
sg4
(dp878
(g6
I3
tp879
(I15255
I15208
tp880
s(g9
I7
tp881
(I15481
I14990
tp882
s(g12
I6
tp883
(I15442
I14797
tp884
s(g6
I5
tp885
(I15366
I15310
tp886
s(g12
I4
tp887
(I15452
I14790
tp888
s(g9
I2
tp889
(I15462
I14951
tp890
ssba(iSample
Sample
p891
(dp892
g3
F1440407513.267721
sg4
(dp893
(g6
I3
tp894
(I15302
I15255
tp895
s(g9
I7
tp896
(I15531
I15034
tp897
s(g12
I6
tp898
(I15491
I14843
tp899
s(g6
I5
tp900
(I15413
I15357
tp901
s(g12
I4
tp902
(I15501
I14838
tp903
s(g9
I2
tp904
(I15512
I14994
tp905
ssba.