(lp0
(iSample
Sample
p1
(dp2
S'moteRSSI'
p3
(dp4
S'85d2'
p5
I-66
ssS'timeStamp'
p6
F1440509485.363874
sS'moteData'
p7
(dp8
(g5
I4
tp9
(I1369
I1353
tp10
s(g5
I5
tp11
(I1382
I1356
tp12
ssba(iSample
Sample
p13
(dp14
g3
(dp15
g5
I-54
ssg6
F1440509487.881589
sg7
(dp16
(g5
I4
tp17
(I1388
I1372
tp18
s(g5
I5
tp19
(I1401
I1375
tp20
ssba(iSample
Sample
p21
(dp22
g3
(dp23
g5
I-64
ssg6
F1440509490.345471
sg7
(dp24
(g5
I4
tp25
(I1406
I1390
tp26
s(g5
I5
tp27
(I1419
I1392
tp28
ssba(iSample
Sample
p29
(dp30
g3
(dp31
g5
I-44
ssg6
F1440509492.736316
sg7
(dp32
(g5
I4
tp33
(I1424
I1408
tp34
s(g5
I5
tp35
(I1437
I1410
tp36
ssba(iSample
Sample
p37
(dp38
g3
(dp39
g5
I-56
ssg6
F1440509495.193176
sg7
(dp40
(g5
I4
tp41
(I1442
I1426
tp42
s(g5
I5
tp43
(I1455
I1428
tp44
ssba(iSample
Sample
p45
(dp46
g3
(dp47
g5
I-57
ssg6
F1440509497.59872
sg7
(dp48
(g5
I4
tp49
(I1460
I1444
tp50
s(g5
I5
tp51
(I1473
I1446
tp52
ssba(iSample
Sample
p53
(dp54
g3
(dp55
g5
I-46
ssg6
F1440509500.060043
sg7
(dp56
(g5
I4
tp57
(I1479
I1463
tp58
s(g5
I5
tp59
(I1492
I1465
tp60
ssba(iSample
Sample
p61
(dp62
g3
(dp63
g5
I-66
ssg6
F1440509502.624841
sg7
(dp64
(g5
I4
tp65
(I1497
I1481
tp66
s(g5
I5
tp67
(I1510
I1483
tp68
ssba(iSample
Sample
p69
(dp70
g3
(dp71
g5
I-47
ssg6
F1440509505.033919
sg7
(dp72
(g5
I4
tp73
(I1515
I1499
tp74
s(g5
I5
tp75
(I1528
I1501
tp76
ssba(iSample
Sample
p77
(dp78
g3
(dp79
g5
I-48
ssg6
F1440509507.464229
sg7
(dp80
(g5
I4
tp81
(I1534
I1517
tp82
s(g5
I5
tp83
(I1547
I1518
tp84
ssba(iSample
Sample
p85
(dp86
g3
(dp87
g5
I-60
ssg6
F1440509510.022719
sg7
(dp88
(g5
I4
tp89
(I1552
I1535
tp90
s(g5
I5
tp91
(I1565
I1536
tp92
ssba(iSample
Sample
p93
(dp94
g3
(dp95
g5
I-69
ssg6
F1440509512.463078
sg7
(dp96
(g5
I4
tp97
(I1570
I1552
tp98
s(g5
I5
tp99
(I1583
I1553
tp100
ssba(iSample
Sample
p101
(dp102
g3
(dp103
g5
I-49
ssg6
F1440509514.910533
sg7
(dp104
(g5
I4
tp105
(I1588
I1570
tp106
s(g5
I5
tp107
(I1601
I1571
tp108
ssba(iSample
Sample
p109
(dp110
g3
(dp111
g5
I-54
ssg6
F1440509517.320185
sg7
(dp112
(g5
I4
tp113
(I1606
I1588
tp114
s(g5
I5
tp115
(I1619
I1589
tp116
ssba(iSample
Sample
p117
(dp118
g3
(dp119
g5
I-54
ssg6
F1440509519.773426
sg7
(dp120
(g5
I4
tp121
(I1624
I1606
tp122
s(g5
I5
tp123
(I1637
I1607
tp124
ssba(iSample
Sample
p125
(dp126
g3
(dp127
g5
I-56
ssg6
F1440509522.183755
sg7
(dp128
(g5
I4
tp129
(I1642
I1624
tp130
s(g5
I5
tp131
(I1655
I1625
tp132
ssba(iSample
Sample
p133
(dp134
g3
(dp135
g5
I-59
ssg6
F1440509524.636387
sg7
(dp136
(g5
I4
tp137
(I1660
I1642
tp138
s(g5
I5
tp139
(I1673
I1642
tp140
ssba(iSample
Sample
p141
(dp142
g3
(dp143
g5
I-61
ssg6
F1440509527.047709
sg7
(dp144
(g5
I4
tp145
(I1678
I1660
tp146
s(g5
I5
tp147
(I1691
I1660
tp148
ssba(iSample
Sample
p149
(dp150
g3
(dp151
g5
I-54
ssg6
F1440509529.533039
sg7
(dp152
(g5
I4
tp153
(I1696
I1678
tp154
s(g5
I5
tp155
(I1709
I1678
tp156
ssba(iSample
Sample
p157
(dp158
g3
(dp159
g5
I-55
ssg6
F1440509531.934566
sg7
(dp160
(g5
I4
tp161
(I1714
I1696
tp162
s(g5
I5
tp163
(I1727
I1696
tp164
ssba(iSample
Sample
p165
(dp166
g3
(dp167
g5
I-59
ssg6
F1440509534.324714
sg7
(dp168
(g5
I4
tp169
(I1732
I1714
tp170
s(g5
I5
tp171
(I1745
I1714
tp172
ssba(iSample
Sample
p173
(dp174
g3
(dp175
g5
I-63
ssg6
F1440509536.76817
sg7
(dp176
(g5
I4
tp177
(I1750
I1732
tp178
s(g5
I5
tp179
(I1763
I1732
tp180
ssba(iSample
Sample
p181
(dp182
g3
(dp183
g5
I-54
ssg6
F1440509539.235882
sg7
(dp184
(g5
I4
tp185
(I1768
I1750
tp186
s(g5
I5
tp187
(I1781
I1750
tp188
ssba(iSample
Sample
p189
(dp190
g3
(dp191
g5
I-50
ssg6
F1440509541.639795
sg7
(dp192
(g5
I4
tp193
(I1786
I1768
tp194
s(g5
I5
tp195
(I1799
I1768
tp196
ssba(iSample
Sample
p197
(dp198
g3
(dp199
g5
I-48
ssg6
F1440509544.059543
sg7
(dp200
(g5
I4
tp201
(I1804
I1786
tp202
s(g5
I5
tp203
(I1817
I1786
tp204
ssba(iSample
Sample
p205
(dp206
g3
(dp207
g5
I-48
ssg6
F1440509546.507621
sg7
(dp208
(g5
I4
tp209
(I1822
I1804
tp210
s(g5
I5
tp211
(I1835
I1804
tp212
ssba(iSample
Sample
p213
(dp214
g3
(dp215
g5
I-51
ssg6
F1440509548.967981
sg7
(dp216
(g5
I4
tp217
(I1840
I1822
tp218
s(g5
I5
tp219
(I1853
I1822
tp220
ssba(iSample
Sample
p221
(dp222
g3
(dp223
g5
I-47
ssg6
F1440509551.386259
sg7
(dp224
(g5
I4
tp225
(I1858
I1840
tp226
s(g5
I5
tp227
(I1871
I1840
tp228
ssba(iSample
Sample
p229
(dp230
g3
(dp231
g5
I-46
ssg6
F1440509553.866383
sg7
(dp232
(g5
I4
tp233
(I1876
I1858
tp234
s(g5
I5
tp235
(I1889
I1858
tp236
ssba(iSample
Sample
p237
(dp238
g3
(dp239
g5
I-54
ssg6
F1440509556.25577
sg7
(dp240
(g5
I4
tp241
(I1894
I1876
tp242
s(g5
I5
tp243
(I1907
I1876
tp244
ssba(iSample
Sample
p245
(dp246
g3
(dp247
g5
I-49
ssg6
F1440509558.677084
sg7
(dp248
(g5
I4
tp249
(I1912
I1894
tp250
s(g5
I5
tp251
(I1925
I1894
tp252
ssba(iSample
Sample
p253
(dp254
g3
(dp255
g5
I-48
ssg6
F1440509561.081641
sg7
(dp256
(g5
I4
tp257
(I1930
I1912
tp258
s(g5
I5
tp259
(I1943
I1912
tp260
ssba(iSample
Sample
p261
(dp262
g3
(dp263
g5
I-48
ssg6
F1440509563.57619
sg7
(dp264
(g5
I4
tp265
(I1948
I1930
tp266
s(g5
I5
tp267
(I1961
I1930
tp268
ssba(iSample
Sample
p269
(dp270
g3
(dp271
g5
I-48
ssg6
F1440509565.932921
sg7
(dp272
(g5
I4
tp273
(I1966
I1948
tp274
s(g5
I5
tp275
(I1979
I1948
tp276
ssba(iSample
Sample
p277
(dp278
g3
(dp279
g5
I-47
ssg6
F1440509568.397064
sg7
(dp280
(g5
I4
tp281
(I1984
I1966
tp282
s(g5
I5
tp283
(I1997
I1966
tp284
ssba(iSample
Sample
p285
(dp286
g3
(dp287
g5
I-50
ssg6
F1440509570.852612
sg7
(dp288
(g5
I4
tp289
(I2002
I1984
tp290
s(g5
I5
tp291
(I2015
I1984
tp292
ssba(iSample
Sample
p293
(dp294
g3
(dp295
g5
I-54
ssg6
F1440509573.314331
sg7
(dp296
(g5
I4
tp297
(I2020
I2002
tp298
s(g5
I5
tp299
(I2033
I2002
tp300
ssba(iSample
Sample
p301
(dp302
g3
(dp303
g5
I-49
ssg6
F1440509575.682232
sg7
(dp304
(g5
I4
tp305
(I2038
I2020
tp306
s(g5
I5
tp307
(I2051
I2020
tp308
ssba(iSample
Sample
p309
(dp310
g3
(dp311
g5
I-51
ssg6
F1440509578.074458
sg7
(dp312
(g5
I4
tp313
(I2056
I2038
tp314
s(g5
I5
tp315
(I2069
I2038
tp316
ssba(iSample
Sample
p317
(dp318
g3
(dp319
g5
I-55
ssg6
F1440509580.519539
sg7
(dp320
(g5
I4
tp321
(I2074
I2056
tp322
s(g5
I5
tp323
(I2087
I2056
tp324
ssba(iSample
Sample
p325
(dp326
g3
(dp327
g5
I-54
ssg6
F1440509582.956665
sg7
(dp328
(g5
I4
tp329
(I2092
I2074
tp330
s(g5
I5
tp331
(I2105
I2074
tp332
ssba(iSample
Sample
p333
(dp334
g3
(dp335
g5
I-50
ssg6
F1440509585.418713
sg7
(dp336
(g5
I4
tp337
(I2110
I2092
tp338
s(g5
I5
tp339
(I2123
I2092
tp340
ssba(iSample
Sample
p341
(dp342
g3
(dp343
g5
I-48
ssg6
F1440509587.821453
sg7
(dp344
(g5
I4
tp345
(I2128
I2110
tp346
s(g5
I5
tp347
(I2141
I2110
tp348
ssba(iSample
Sample
p349
(dp350
g3
(dp351
g5
I-52
ssg6
F1440509590.30435
sg7
(dp352
(g5
I4
tp353
(I2146
I2128
tp354
s(g5
I5
tp355
(I2159
I2128
tp356
ssba(iSample
Sample
p357
(dp358
g3
(dp359
g5
I-53
ssg6
F1440509592.755518
sg7
(dp360
(g5
I4
tp361
(I2164
I2146
tp362
s(g5
I5
tp363
(I2177
I2146
tp364
ssba(iSample
Sample
p365
(dp366
g3
(dp367
g5
I-48
ssg6
F1440509595.137375
sg7
(dp368
(g5
I4
tp369
(I2182
I2164
tp370
s(g5
I5
tp371
(I2195
I2164
tp372
ssba(iSample
Sample
p373
(dp374
g3
(dp375
g5
I-47
ssg6
F1440509597.539947
sg7
(dp376
(g5
I4
tp377
(I2200
I2182
tp378
s(g5
I5
tp379
(I2213
I2182
tp380
ssba(iSample
Sample
p381
(dp382
g3
(dp383
g5
I-51
ssg6
F1440509599.99071
sg7
(dp384
(g5
I4
tp385
(I2218
I2200
tp386
s(g5
I5
tp387
(I2231
I2200
tp388
ssba(iSample
Sample
p389
(dp390
g3
(dp391
g5
I-48
ssg6
F1440509602.392156
sg7
(dp392
(g5
I4
tp393
(I2236
I2218
tp394
s(g5
I5
tp395
(I2249
I2218
tp396
ssba(iSample
Sample
p397
(dp398
g3
(dp399
g5
I-48
ssg6
F1440509604.863272
sg7
(dp400
(g5
I4
tp401
(I2254
I2236
tp402
s(g5
I5
tp403
(I2267
I2236
tp404
ssba(iSample
Sample
p405
(dp406
g3
(dp407
g5
I-45
ssg6
F1440509607.277114
sg7
(dp408
(g5
I4
tp409
(I2272
I2254
tp410
s(g5
I5
tp411
(I2285
I2254
tp412
ssba(iSample
Sample
p413
(dp414
g3
(dp415
g5
I-50
ssg6
F1440509609.717982
sg7
(dp416
(g5
I4
tp417
(I2290
I2272
tp418
s(g5
I5
tp419
(I2303
I2272
tp420
ssba(iSample
Sample
p421
(dp422
g3
(dp423
g5
I-48
ssg6
F1440509612.153326
sg7
(dp424
(g5
I4
tp425
(I2308
I2290
tp426
s(g5
I5
tp427
(I2321
I2290
tp428
ssba(iSample
Sample
p429
(dp430
g3
(dp431
g5
I-48
ssg6
F1440509614.593291
sg7
(dp432
(g5
I4
tp433
(I2326
I2308
tp434
s(g5
I5
tp435
(I2339
I2308
tp436
ssba(iSample
Sample
p437
(dp438
g3
(dp439
g5
I-47
ssg6
F1440509616.997966
sg7
(dp440
(g5
I4
tp441
(I2344
I2326
tp442
s(g5
I5
tp443
(I2357
I2326
tp444
ssba(iSample
Sample
p445
(dp446
g3
(dp447
g5
I-49
ssg6
F1440509619.443448
sg7
(dp448
(g5
I4
tp449
(I2362
I2344
tp450
s(g5
I5
tp451
(I2375
I2344
tp452
ssba(iSample
Sample
p453
(dp454
g3
(dp455
g5
I-51
ssg6
F1440509621.863911
sg7
(dp456
(g5
I4
tp457
(I2380
I2362
tp458
s(g5
I5
tp459
(I2393
I2362
tp460
ssba(iSample
Sample
p461
(dp462
g3
(dp463
g5
I-52
ssg6
F1440509624.294977
sg7
(dp464
(g5
I4
tp465
(I2398
I2380
tp466
s(g5
I5
tp467
(I2411
I2380
tp468
ssba(iSample
Sample
p469
(dp470
g3
(dp471
g5
I-48
ssg6
F1440509626.702266
sg7
(dp472
(g5
I4
tp473
(I2416
I2398
tp474
s(g5
I5
tp475
(I2429
I2398
tp476
ssba(iSample
Sample
p477
(dp478
g3
(dp479
g5
I-52
ssg6
F1440509629.171282
sg7
(dp480
(g5
I4
tp481
(I2434
I2416
tp482
s(g5
I5
tp483
(I2447
I2416
tp484
ssba.