(lp0
(iSample
Sample
p1
(dp2
S'timeStamp'
p3
F1440679144.754599
sS'moteSignal'
p4
(dp5
S'85d2'
p6
(I-56
I107
tp7
ssS'moteData'
p8
(dp9
(g6
I4
tp10
(I23
I20
tp11
s(g6
I6
tp12
(I41
I37
tp13
ssba(iSample
Sample
p14
(dp15
g3
F1440679148.204242
sg4
(dp16
g6
(I-56
I108
tp17
ssg8
(dp18
(g6
I4
tp19
(I49
I44
tp20
s(g6
I6
tp21
(I67
I63
tp22
ssba(iSample
Sample
p23
(dp24
g3
F1440679151.605364
sg4
(dp25
g6
(I-59
I108
tp26
ssg8
(dp27
(g6
I4
tp28
(I74
I69
tp29
s(g6
I6
tp30
(I92
I86
tp31
ssba(iSample
Sample
p32
(dp33
g3
F1440679155.011929
sg4
(dp34
g6
(I-58
I108
tp35
ssg8
(dp36
(g6
I4
tp37
(I99
I94
tp38
s(g6
I6
tp39
(I117
I111
tp40
ssba(iSample
Sample
p41
(dp42
g3
F1440679158.849574
sg4
(dp43
g6
(I-57
I108
tp44
ssg8
(dp45
(g6
I4
tp46
(I128
I123
tp47
s(g6
I6
tp48
(I146
I139
tp49
ssba(iSample
Sample
p50
(dp51
g3
F1440679162.32398
sg4
(dp52
g6
(I-56
I108
tp53
ssg8
(dp54
(g6
I4
tp55
(I153
I148
tp56
s(g6
I6
tp57
(I171
I162
tp58
ssba(iSample
Sample
p59
(dp60
g3
F1440679165.727119
sg4
(dp61
g6
(I-57
I108
tp62
ssg8
(dp63
(g6
I4
tp64
(I179
I174
tp65
s(g6
I6
tp66
(I197
I187
tp67
ssba(iSample
Sample
p68
(dp69
g3
F1440679169.162899
sg4
(dp70
g6
(I-55
I108
tp71
ssg8
(dp72
(g6
I4
tp73
(I204
I199
tp74
s(g6
I6
tp75
(I222
I212
tp76
ssba(iSample
Sample
p77
(dp78
g3
F1440679172.539419
sg4
(dp79
g6
(I-55
I108
tp80
ssg8
(dp81
(g6
I4
tp82
(I229
I224
tp83
s(g6
I6
tp84
(I247
I236
tp85
ssba(iSample
Sample
p86
(dp87
g3
F1440679175.930191
sg4
(dp88
g6
(I-59
I108
tp89
ssg8
(dp90
(g6
I4
tp91
(I254
I249
tp92
s(g6
I6
tp93
(I272
I260
tp94
ssba(iSample
Sample
p95
(dp96
g3
F1440679179.274086
sg4
(dp97
g6
(I-81
I108
tp98
ssg8
(dp99
(g6
I4
tp100
(I279
I274
tp101
s(g6
I6
tp102
(I297
I282
tp103
ssba(iSample
Sample
p104
(dp105
g3
F1440679182.658244
sg4
(dp106
g6
(I-80
I108
tp107
ssg8
(dp108
(g6
I4
tp109
(I304
I296
tp110
s(g6
I6
tp111
(I322
I304
tp112
ssba(iSample
Sample
p113
(dp114
g3
F1440679186.060393
sg4
(dp115
g6
(I-56
I108
tp116
ssg8
(dp117
(g6
I4
tp118
(I329
I320
tp119
s(g6
I6
tp120
(I347
I327
tp121
ssba(iSample
Sample
p122
(dp123
g3
F1440679189.411278
sg4
(dp124
g6
(I-54
I108
tp125
ssg8
(dp126
(g6
I4
tp127
(I354
I345
tp128
s(g6
I6
tp129
(I372
I352
tp130
ssba(iSample
Sample
p131
(dp132
g3
F1440679192.876684
sg4
(dp133
g6
(I-58
I108
tp134
ssg8
(dp135
(g6
I4
tp136
(I382
I373
tp137
s(g6
I6
tp138
(I400
I380
tp139
ssba(iSample
Sample
p140
(dp141
g3
F1440679196.582606
sg4
(dp142
g6
(I-51
I108
tp143
ssg8
(dp144
(g6
I4
tp145
(I407
I398
tp146
s(g6
I6
tp147
(I425
I405
tp148
ssba(iSample
Sample
p149
(dp150
g3
F1440679199.981274
sg4
(dp151
g6
(I-62
I108
tp152
ssg8
(dp153
(g6
I4
tp154
(I432
I423
tp155
s(g6
I6
tp156
(I450
I430
tp157
ssba(iSample
Sample
p158
(dp159
g3
F1440679203.317481
sg4
(dp160
g6
(I-55
I108
tp161
ssg8
(dp162
(g6
I4
tp163
(I457
I448
tp164
s(g6
I6
tp165
(I475
I455
tp166
ssba(iSample
Sample
p167
(dp168
g3
F1440679206.704834
sg4
(dp169
g6
(I-67
I108
tp170
ssg8
(dp171
(g6
I4
tp172
(I482
I473
tp173
s(g6
I6
tp174
(I500
I480
tp175
ssba(iSample
Sample
p176
(dp177
g3
F1440679210.116291
sg4
(dp178
g6
(I-65
I108
tp179
ssg8
(dp180
(g6
I4
tp181
(I507
I498
tp182
s(g6
I6
tp183
(I525
I505
tp184
ssba(iSample
Sample
p185
(dp186
g3
F1440679213.455076
sg4
(dp187
g6
(I-72
I108
tp188
ssg8
(dp189
(g6
I4
tp190
(I532
I522
tp191
s(g6
I6
tp192
(I550
I526
tp193
ssba(iSample
Sample
p194
(dp195
g3
F1440679216.846009
sg4
(dp196
g6
(I-68
I108
tp197
ssg8
(dp198
(g6
I4
tp199
(I557
I546
tp200
s(g6
I6
tp201
(I575
I550
tp202
ssba(iSample
Sample
p203
(dp204
g3
F1440679220.237105
sg4
(dp205
g6
(I-52
I108
tp206
ssg8
(dp207
(g6
I4
tp208
(I582
I571
tp209
s(g6
I6
tp210
(I600
I574
tp211
ssba(iSample
Sample
p212
(dp213
g3
F1440679223.578642
sg4
(dp214
g6
(I-54
I108
tp215
ssg8
(dp216
(g6
I4
tp217
(I607
I596
tp218
s(g6
I6
tp219
(I625
I599
tp220
ssba(iSample
Sample
p221
(dp222
g3
F1440679227.000685
sg4
(dp223
g6
(I-55
I108
tp224
ssg8
(dp225
(g6
I4
tp226
(I632
I621
tp227
s(g6
I6
tp228
(I650
I624
tp229
ssba(iSample
Sample
p230
(dp231
g3
F1440679230.396697
sg4
(dp232
g6
(I-54
I108
tp233
ssg8
(dp234
(g6
I4
tp235
(I659
I647
tp236
s(g6
I6
tp237
(I677
I651
tp238
ssba(iSample
Sample
p239
(dp240
g3
F1440679233.986761
sg4
(dp241
g6
(I-60
I108
tp242
ssg8
(dp243
(g6
I4
tp244
(I686
I673
tp245
s(g6
I6
tp246
(I704
I676
tp247
ssba(iSample
Sample
p248
(dp249
g3
F1440679237.630457
sg4
(dp250
g6
(I-51
I108
tp251
ssg8
(dp252
(g6
I4
tp253
(I711
I698
tp254
s(g6
I6
tp255
(I729
I701
tp256
ssba(iSample
Sample
p257
(dp258
g3
F1440679241.006314
sg4
(dp259
g6
(I-66
I108
tp260
ssg8
(dp261
(g6
I4
tp262
(I736
I723
tp263
s(g6
I6
tp264
(I754
I726
tp265
ssba(iSample
Sample
p266
(dp267
g3
F1440679244.398411
sg4
(dp268
g6
(I-60
I108
tp269
ssg8
(dp270
(g6
I4
tp271
(I761
I747
tp272
s(g6
I6
tp273
(I779
I751
tp274
ssba(iSample
Sample
p275
(dp276
g3
F1440679247.724279
sg4
(dp277
g6
(I-59
I108
tp278
ssg8
(dp279
(g6
I4
tp280
(I786
I770
tp281
s(g6
I6
tp282
(I804
I775
tp283
ssba(iSample
Sample
p284
(dp285
g3
F1440679251.107586
sg4
(dp286
g6
(I-60
I108
tp287
ssg8
(dp288
(g6
I4
tp289
(I811
I794
tp290
s(g6
I6
tp291
(I829
I799
tp292
ssba(iSample
Sample
p293
(dp294
g3
F1440679254.497909
sg4
(dp295
g6
(I-61
I108
tp296
ssg8
(dp297
(g6
I4
tp298
(I836
I817
tp299
s(g6
I6
tp300
(I854
I822
tp301
ssba(iSample
Sample
p302
(dp303
g3
F1440679257.876171
sg4
(dp304
g6
(I-56
I108
tp305
ssg8
(dp306
(g6
I4
tp307
(I861
I841
tp308
s(g6
I6
tp309
(I879
I846
tp310
ssba(iSample
Sample
p311
(dp312
g3
F1440679261.256197
sg4
(dp313
g6
(I-58
I108
tp314
ssg8
(dp315
(g6
I4
tp316
(I886
I865
tp317
s(g6
I6
tp318
(I904
I869
tp319
ssba(iSample
Sample
p320
(dp321
g3
F1440679264.635231
sg4
(dp322
g6
(I-58
I108
tp323
ssg8
(dp324
(g6
I4
tp325
(I911
I890
tp326
s(g6
I6
tp327
(I929
I894
tp328
ssba(iSample
Sample
p329
(dp330
g3
F1440679268.024795
sg4
(dp331
g6
(I-56
I108
tp332
ssg8
(dp333
(g6
I4
tp334
(I936
I914
tp335
s(g6
I6
tp336
(I954
I918
tp337
ssba(iSample
Sample
p338
(dp339
g3
F1440679271.41078
sg4
(dp340
g6
(I-63
I108
tp341
ssg8
(dp342
(g6
I4
tp343
(I961
I938
tp344
s(g6
I6
tp345
(I979
I942
tp346
ssba(iSample
Sample
p347
(dp348
g3
F1440679274.810644
sg4
(dp349
g6
(I-65
I108
tp350
ssg8
(dp351
(g6
I4
tp352
(I986
I961
tp353
s(g6
I6
tp354
(I1004
I966
tp355
ssba(iSample
Sample
p356
(dp357
g3
F1440679278.149716
sg4
(dp358
g6
(I-58
I108
tp359
ssg8
(dp360
(g6
I4
tp361
(I1011
I985
tp362
s(g6
I6
tp363
(I1029
I989
tp364
ssba(iSample
Sample
p365
(dp366
g3
F1440679281.536705
sg4
(dp367
g6
(I-61
I108
tp368
ssg8
(dp369
(g6
I4
tp370
(I1036
I1009
tp371
s(g6
I6
tp372
(I1054
I1013
tp373
ssba(iSample
Sample
p374
(dp375
g3
F1440679284.927247
sg4
(dp376
g6
(I-55
I107
tp377
ssg8
(dp378
(g6
I4
tp379
(I1061
I1034
tp380
s(g6
I6
tp381
(I1079
I1036
tp382
ssba(iSample
Sample
p383
(dp384
g3
F1440679288.27343
sg4
(dp385
g6
(I-63
I108
tp386
ssg8
(dp387
(g6
I4
tp388
(I1086
I1058
tp389
s(g6
I6
tp390
(I1104
I1060
tp391
ssba(iSample
Sample
p392
(dp393
g3
F1440679291.678666
sg4
(dp394
g6
(I-54
I108
tp395
ssg8
(dp396
(g6
I4
tp397
(I1111
I1082
tp398
s(g6
I6
tp399
(I1129
I1084
tp400
ssba(iSample
Sample
p401
(dp402
g3
F1440679295.017694
sg4
(dp403
g6
(I-69
I108
tp404
ssg8
(dp405
(g6
I4
tp406
(I1136
I1107
tp407
s(g6
I6
tp408
(I1154
I1109
tp409
ssba(iSample
Sample
p410
(dp411
g3
F1440679298.406242
sg4
(dp412
g6
(I-62
I108
tp413
ssg8
(dp414
(g6
I4
tp415
(I1161
I1132
tp416
s(g6
I6
tp417
(I1179
I1134
tp418
ssba(iSample
Sample
p419
(dp420
g3
F1440679301.800319
sg4
(dp421
g6
(I-61
I108
tp422
ssg8
(dp423
(g6
I4
tp424
(I1186
I1157
tp425
s(g6
I6
tp426
(I1204
I1158
tp427
ssba(iSample
Sample
p428
(dp429
g3
F1440679305.139302
sg4
(dp430
g6
(I-61
I108
tp431
ssg8
(dp432
(g6
I4
tp433
(I1211
I1182
tp434
s(g6
I6
tp435
(I1229
I1183
tp436
ssba(iSample
Sample
p437
(dp438
g3
F1440679308.535633
sg4
(dp439
g6
(I-62
I108
tp440
ssg8
(dp441
(g6
I4
tp442
(I1236
I1207
tp443
s(g6
I6
tp444
(I1254
I1208
tp445
ssba(iSample
Sample
p446
(dp447
g3
F1440679311.936448
sg4
(dp448
g6
(I-56
I108
tp449
ssg8
(dp450
(g6
I4
tp451
(I1261
I1232
tp452
s(g6
I6
tp453
(I1279
I1233
tp454
ssba(iSample
Sample
p455
(dp456
g3
F1440679315.292476
sg4
(dp457
g6
(I-58
I108
tp458
ssg8
(dp459
(g6
I4
tp460
(I1286
I1257
tp461
s(g6
I6
tp462
(I1304
I1258
tp463
ssba(iSample
Sample
p464
(dp465
g3
F1440679318.709612
sg4
(dp466
g6
(I-57
I108
tp467
ssg8
(dp468
(g6
I4
tp469
(I1311
I1282
tp470
s(g6
I6
tp471
(I1329
I1283
tp472
ssba(iSample
Sample
p473
(dp474
g3
F1440679322.071986
sg4
(dp475
g6
(I-56
I108
tp476
ssg8
(dp477
(g6
I4
tp478
(I1336
I1306
tp479
s(g6
I6
tp480
(I1354
I1307
tp481
ssba(iSample
Sample
p482
(dp483
g3
F1440679325.425824
sg4
(dp484
g6
(I-63
I108
tp485
ssg8
(dp486
(g6
I4
tp487
(I1361
I1330
tp488
s(g6
I6
tp489
(I1379
I1330
tp490
ssba(iSample
Sample
p491
(dp492
g3
F1440679328.811864
sg4
(dp493
g6
(I-63
I108
tp494
ssg8
(dp495
(g6
I4
tp496
(I1386
I1355
tp497
s(g6
I6
tp498
(I1404
I1354
tp499
ssba(iSample
Sample
p500
(dp501
g3
F1440679332.200939
sg4
(dp502
g6
(I-58
I108
tp503
ssg8
(dp504
(g6
I4
tp505
(I1411
I1380
tp506
s(g6
I6
tp507
(I1429
I1379
tp508
ssba(iSample
Sample
p509
(dp510
g3
F1440679335.540462
sg4
(dp511
g6
(I-60
I108
tp512
ssg8
(dp513
(g6
I4
tp514
(I1436
I1405
tp515
s(g6
I6
tp516
(I1454
I1403
tp517
ssba(iSample
Sample
p518
(dp519
g3
F1440679338.919698
sg4
(dp520
g6
(I-55
I108
tp521
ssg8
(dp522
(g6
I4
tp523
(I1461
I1430
tp524
s(g6
I6
tp525
(I1479
I1428
tp526
ssba(iSample
Sample
p527
(dp528
g3
F1440679342.301141
sg4
(dp529
g6
(I-62
I108
tp530
ssg8
(dp531
(g6
I4
tp532
(I1486
I1455
tp533
s(g6
I6
tp534
(I1504
I1453
tp535
ssba(iSample
Sample
p536
(dp537
g3
F1440679345.69142
sg4
(dp538
g6
(I-54
I108
tp539
ssg8
(dp540
(g6
I4
tp541
(I1511
I1480
tp542
s(g6
I6
tp543
(I1529
I1478
tp544
ssba(iSample
Sample
p545
(dp546
g3
F1440679349.054072
sg4
(dp547
g6
(I-63
I108
tp548
ssg8
(dp549
(g6
I4
tp550
(I1536
I1505
tp551
s(g6
I6
tp552
(I1554
I1503
tp553
ssba(iSample
Sample
p554
(dp555
g3
F1440679352.438507
sg4
(dp556
g6
(I-63
I108
tp557
ssg8
(dp558
(g6
I4
tp559
(I1562
I1531
tp560
s(g6
I6
tp561
(I1580
I1528
tp562
ssba(iSample
Sample
p563
(dp564
g3
F1440679355.92017
sg4
(dp565
g6
(I-56
I107
tp566
ssg8
(dp567
(g6
I4
tp568
(I1587
I1555
tp569
s(g6
I6
tp570
(I1605
I1553
tp571
ssba(iSample
Sample
p572
(dp573
g3
F1440679359.334249
sg4
(dp574
g6
(I-60
I108
tp575
ssg8
(dp576
(g6
I4
tp577
(I1612
I1580
tp578
s(g6
I6
tp579
(I1630
I1578
tp580
ssba(iSample
Sample
p581
(dp582
g3
F1440679362.674639
sg4
(dp583
g6
(I-54
I108
tp584
ssg8
(dp585
(g6
I4
tp586
(I1637
I1605
tp587
s(g6
I6
tp588
(I1655
I1603
tp589
ssba(iSample
Sample
p590
(dp591
g3
F1440679366.057248
sg4
(dp592
g6
(I-60
I108
tp593
ssg8
(dp594
(g6
I4
tp595
(I1662
I1630
tp596
s(g6
I6
tp597
(I1680
I1628
tp598
ssba(iSample
Sample
p599
(dp600
g3
F1440679369.44452
sg4
(dp601
g6
(I-54
I108
tp602
ssg8
(dp603
(g6
I4
tp604
(I1687
I1655
tp605
s(g6
I6
tp606
(I1705
I1653
tp607
ssba(iSample
Sample
p608
(dp609
g3
F1440679372.845921
sg4
(dp610
g6
(I-61
I108
tp611
ssg8
(dp612
(g6
I4
tp613
(I1713
I1681
tp614
s(g6
I6
tp615
(I1731
I1679
tp616
ssba(iSample
Sample
p617
(dp618
g3
F1440679376.328249
sg4
(dp619
g6
(I-65
I108
tp620
ssg8
(dp621
(g6
I4
tp622
(I1738
I1706
tp623
s(g6
I6
tp624
(I1756
I1704
tp625
ssba(iSample
Sample
p626
(dp627
g3
F1440679379.71506
sg4
(dp628
g6
(I-56
I108
tp629
ssg8
(dp630
(g6
I4
tp631
(I1763
I1731
tp632
s(g6
I6
tp633
(I1781
I1729
tp634
ssba(iSample
Sample
p635
(dp636
g3
F1440679383.129282
sg4
(dp637
g6
(I-60
I108
tp638
ssg8
(dp639
(g6
I4
tp640
(I1788
I1756
tp641
s(g6
I6
tp642
(I1806
I1754
tp643
ssba(iSample
Sample
p644
(dp645
g3
F1440679386.460806
sg4
(dp646
g6
(I-54
I108
tp647
ssg8
(dp648
(g6
I4
tp649
(I1815
I1783
tp650
s(g6
I6
tp651
(I1833
I1781
tp652
ssba(iSample
Sample
p653
(dp654
g3
F1440679390.098558
sg4
(dp655
g6
(I-64
I108
tp656
ssg8
(dp657
(g6
I4
tp658
(I1840
I1808
tp659
s(g6
I6
tp660
(I1858
I1806
tp661
ssba(iSample
Sample
p662
(dp663
g3
F1440679393.47906
sg4
(dp664
g6
(I-59
I108
tp665
ssg8
(dp666
(g6
I4
tp667
(I1865
I1833
tp668
s(g6
I6
tp669
(I1883
I1831
tp670
ssba(iSample
Sample
p671
(dp672
g3
F1440679396.87376
sg4
(dp673
g6
(I-58
I108
tp674
ssg8
(dp675
(g6
I4
tp676
(I1892
I1860
tp677
s(g6
I6
tp678
(I1910
I1858
tp679
ssba(iSample
Sample
p680
(dp681
g3
F1440679400.509509
sg4
(dp682
g6
(I-57
I108
tp683
ssg8
(dp684
(g6
I4
tp685
(I1917
I1885
tp686
s(g6
I6
tp687
(I1935
I1883
tp688
ssba(iSample
Sample
p689
(dp690
g3
F1440679403.895195
sg4
(dp691
g6
(I-55
I108
tp692
ssg8
(dp693
(g6
I4
tp694
(I1942
I1910
tp695
s(g6
I6
tp696
(I1960
I1908
tp697
ssba(iSample
Sample
p698
(dp699
g3
F1440679407.283486
sg4
(dp700
g6
(I-59
I108
tp701
ssg8
(dp702
(g6
I4
tp703
(I1967
I1935
tp704
s(g6
I6
tp705
(I1985
I1933
tp706
ssba(iSample
Sample
p707
(dp708
g3
F1440679410.621948
sg4
(dp709
g6
(I-54
I108
tp710
ssg8
(dp711
(g6
I4
tp712
(I1992
I1960
tp713
s(g6
I6
tp714
(I2010
I1958
tp715
ssba(iSample
Sample
p716
(dp717
g3
F1440679414.019718
sg4
(dp718
g6
(I-60
I108
tp719
ssg8
(dp720
(g6
I4
tp721
(I2017
I1985
tp722
s(g6
I6
tp723
(I2035
I1983
tp724
ssba(iSample
Sample
p725
(dp726
g3
F1440679417.405152
sg4
(dp727
g6
(I-66
I108
tp728
ssg8
(dp729
(g6
I4
tp730
(I2042
I2010
tp731
s(g6
I6
tp732
(I2060
I2008
tp733
ssba(iSample
Sample
p734
(dp735
g3
F1440679420.750685
sg4
(dp736
g6
(I-55
I108
tp737
ssg8
(dp738
(g6
I4
tp739
(I2067
I2035
tp740
s(g6
I6
tp741
(I2085
I2032
tp742
ssba(iSample
Sample
p743
(dp744
g3
F1440679424.132792
sg4
(dp745
g6
(I-59
I108
tp746
ssg8
(dp747
(g6
I4
tp748
(I2092
I2060
tp749
s(g6
I6
tp750
(I2110
I2057
tp751
ssba(iSample
Sample
p752
(dp753
g3
F1440679427.513502
sg4
(dp754
g6
(I-54
I108
tp755
ssg8
(dp756
(g6
I4
tp757
(I2119
I2087
tp758
s(g6
I6
tp759
(I2137
I2084
tp760
ssba(iSample
Sample
p761
(dp762
g3
F1440679431.150096
sg4
(dp763
g6
(I-65
I108
tp764
ssg8
(dp765
(g6
I4
tp766
(I2144
I2112
tp767
s(g6
I6
tp768
(I2162
I2109
tp769
ssba(iSample
Sample
p770
(dp771
g3
F1440679434.534902
sg4
(dp772
g6
(I-61
I108
tp773
ssg8
(dp774
(g6
I4
tp775
(I2169
I2137
tp776
s(g6
I6
tp777
(I2187
I2134
tp778
ssba(iSample
Sample
p779
(dp780
g3
F1440679437.950163
sg4
(dp781
g6
(I-61
I108
tp782
ssg8
(dp783
(g6
I4
tp784
(I2194
I2162
tp785
s(g6
I6
tp786
(I2212
I2159
tp787
ssba(iSample
Sample
p788
(dp789
g3
F1440679441.307662
sg4
(dp790
g6
(I-57
I108
tp791
ssg8
(dp792
(g6
I4
tp793
(I2221
I2189
tp794
s(g6
I6
tp795
(I2239
I2185
tp796
ssba(iSample
Sample
p797
(dp798
g3
F1440679444.98413
sg4
(dp799
g6
(I-64
I108
tp800
ssg8
(dp801
(g6
I4
tp802
(I2246
I2214
tp803
s(g6
I6
tp804
(I2264
I2210
tp805
ssba(iSample
Sample
p806
(dp807
g3
F1440679448.327693
sg4
(dp808
g6
(I-59
I108
tp809
ssg8
(dp810
(g6
I4
tp811
(I2271
I2239
tp812
s(g6
I6
tp813
(I2289
I2235
tp814
ssba.