(lp0
(iSample
Sample
p1
(dp2
S'moteIp'
p3
S'bbbb::12:4b00:60d:8031'
p4
sS'timeStamp'
p5
F1441373195.043992
sS'moteData'
p6
(dp7
I8
(I629
I629
I-34
I241
tp8
sI9
(I631
I630
I-34
I242
tp9
sI10
(I631
I630
I-34
I242
tp10
sI11
(I632
I631
I-34
I241
tp11
sI12
(I631
I631
I-34
I241
tp12
sI13
(I631
I631
I-34
I241
tp13
sI14
(I631
I631
I-34
I241
tp14
sI15
(I630
I630
I-34
I241
tp15
ssba(iSample
Sample
p16
(dp17
g3
S'bbbb::12:4b00:60d:8031'
p18
sg5
F1441373197.071616
sg6
(dp19
I0
(I638
I637
I-36
I241
tp20
sI1
(I638
I638
I-36
I241
tp21
sI2
(I640
I637
I-36
I241
tp22
sI3
(I635
I635
I-36
I241
tp23
sI4
(I637
I637
I-35
I241
tp24
sI5
(I637
I636
I-35
I241
tp25
sI6
(I636
I636
I-35
I241
tp26
sI7
(I636
I635
I-34
I241
tp27
ssba(iSample
Sample
p28
(dp29
g3
S'bbbb::12:4b00:60d:8031'
p30
sg5
F1441373199.095413
sg6
(dp31
I8
(I641
I641
I-33
I241
tp32
sI9
(I642
I641
I-33
I240
tp33
sI10
(I643
I642
I-33
I240
tp34
sI11
(I642
I641
I-33
I241
tp35
sI12
(I643
I643
I-33
I241
tp36
sI13
(I642
I642
I-34
I236
tp37
sI14
(I642
I642
I-34
I242
tp38
sI15
(I641
I641
I-34
I239
tp39
ssba(iSample
Sample
p40
(dp41
g3
S'bbbb::12:4b00:60d:8031'
p42
sg5
F1441373201.122399
sg6
(dp43
I0
(I650
I649
I-35
I241
tp44
sI1
(I649
I649
I-35
I240
tp45
sI2
(I651
I648
I-35
I242
tp46
sI3
(I646
I646
I-35
I239
tp47
sI4
(I648
I648
I-34
I241
tp48
sI5
(I649
I648
I-33
I242
tp49
sI6
(I648
I648
I-34
I242
tp50
sI7
(I647
I646
I-34
I242
tp51
ssba(iSample
Sample
p52
(dp53
g3
S'bbbb::12:4b00:60d:8031'
p54
sg5
F1441373203.012722
sg6
(dp55
I8
(I652
I652
I-33
I242
tp56
sI9
(I653
I652
I-33
I241
tp57
sI10
(I655
I654
I-33
I241
tp58
sI11
(I654
I653
I-33
I241
tp59
sI12
(I654
I654
I-33
I241
tp60
sI13
(I653
I653
I-34
I242
tp61
sI14
(I654
I654
I-34
I241
tp62
sI15
(I652
I652
I-34
I242
tp63
ssba(iSample
Sample
p64
(dp65
g3
S'bbbb::12:4b00:60d:8031'
p66
sg5
F1441373205.03869
sg6
(dp67
I0
(I660
I659
I-35
I242
tp68
sI1
(I659
I659
I-35
I241
tp69
sI2
(I662
I659
I-35
I242
tp70
sI3
(I658
I658
I-35
I242
tp71
sI4
(I659
I659
I-34
I241
tp72
sI5
(I660
I659
I-33
I242
tp73
sI6
(I659
I659
I-34
I242
tp74
sI7
(I658
I657
I-34
I242
tp75
ssba(iSample
Sample
p76
(dp77
g3
S'bbbb::12:4b00:60d:8031'
p78
sg5
F1441373207.064909
sg6
(dp79
I8
(I663
I663
I-34
I242
tp80
sI9
(I665
I664
I-34
I242
tp81
sI10
(I665
I664
I-33
I239
tp82
sI11
(I665
I664
I-33
I242
tp83
sI12
(I665
I665
I-33
I241
tp84
sI13
(I664
I664
I-34
I242
tp85
sI14
(I665
I665
I-34
I242
tp86
sI15
(I664
I664
I-34
I242
tp87
ssba(iSample
Sample
p88
(dp89
g3
S'bbbb::12:4b00:60d:8031'
p90
sg5
F1441373209.090229
sg6
(dp91
I0
(I672
I671
I-36
I242
tp92
sI1
(I670
I670
I-37
I242
tp93
sI2
(I674
I671
I-38
I241
tp94
sI3
(I669
I669
I-37
I242
tp95
sI4
(I670
I670
I-36
I241
tp96
sI5
(I671
I670
I-35
I240
tp97
sI6
(I670
I670
I-37
I242
tp98
sI7
(I669
I668
I-36
I242
tp99
ssba(iSample
Sample
p100
(dp101
g3
S'bbbb::12:4b00:60d:8031'
p102
sg5
F1441373211.115797
sg6
(dp103
I8
(I674
I674
I-35
I242
tp104
sI9
(I675
I674
I-36
I242
tp105
sI10
(I676
I675
I-36
I242
tp106
sI11
(I676
I675
I-35
I240
tp107
sI12
(I677
I677
I-35
I242
tp108
sI13
(I675
I675
I-35
I241
tp109
sI14
(I676
I676
I-35
I242
tp110
sI15
(I675
I675
I-34
I241
tp111
ssba(iSample
Sample
p112
(dp113
g3
S'bbbb::12:4b00:60d:8031'
p114
sg5
F1441373213.141915
sg6
(dp115
I0
(I684
I683
I-36
I242
tp116
sI1
(I682
I682
I-36
I242
tp117
sI2
(I685
I682
I-36
I242
tp118
sI3
(I680
I680
I-35
I242
tp119
sI4
(I681
I681
I-35
I241
tp120
sI5
(I683
I682
I-35
I242
tp121
sI6
(I681
I681
I-35
I240
tp122
sI7
(I680
I679
I-35
I241
tp123
ssba(iSample
Sample
p124
(dp125
g3
S'bbbb::12:4b00:60d:8031'
p126
sg5
F1441373215.16759
sg6
(dp127
I8
(I685
I685
I-34
I241
tp128
sI9
(I687
I686
I-34
I242
tp129
sI10
(I687
I686
I-34
I242
tp130
sI11
(I688
I687
I-34
I242
tp131
sI12
(I688
I688
I-35
I242
tp132
sI13
(I686
I686
I-35
I238
tp133
sI14
(I687
I687
I-34
I242
tp134
sI15
(I686
I686
I-34
I241
tp135
ssba(iSample
Sample
p136
(dp137
g3
S'bbbb::12:4b00:60d:8031'
p138
sg5
F1441373217.192943
sg6
(dp139
I0
(I695
I694
I-36
I239
tp140
sI1
(I693
I693
I-36
I240
tp141
sI2
(I696
I693
I-36
I241
tp142
sI3
(I691
I691
I-36
I240
tp143
sI4
(I693
I693
I-35
I239
tp144
sI5
(I694
I693
I-34
I242
tp145
sI6
(I692
I692
I-34
I242
tp146
sI7
(I691
I690
I-34
I242
tp147
ssba(iSample
Sample
p148
(dp149
g3
S'bbbb::12:4b00:60d:8031'
p150
sg5
F1441373219.219416
sg6
(dp151
I8
(I696
I696
I-34
I242
tp152
sI9
(I699
I698
I-34
I241
tp153
sI10
(I699
I698
I-34
I241
tp154
sI11
(I699
I698
I-34
I242
tp155
sI12
(I699
I699
I-35
I242
tp156
sI13
(I698
I698
I-35
I241
tp157
sI14
(I698
I698
I-35
I242
tp158
sI15
(I697
I697
I-34
I242
tp159
ssba(iSample
Sample
p160
(dp161
g3
S'bbbb::12:4b00:60d:8031'
p162
sg5
F1441373221.245725
sg6
(dp163
I0
(I706
I705
I-42
I240
tp164
sI1
(I704
I704
I-38
I240
tp165
sI2
(I706
I703
I-39
I241
tp166
sI3
(I702
I702
I-40
I242
tp167
sI4
(I706
I706
I-40
I241
tp168
sI5
(I705
I704
I-39
I241
tp169
sI6
(I703
I703
I-36
I241
tp170
sI7
(I703
I702
I-38
I242
tp171
ssba(iSample
Sample
p172
(dp173
g3
S'bbbb::12:4b00:60d:8031'
p174
sg5
F1441373223.271019
sg6
(dp175
I8
(I707
I707
I-48
I239
tp176
sI9
(I710
I709
I-53
I237
tp177
sI10
(I710
I709
I-50
I238
tp178
sI11
(I710
I709
I-51
I237
tp179
sI12
(I709
I709
I-50
I237
tp180
sI13
(I711
I711
I-52
I238
tp181
sI14
(I709
I709
I-49
I237
tp182
sI15
(I708
I708
I-50
I236
tp183
ssba(iSample
Sample
p184
(dp185
g3
S'bbbb::12:4b00:60d:8031'
p186
sg5
F1441373225.296476
sg6
(dp187
I0
(I716
I715
I-59
I238
tp188
sI1
(I716
I716
I-59
I240
tp189
sI2
(I718
I715
I-60
I240
tp190
sI3
(I713
I712
I-61
I237
tp191
sI4
(I717
I717
I-62
I240
tp192
sI5
(I716
I715
I-63
I238
tp193
sI6
(I715
I715
I-63
I236
tp194
sI7
(I715
I714
I-61
I238
tp195
ssba(iSample
Sample
p196
(dp197
g3
S'bbbb::12:4b00:60d:8031'
p198
sg5
F1441373227.187526
sg6
(dp199
I8
(I719
I719
I-52
I239
tp200
sI9
(I720
I719
I-53
I237
tp201
sI10
(I721
I720
I-53
I237
tp202
sI11
(I721
I720
I-52
I238
tp203
sI12
(I721
I721
I-55
I238
tp204
sI13
(I722
I722
I-51
I242
tp205
sI14
(I720
I720
I-55
I240
tp206
sI15
(I719
I719
I-55
I240
tp207
ssba(iSample
Sample
p208
(dp209
g3
S'bbbb::12:4b00:60d:8031'
p210
sg5
F1441373229.212883
sg6
(dp211
I0
(I728
I727
I-43
I242
tp212
sI1
(I727
I727
I-42
I242
tp213
sI2
(I729
I726
I-45
I241
tp214
sI3
(I724
I722
I-45
I241
tp215
sI4
(I727
I727
I-44
I239
tp216
sI5
(I727
I726
I-43
I238
tp217
sI6
(I727
I727
I-43
I241
tp218
sI7
(I726
I725
I-41
I242
tp219
ssba(iSample
Sample
p220
(dp221
g3
S'bbbb::12:4b00:60d:8031'
p222
sg5
F1441373231.23897
sg6
(dp223
I8
(I731
I731
I-37
I240
tp224
sI9
(I731
I730
I-37
I242
tp225
sI10
(I733
I732
I-37
I242
tp226
sI11
(I732
I731
I-37
I242
tp227
sI12
(I732
I732
I-38
I242
tp228
sI13
(I732
I732
I-38
I242
tp229
sI14
(I732
I732
I-37
I241
tp230
sI15
(I730
I730
I-37
I242
tp231
ssba(iSample
Sample
p232
(dp233
g3
S'bbbb::12:4b00:60d:8031'
p234
sg5
F1441373233.264416
sg6
(dp235
I0
(I739
I738
I-38
I242
tp236
sI1
(I738
I738
I-39
I241
tp237
sI2
(I740
I737
I-39
I241
tp238
sI3
(I736
I734
I-39
I241
tp239
sI4
(I738
I738
I-38
I242
tp240
sI5
(I738
I737
I-37
I241
tp241
sI6
(I737
I737
I-38
I242
tp242
sI7
(I736
I735
I-38
I241
tp243
ssba(iSample
Sample
p244
(dp245
g3
S'bbbb::12:4b00:60d:8031'
p246
sg5
F1441373235.290026
sg6
(dp247
I8
(I741
I741
I-37
I242
tp248
sI9
(I743
I742
I-37
I241
tp249
sI10
(I744
I743
I-37
I242
tp250
sI11
(I743
I742
I-37
I242
tp251
sI12
(I743
I743
I-37
I241
tp252
sI13
(I743
I743
I-37
I242
tp253
sI14
(I743
I743
I-37
I241
tp254
sI15
(I742
I742
I-37
I241
tp255
ssba(iSample
Sample
p256
(dp257
g3
S'bbbb::12:4b00:60d:8031'
p258
sg5
F1441373237.316483
sg6
(dp259
I0
(I750
I749
I-38
I241
tp260
sI1
(I749
I749
I-39
I242
tp261
sI2
(I752
I749
I-39
I242
tp262
sI3
(I747
I745
I-39
I241
tp263
sI4
(I750
I750
I-38
I242
tp264
sI5
(I749
I748
I-37
I242
tp265
sI6
(I748
I748
I-38
I242
tp266
sI7
(I747
I746
I-38
I242
tp267
ssba(iSample
Sample
p268
(dp269
g3
S'bbbb::12:4b00:60d:8031'
p270
sg5
F1441373239.341016
sg6
(dp271
I8
(I752
I752
I-37
I241
tp272
sI9
(I754
I753
I-37
I242
tp273
sI10
(I755
I754
I-37
I242
tp274
sI11
(I754
I753
I-37
I242
tp275
sI12
(I755
I755
I-37
I242
tp276
sI13
(I755
I755
I-37
I242
tp277
sI14
(I754
I754
I-37
I242
tp278
sI15
(I753
I753
I-37
I242
tp279
ssba(iSample
Sample
p280
(dp281
g3
S'bbbb::12:4b00:60d:8031'
p282
sg5
F1441373243.394062
sg6
(dp283
I8
(I763
I763
I-38
I242
tp284
sI9
(I765
I764
I-38
I242
tp285
sI10
(I765
I764
I-38
I241
tp286
sI11
(I766
I765
I-38
I242
tp287
sI12
(I766
I766
I-39
I241
tp288
sI13
(I766
I766
I-38
I241
tp289
sI14
(I765
I765
I-38
I242
tp290
sI15
(I764
I764
I-38
I242
tp291
ssba(iSample
Sample
p292
(dp293
g3
S'bbbb::12:4b00:60d:8031'
p294
sg5
F1441373245.419864
sg6
(dp295
I0
(I773
I772
I-44
I242
tp296
sI1
(I771
I771
I-43
I242
tp297
sI2
(I774
I771
I-44
I240
tp298
sI3
(I769
I767
I-41
I227
tp299
sI4
(I772
I772
I-40
I241
tp300
sI5
(I774
I773
I-44
I241
tp301
sI6
(I771
I771
I-45
I239
tp302
sI7
(I770
I769
I-42
I241
tp303
ssba(iSample
Sample
p304
(dp305
g3
S'bbbb::12:4b00:60d:8031'
p306
sg5
F1441373247.445838
sg6
(dp307
I8
(I775
I775
I-52
I239
tp308
sI9
(I777
I776
I-53
I242
tp309
sI10
(I777
I776
I-55
I239
tp310
sI11
(I779
I777
I-57
I241
tp311
sI12
(I777
I777
I-61
I240
tp312
sI13
(I777
I777
I-52
I240
tp313
sI14
(I776
I776
I-52
I240
tp314
sI15
(I775
I775
I-53
I240
tp315
ssba(iSample
Sample
p316
(dp317
g3
S'bbbb::12:4b00:60d:8031'
p318
sg5
F1441373249.470992
sg6
(dp319
I0
(I784
I779
I-64
I237
tp320
sI1
(I782
I779
I-63
I240
tp321
sI2
(I785
I777
I-60
I234
tp322
sI3
(I780
I776
I-61
I241
tp323
sI4
(I784
I784
I-59
I240
tp324
sI5
(I785
I784
I-62
I241
tp325
sI6
(I782
I782
I-61
I240
tp326
sI7
(I781
I780
I-60
I235
tp327
ssba(iSample
Sample
p328
(dp329
g3
S'bbbb::12:4b00:60d:8031'
p330
sg5
F1441373251.362359
sg6
(dp331
I8
(I785
I785
I-61
I238
tp332
sI9
(I788
I787
I-59
I238
tp333
sI10
(I788
I787
I-61
I239
tp334
sI11
(I790
I788
I-60
I237
tp335
sI12
(I788
I788
I-63
I238
tp336
sI13
(I789
I789
I-65
I240
tp337
sI14
(I788
I788
I-68
I242
tp338
sI15
(I786
I786
I-66
I241
tp339
ssba(iSample
Sample
p340
(dp341
g3
S'bbbb::12:4b00:60d:8031'
p342
sg5
F1441373253.388264
sg6
(dp343
I0
(I795
I786
I-66
I242
tp344
sI1
(I794
I789
I-63
I237
tp345
sI2
(I796
I782
I-63
I206
tp346
sI3
(I792
I781
I-65
I232
tp347
sI4
(I795
I794
I-71
I241
tp348
sI5
(I795
I794
I-67
I238
tp349
sI6
(I793
I793
I-70
I227
tp350
sI7
(I793
I792
I-66
I232
tp351
ssba(iSample
Sample
p352
(dp353
g3
S'bbbb::12:4b00:60d:8031'
p354
sg5
F1441373255.412943
sg6
(dp355
I8
(I797
I797
I-68
I236
tp356
sI9
(I799
I798
I-66
I237
tp357
sI10
(I799
I798
I-64
I240
tp358
sI11
(I800
I798
I-62
I239
tp359
sI12
(I799
I799
I-61
I241
tp360
sI13
(I800
I800
I-61
I236
tp361
sI14
(I798
I798
I-61
I239
tp362
sI15
(I798
I798
I-64
I237
tp363
ssba(iSample
Sample
p364
(dp365
g3
S'bbbb::12:4b00:60d:8031'
p366
sg5
F1441373257.439452
sg6
(dp367
I0
(I806
I795
I-66
I194
tp368
sI1
(I806
I801
I-64
I226
tp369
sI2
(I807
I790
I-67
I209
tp370
sI3
(I802
I786
I-64
I239
tp371
sI4
(I806
I805
I-65
I240
tp372
sI5
(I806
I805
I-66
I235
tp373
sI6
(I805
I805
I-67
I241
tp374
sI7
(I804
I803
I-68
I237
tp375
ssba(iSample
Sample
p376
(dp377
g3
S'bbbb::12:4b00:60d:8031'
p378
sg5
F1441373259.465415
sg6
(dp379
I8
(I809
I809
I-68
I239
tp380
sI9
(I810
I809
I-67
I235
tp381
sI10
(I811
I810
I-67
I240
tp382
sI11
(I811
I809
I-66
I238
tp383
sI12
(I810
I810
I-64
I240
tp384
sI13
(I811
I811
I-63
I240
tp385
sI14
(I810
I810
I-62
I240
tp386
sI15
(I808
I808
I-63
I237
tp387
ssba(iSample
Sample
p388
(dp389
g3
S'bbbb::12:4b00:60d:8031'
p390
sg5
F1441373261.491779
sg6
(dp391
I0
(I817
I806
I-64
I220
tp392
sI1
(I816
I811
I-64
I233
tp393
sI2
(I818
I799
I-66
I226
tp394
sI3
(I814
I795
I-69
I241
tp395
sI4
(I817
I816
I-70
I241
tp396
sI5
(I818
I817
I-74
I239
tp397
sI6
(I816
I816
I-74
I223
tp398
sI7
(I815
I814
I-67
I237
tp399
ssba(iSample
Sample
p400
(dp401
g3
S'bbbb::12:4b00:60d:8031'
p402
sg5
F1441373263.51545
sg6
(dp403
I8
(I820
I820
I-65
I236
tp404
sI9
(I821
I820
I-65
I240
tp405
sI10
(I822
I821
I-66
I238
tp406
sI11
(I823
I821
I-65
I240
tp407
sI12
(I821
I821
I-65
I242
tp408
sI13
(I822
I822
I-63
I240
tp409
sI14
(I822
I822
I-62
I239
tp410
sI15
(I820
I820
I-63
I238
tp411
ssba(iSample
Sample
p412
(dp413
g3
S'bbbb::12:4b00:60d:8031'
p414
sg5
F1441373265.542489
sg6
(dp415
I0
(I828
I817
I-63
I231
tp416
sI1
(I827
I821
I-64
I225
tp417
sI2
(I830
I809
I-66
I218
tp418
sI3
(I826
I803
I-67
I226
tp419
sI4
(I828
I827
I-70
I238
tp420
sI5
(I829
I828
I-74
I241
tp421
sI6
(I827
I827
I-71
I242
tp422
sI7
(I826
I825
I-66
I236
tp423
ssba(iSample
Sample
p424
(dp425
g3
S'bbbb::12:4b00:60d:8031'
p426
sg5
F1441373267.568378
sg6
(dp427
I8
(I831
I831
I-66
I240
tp428
sI9
(I832
I831
I-66
I236
tp429
sI10
(I833
I832
I-66
I238
tp430
sI11
(I834
I832
I-64
I238
tp431
sI12
(I833
I833
I-64
I239
tp432
sI13
(I833
I833
I-62
I237
tp433
sI14
(I833
I833
I-62
I240
tp434
sI15
(I832
I832
I-63
I240
tp435
ssba(iSample
Sample
p436
(dp437
g3
S'bbbb::12:4b00:60d:8031'
p438
sg5
F1441373269.593531
sg6
(dp439
I0
(I840
I829
I-63
I238
tp440
sI1
(I838
I832
I-63
I231
tp441
sI2
(I843
I819
I-64
I228
tp442
sI3
(I837
I812
I-66
I224
tp443
sI4
(I839
I838
I-67
I240
tp444
sI5
(I840
I839
I-67
I237
tp445
sI6
(I837
I837
I-70
I241
tp446
sI7
(I837
I836
I-71
I236
tp447
ssba(iSample
Sample
p448
(dp449
g3
S'bbbb::12:4b00:60d:8031'
p450
sg5
F1441373271.619078
sg6
(dp451
I8
(I841
I841
I-75
I238
tp452
sI9
(I843
I842
I-69
I234
tp453
sI10
(I844
I843
I-67
I238
tp454
sI11
(I845
I843
I-63
I236
tp455
sI12
(I846
I846
I-62
I238
tp456
sI13
(I844
I844
I-60
I234
tp457
sI14
(I844
I844
I-60
I237
tp458
sI15
(I843
I843
I-60
I236
tp459
ssba(iSample
Sample
p460
(dp461
g3
S'bbbb::12:4b00:60d:8031'
p462
sg5
F1441373273.645795
sg6
(dp463
I0
(I852
I841
I-61
I228
tp464
sI1
(I850
I844
I-60
I236
tp465
sI2
(I854
I829
I-62
I215
tp466
sI3
(I847
I822
I-63
I237
tp467
sI4
(I850
I849
I-64
I239
tp468
sI5
(I852
I851
I-64
I238
tp469
sI6
(I849
I849
I-69
I238
tp470
sI7
(I848
I846
I-76
I220
tp471
ssba(iSample
Sample
p472
(dp473
g3
S'bbbb::12:4b00:60d:8031'
p474
sg5
F1441373275.536772
sg6
(dp475
I8
(I853
I853
I-65
I234
tp476
sI9
(I855
I854
I-61
I238
tp477
sI10
(I855
I854
I-61
I238
tp478
sI11
(I857
I855
I-59
I233
tp479
sI12
(I857
I857
I-57
I236
tp480
sI13
(I855
I855
I-57
I236
tp481
sI14
(I854
I854
I-57
I238
tp482
sI15
(I853
I853
I-58
I238
tp483
ssba(iSample
Sample
p484
(dp485
g3
S'bbbb::12:4b00:60d:8031'
p486
sg5
F1441373277.562508
sg6
(dp487
I0
(I863
I852
I-61
I236
tp488
sI1
(I860
I854
I-59
I236
tp489
sI2
(I864
I839
I-60
I233
tp490
sI3
(I858
I832
I-61
I237
tp491
sI4
(I862
I861
I-61
I237
tp492
sI5
(I863
I862
I-60
I238
tp493
sI6
(I860
I860
I-62
I230
tp494
sI7
(I859
I857
I-71
I240
tp495
ssba(iSample
Sample
p496
(dp497
g3
S'bbbb::12:4b00:60d:8031'
p498
sg5
F1441373279.588078
sg6
(dp499
I8
(I864
I864
I-67
I237
tp500
sI9
(I867
I866
I-63
I237
tp501
sI10
(I867
I866
I-63
I236
tp502
sI11
(I868
I866
I-61
I237
tp503
sI12
(I867
I867
I-59
I238
tp504
sI13
(I867
I867
I-58
I239
tp505
sI14
(I866
I866
I-58
I239
tp506
sI15
(I864
I864
I-59
I236
tp507
ssba(iSample
Sample
p508
(dp509
g3
S'bbbb::12:4b00:60d:8031'
p510
sg5
F1441373281.614148
sg6
(dp511
I0
(I873
I858
I-63
I204
tp512
sI1
(I872
I862
I-63
I221
tp513
sI2
(I875
I844
I-61
I232
tp514
sI3
(I870
I841
I-63
I199
tp515
sI4
(I874
I873
I-65
I238
tp516
sI5
(I874
I873
I-69
I237
tp517
sI6
(I871
I871
I-70
I237
tp518
sI7
(I871
I869
I-69
I237
tp519
ssba(iSample
Sample
p520
(dp521
g3
S'bbbb::12:4b00:60d:8031'
p522
sg5
F1441373283.640286
sg6
(dp523
I8
(I875
I875
I-60
I236
tp524
sI9
(I877
I876
I-60
I238
tp525
sI10
(I877
I876
I-61
I239
tp526
sI11
(I879
I877
I-60
I237
tp527
sI12
(I878
I878
I-63
I238
tp528
sI13
(I878
I878
I-63
I237
tp529
sI14
(I877
I877
I-65
I238
tp530
sI15
(I876
I876
I-63
I238
tp531
ssba(iSample
Sample
p532
(dp533
g3
S'bbbb::12:4b00:60d:8031'
p534
sg5
F1441373285.665273
sg6
(dp535
I0
(I884
I869
I-59
I235
tp536
sI1
(I884
I872
I-60
I214
tp537
sI2
(I887
I852
I-61
I232
tp538
sI3
(I881
I849
I-62
I231
tp539
sI4
(I884
I883
I-66
I238
tp540
sI5
(I885
I884
I-70
I238
tp541
sI6
(I883
I882
I-73
I241
tp542
sI7
(I882
I880
I-65
I237
tp543
ssba(iSample
Sample
p544
(dp545
g3
S'bbbb::12:4b00:60d:8031'
p546
sg5
F1441373287.691599
sg6
(dp547
I8
(I887
I887
I-61
I238
tp548
sI9
(I888
I887
I-59
I232
tp549
sI10
(I889
I888
I-61
I239
tp550
sI11
(I890
I888
I-63
I238
tp551
sI12
(I890
I890
I-66
I241
tp552
sI13
(I889
I889
I-66
I241
tp553
sI14
(I888
I888
I-66
I241
tp554
sI15
(I887
I887
I-64
I241
tp555
ssba(iSample
Sample
p556
(dp557
g3
S'bbbb::12:4b00:60d:8031'
p558
sg5
F1441373289.716751
sg6
(dp559
I0
(I896
I880
I-60
I235
tp560
sI1
(I895
I882
I-62
I219
tp561
sI2
(I898
I859
I-64
I191
tp562
sI3
(I892
I858
I-65
I238
tp563
sI4
(I895
I894
I-65
I238
tp564
sI5
(I896
I895
I-67
I238
tp565
sI6
(I894
I893
I-73
I242
tp566
sI7
(I893
I891
I-66
I237
tp567
ssba(iSample
Sample
p568
(dp569
g3
S'bbbb::12:4b00:60d:8031'
p570
sg5
F1441373291.742709
sg6
(dp571
I8
(I898
I898
I-62
I235
tp572
sI9
(I899
I898
I-61
I236
tp573
sI10
(I901
I900
I-61
I241
tp574
sI11
(I901
I899
I-63
I242
tp575
sI12
(I901
I901
I-68
I242
tp576
sI13
(I900
I900
I-70
I241
tp577
sI14
(I900
I900
I-70
I241
tp578
sI15
(I898
I898
I-68
I240
tp579
ssba(iSample
Sample
p580
(dp581
g3
S'bbbb::12:4b00:60d:8031'
p582
sg5
F1441373293.768068
sg6
(dp583
I0
(I907
I891
I-59
I240
tp584
sI1
(I906
I892
I-61
I234
tp585
sI2
(I909
I869
I-64
I238
tp586
sI3
(I904
I869
I-63
I227
tp587
sI4
(I906
I905
I-63
I240
tp588
sI5
(I907
I906
I-64
I236
tp589
sI6
(I905
I904
I-70
I238
tp590
sI7
(I904
I902
I-66
I240
tp591
ssba(iSample
Sample
p592
(dp593
g3
S'bbbb::12:4b00:60d:8031'
p594
sg5
F1441373295.794527
sg6
(dp595
I8
(I909
I909
I-62
I237
tp596
sI9
(I911
I910
I-60
I239
tp597
sI10
(I912
I911
I-60
I238
tp598
sI11
(I912
I910
I-63
I240
tp599
sI12
(I912
I912
I-66
I240
tp600
sI13
(I911
I911
I-68
I242
tp601
sI14
(I912
I912
I-68
I242
tp602
sI15
(I910
I910
I-66
I239
tp603
ssba.