(lp0
(iSample
Sample
p1
(dp2
S'moteIp'
p3
S'85d2'
p4
sS'timeStamp'
p5
F1441196688.35178
sS'moteData'
p6
(dp7
I8
(I1227
I1204
I-51
I241
tp8
sI9
(I1228
I1207
I-52
I230
tp9
sI10
(I1227
I1178
I-55
I236
tp10
sI11
(I1230
I1212
I-64
I242
tp11
sI12
(I1227
I1217
I-72
I242
tp12
sI13
(I1228
I1225
I-65
I242
tp13
sI14
(I1226
I1225
I-57
I234
tp14
sI15
(I1225
I1222
I-54
I234
tp15
ssba(iSample
Sample
p16
(dp17
g3
S'85d2'
p18
sg5
F1441196690.378434
sg6
(dp19
I0
(I1230
I1224
I-43
I242
tp20
sI1
(I1231
I1220
I-44
I242
tp21
sI2
(I1227
I1211
I-44
I242
tp22
sI3
(I1231
I1202
I-46
I242
tp23
sI4
(I1232
I1219
I-48
I242
tp24
sI5
(I1234
I1223
I-50
I242
tp25
sI6
(I1232
I1222
I-49
I242
tp26
sI7
(I1232
I1221
I-49
I239
tp27
ssba(iSample
Sample
p28
(dp29
g3
S'85d2'
p30
sg5
F1441196692.40387
sg6
(dp31
I8
(I1235
I1212
I-54
I238
tp32
sI9
(I1235
I1214
I-56
I242
tp33
sI10
(I1235
I1186
I-65
I242
tp34
sI11
(I1237
I1219
I-59
I231
tp35
sI12
(I1234
I1224
I-60
I242
tp36
sI13
(I1236
I1233
I-53
I239
tp37
sI14
(I1234
I1233
I-52
I239
tp38
sI15
(I1233
I1230
I-58
I235
tp39
ssba(iSample
Sample
p40
(dp41
g3
S'85d2'
p42
sg5
F1441196694.399486
sg6
(dp43
I0
(I1237
I1231
I-43
I242
tp44
sI1
(I1239
I1228
I-44
I242
tp45
sI2
(I1235
I1219
I-45
I242
tp46
sI3
(I1239
I1210
I-47
I233
tp47
sI4
(I1239
I1226
I-49
I242
tp48
sI5
(I1241
I1230
I-52
I228
tp49
sI6
(I1239
I1229
I-52
I241
tp50
sI7
(I1240
I1229
I-54
I236
tp51
ssba(iSample
Sample
p52
(dp53
g3
S'85d2'
p54
sg5
F1441196696.425352
sg6
(dp55
I8
(I1242
I1219
I-56
I233
tp56
sI9
(I1242
I1221
I-60
I241
tp57
sI10
(I1242
I1193
I-68
I242
tp58
sI11
(I1244
I1226
I-58
I239
tp59
sI12
(I1243
I1233
I-53
I239
tp60
sI13
(I1243
I1240
I-53
I232
tp61
sI14
(I1242
I1241
I-52
I238
tp62
sI15
(I1241
I1238
I-53
I242
tp63
ssba(iSample
Sample
p64
(dp65
g3
S'85d2'
p66
sg5
F1441196698.450401
sg6
(dp67
I0
(I1246
I1240
I-43
I242
tp68
sI1
(I1247
I1236
I-43
I242
tp69
sI2
(I1243
I1227
I-44
I242
tp70
sI3
(I1247
I1218
I-46
I242
tp71
sI4
(I1246
I1233
I-48
I242
tp72
sI5
(I1248
I1237
I-50
I242
tp73
sI6
(I1247
I1237
I-50
I240
tp74
sI7
(I1247
I1236
I-53
I241
tp75
ssba(iSample
Sample
p76
(dp77
g3
S'85d2'
p78
sg5
F1441196700.431112
sg6
(dp79
I8
(I1250
I1227
I-61
I239
tp80
sI9
(I1249
I1228
I-62
I241
tp81
sI10
(I1250
I1200
I-63
I241
tp82
sI11
(I1251
I1233
I-57
I239
tp83
sI12
(I1251
I1241
I-53
I239
tp84
sI13
(I1250
I1247
I-52
I240
tp85
sI14
(I1249
I1248
I-52
I236
tp86
sI15
(I1249
I1245
I-52
I242
tp87
ssba(iSample
Sample
p88
(dp89
g3
S'85d2'
p90
sg5
F1441196702.457931
sg6
(dp91
I0
(I1254
I1248
I-44
I242
tp92
sI1
(I1254
I1243
I-45
I242
tp93
sI2
(I1250
I1234
I-45
I242
tp94
sI3
(I1254
I1225
I-49
I239
tp95
sI4
(I1253
I1240
I-50
I242
tp96
sI5
(I1257
I1246
I-54
I242
tp97
sI6
(I1254
I1244
I-54
I240
tp98
sI7
(I1254
I1243
I-55
I233
tp99
ssba(iSample
Sample
p100
(dp101
g3
S'85d2'
p102
sg5
F1441196704.483634
sg6
(dp103
I8
(I1257
I1234
I-61
I241
tp104
sI9
(I1257
I1236
I-63
I239
tp105
sI10
(I1258
I1208
I-59
I233
tp106
sI11
(I1259
I1241
I-54
I241
tp107
sI12
(I1258
I1248
I-53
I232
tp108
sI13
(I1257
I1254
I-53
I232
tp109
sI14
(I1257
I1256
I-52
I242
tp110
sI15
(I1256
I1253
I-52
I233
tp111
ssba(iSample
Sample
p112
(dp113
g3
S'85d2'
p114
sg5
F1441196706.509295
sg6
(dp115
I0
(I1261
I1255
I-48
I242
tp116
sI1
(I1260
I1249
I-49
I236
tp117
sI2
(I1258
I1242
I-56
I240
tp118
sI3
(I1262
I1232
I-55
I241
tp119
sI4
(I1261
I1248
I-56
I233
tp120
sI5
(I1265
I1254
I-55
I242
tp121
sI6
(I1261
I1251
I-54
I238
tp122
sI7
(I1261
I1250
I-57
I242
tp123
ssba(iSample
Sample
p124
(dp125
g3
S'85d2'
p126
sg5
F1441196708.535204
sg6
(dp127
I8
(I1264
I1241
I-54
I233
tp128
sI9
(I1265
I1244
I-53
I235
tp129
sI10
(I1264
I1214
I-56
I242
tp130
sI11
(I1267
I1249
I-54
I238
tp131
sI12
(I1266
I1256
I-54
I242
tp132
sI13
(I1265
I1262
I-54
I242
tp133
sI14
(I1264
I1263
I-54
I242
tp134
sI15
(I1264
I1261
I-58
I239
tp135
ssba(iSample
Sample
p136
(dp137
g3
S'85d2'
p138
sg5
F1441196710.500897
sg6
(dp139
I0
(I1269
I1263
I-46
I242
tp140
sI1
(I1268
I1257
I-45
I242
tp141
sI2
(I1266
I1250
I-45
I242
tp142
sI3
(I1269
I1239
I-46
I242
tp143
sI4
(I1269
I1256
I-48
I242
tp144
sI5
(I1272
I1261
I-51
I242
tp145
sI6
(I1268
I1258
I-52
I235
tp146
sI7
(I1269
I1258
I-54
I242
tp147
ssba(iSample
Sample
p148
(dp149
g3
S'85d2'
p150
sg5
F1441196712.525851
sg6
(dp151
I8
(I1271
I1248
I-54
I236
tp152
sI9
(I1272
I1250
I-54
I236
tp153
sI10
(I1271
I1221
I-53
I241
tp154
sI11
(I1274
I1256
I-53
I235
tp155
sI12
(I1274
I1264
I-54
I241
tp156
sI13
(I1273
I1270
I-56
I239
tp157
sI14
(I1271
I1270
I-56
I239
tp158
sI15
(I1271
I1268
I-59
I236
tp159
ssba(iSample
Sample
p160
(dp161
g3
S'85d2'
p162
sg5
F1441196714.55237
sg6
(dp163
I0
(I1277
I1271
I-45
I242
tp164
sI1
(I1276
I1265
I-45
I242
tp165
sI2
(I1273
I1257
I-45
I242
tp166
sI3
(I1276
I1246
I-46
I242
tp167
sI4
(I1276
I1263
I-48
I242
tp168
sI5
(I1280
I1269
I-51
I242
tp169
sI6
(I1276
I1266
I-52
I239
tp170
sI7
(I1277
I1266
I-54
I239
tp171
ssba(iSample
Sample
p172
(dp173
g3
S'85d2'
p174
sg5
F1441196716.578129
sg6
(dp175
I8
(I1279
I1256
I-54
I242
tp176
sI9
(I1280
I1258
I-54
I237
tp177
sI10
(I1279
I1229
I-53
I242
tp178
sI11
(I1282
I1264
I-54
I242
tp179
sI12
(I1281
I1271
I-55
I242
tp180
sI13
(I1280
I1277
I-57
I239
tp181
sI14
(I1278
I1277
I-57
I238
tp182
sI15
(I1278
I1275
I-58
I238
tp183
ssba(iSample
Sample
p184
(dp185
g3
S'85d2'
p186
sg5
F1441196718.5737
sg6
(dp187
I0
(I1284
I1278
I-45
I242
tp188
sI1
(I1284
I1273
I-45
I242
tp189
sI2
(I1280
I1264
I-45
I242
tp190
sI3
(I1283
I1253
I-46
I242
tp191
sI4
(I1284
I1271
I-48
I242
tp192
sI5
(I1287
I1276
I-50
I242
tp193
sI6
(I1284
I1274
I-51
I241
tp194
sI7
(I1284
I1273
I-53
I232
tp195
ssba(iSample
Sample
p196
(dp197
g3
S'85d2'
p198
sg5
F1441196720.599374
sg6
(dp199
I8
(I1287
I1264
I-53
I236
tp200
sI9
(I1288
I1265
I-52
I235
tp201
sI10
(I1287
I1237
I-53
I242
tp202
sI11
(I1289
I1271
I-54
I231
tp203
sI12
(I1288
I1278
I-55
I239
tp204
sI13
(I1288
I1285
I-56
I241
tp205
sI14
(I1286
I1285
I-56
I242
tp206
sI15
(I1285
I1282
I-57
I239
tp207
ssba(iSample
Sample
p208
(dp209
g3
S'85d2'
p210
sg5
F1441196722.625473
sg6
(dp211
I0
(I1290
I1284
I-46
I242
tp212
sI1
(I1291
I1280
I-45
I242
tp213
sI2
(I1287
I1271
I-45
I242
tp214
sI3
(I1292
I1262
I-46
I242
tp215
sI4
(I1292
I1279
I-48
I241
tp216
sI5
(I1294
I1283
I-50
I242
tp217
sI6
(I1291
I1281
I-51
I242
tp218
sI7
(I1292
I1281
I-53
I241
tp219
ssba(iSample
Sample
p220
(dp221
g3
S'85d2'
p222
sg5
F1441196724.606164
sg6
(dp223
I8
(I1294
I1271
I-53
I228
tp224
sI9
(I1295
I1272
I-53
I242
tp225
sI10
(I1295
I1243
I-53
I242
tp226
sI11
(I1296
I1278
I-54
I237
tp227
sI12
(I1295
I1285
I-55
I241
tp228
sI13
(I1296
I1293
I-56
I242
tp229
sI14
(I1294
I1293
I-55
I242
tp230
sI15
(I1294
I1291
I-58
I242
tp231
ssba(iSample
Sample
p232
(dp233
g3
S'85d2'
p234
sg5
F1441196726.631328
sg6
(dp235
I0
(I1298
I1292
I-46
I242
tp236
sI1
(I1299
I1288
I-45
I242
tp237
sI2
(I1296
I1280
I-45
I242
tp238
sI3
(I1300
I1270
I-46
I242
tp239
sI4
(I1299
I1285
I-48
I242
tp240
sI5
(I1301
I1290
I-51
I236
tp241
sI6
(I1299
I1289
I-52
I242
tp242
sI7
(I1300
I1289
I-53
I232
tp243
ssba(iSample
Sample
p244
(dp245
g3
S'85d2'
p246
sg5
F1441196728.657343
sg6
(dp247
I8
(I1302
I1279
I-56
I228
tp248
sI9
(I1301
I1278
I-53
I234
tp249
sI10
(I1302
I1250
I-55
I238
tp250
sI11
(I1303
I1285
I-55
I232
tp251
sI12
(I1303
I1293
I-55
I235
tp252
sI13
(I1302
I1299
I-55
I232
tp253
sI14
(I1301
I1300
I-54
I234
tp254
sI15
(I1302
I1299
I-56
I231
tp255
ssba(iSample
Sample
p256
(dp257
g3
S'85d2'
p258
sg5
F1441196730.683868
sg6
(dp259
I0
(I1306
I1300
I-46
I239
tp260
sI1
(I1306
I1295
I-46
I242
tp261
sI2
(I1304
I1288
I-46
I242
tp262
sI3
(I1307
I1277
I-46
I242
tp263
sI4
(I1305
I1292
I-48
I242
tp264
sI5
(I1309
I1298
I-51
I242
tp265
sI6
(I1307
I1297
I-55
I242
tp266
sI7
(I1306
I1295
I-55
I242
tp267
ssba(iSample
Sample
p268
(dp269
g3
S'85d2'
p270
sg5
F1441196732.70996
sg6
(dp271
I8
(I1310
I1286
I-49
I241
tp272
sI9
(I1309
I1286
I-51
I238
tp273
sI10
(I1310
I1258
I-53
I234
tp274
sI11
(I1311
I1293
I-51
I242
tp275
sI12
(I1311
I1301
I-48
I242
tp276
sI13
(I1309
I1306
I-49
I241
tp277
sI14
(I1309
I1308
I-48
I242
tp278
sI15
(I1309
I1306
I-47
I241
tp279
ssba(iSample
Sample
p280
(dp281
g3
S'85d2'
p282
sg5
F1441196734.734786
sg6
(dp283
I0
(I1314
I1308
I-41
I242
tp284
sI1
(I1313
I1302
I-42
I242
tp285
sI2
(I1311
I1295
I-43
I242
tp286
sI3
(I1315
I1285
I-49
I242
tp287
sI4
(I1313
I1300
I-49
I242
tp288
sI5
(I1317
I1306
I-51
I242
tp289
sI6
(I1313
I1303
I-50
I242
tp290
sI7
(I1313
I1302
I-51
I242
tp291
ssba(iSample
Sample
p292
(dp293
g3
S'85d2'
p294
sg5
F1441196736.700311
sg6
(dp295
I8
(I1316
I1292
I-50
I232
tp296
sI9
(I1317
I1294
I-53
I242
tp297
sI10
(I1317
I1264
I-54
I242
tp298
sI11
(I1319
I1301
I-50
I242
tp299
sI12
(I1318
I1308
I-47
I242
tp300
sI13
(I1317
I1314
I-45
I242
tp301
sI14
(I1316
I1315
I-45
I242
tp302
sI15
(I1317
I1314
I-46
I242
tp303
ssba(iSample
Sample
p304
(dp305
g3
S'85d2'
p306
sg5
F1441196738.726861
sg6
(dp307
I0
(I1321
I1315
I-41
I242
tp308
sI1
(I1320
I1309
I-42
I242
tp309
sI2
(I1319
I1303
I-42
I242
tp310
sI3
(I1322
I1292
I-43
I242
tp311
sI4
(I1321
I1308
I-44
I242
tp312
sI5
(I1324
I1313
I-46
I242
tp313
sI6
(I1320
I1310
I-46
I242
tp314
sI7
(I1321
I1310
I-48
I242
tp315
ssba(iSample
Sample
p316
(dp317
g3
S'85d2'
p318
sg5
F1441196740.753568
sg6
(dp319
I8
(I1323
I1299
I-50
I241
tp320
sI9
(I1325
I1302
I-55
I239
tp321
sI10
(I1324
I1271
I-55
I241
tp322
sI11
(I1326
I1308
I-52
I240
tp323
sI12
(I1326
I1316
I-48
I242
tp324
sI13
(I1325
I1322
I-47
I236
tp325
sI14
(I1323
I1322
I-46
I242
tp326
sI15
(I1324
I1321
I-45
I239
tp327
ssba(iSample
Sample
p328
(dp329
g3
S'85d2'
p330
sg5
F1441196742.748262
sg6
(dp331
I0
(I1329
I1323
I-42
I242
tp332
sI1
(I1328
I1317
I-41
I242
tp333
sI2
(I1326
I1310
I-42
I242
tp334
sI3
(I1329
I1299
I-42
I242
tp335
sI4
(I1329
I1316
I-42
I241
tp336
sI5
(I1332
I1321
I-44
I242
tp337
sI6
(I1328
I1318
I-44
I241
tp338
sI7
(I1329
I1318
I-45
I242
tp339
ssba(iSample
Sample
p340
(dp341
g3
S'85d2'
p342
sg5
F1441196744.774277
sg6
(dp343
I8
(I1332
I1307
I-46
I242
tp344
sI9
(I1332
I1309
I-49
I242
tp345
sI10
(I1331
I1278
I-48
I242
tp346
sI11
(I1334
I1316
I-47
I242
tp347
sI12
(I1333
I1323
I-45
I242
tp348
sI13
(I1333
I1330
I-45
I242
tp349
sI14
(I1330
I1329
I-44
I242
tp350
sI15
(I1331
I1328
I-44
I242
tp351
ssba(iSample
Sample
p352
(dp353
g3
S'85d2'
p354
sg5
F1441196746.799583
sg6
(dp355
I0
(I1336
I1330
I-44
I242
tp356
sI1
(I1336
I1325
I-43
I242
tp357
sI2
(I1333
I1317
I-44
I242
tp358
sI3
(I1336
I1306
I-42
I242
tp359
sI4
(I1336
I1323
I-47
I242
tp360
sI5
(I1340
I1329
I-48
I241
tp361
sI6
(I1336
I1326
I-46
I242
tp362
sI7
(I1337
I1326
I-48
I242
tp363
ssba(iSample
Sample
p364
(dp365
g3
S'85d2'
p366
sg5
F1441196748.780576
sg6
(dp367
I8
(I1340
I1315
I-51
I242
tp368
sI9
(I1340
I1317
I-55
I234
tp369
sI10
(I1340
I1287
I-53
I242
tp370
sI11
(I1342
I1324
I-48
I239
tp371
sI12
(I1340
I1330
I-47
I242
tp372
sI13
(I1340
I1337
I-46
I242
tp373
sI14
(I1339
I1338
I-45
I242
tp374
sI15
(I1338
I1335
I-47
I242
tp375
ssba(iSample
Sample
p376
(dp377
g3
S'85d2'
p378
sg5
F1441196750.806837
sg6
(dp379
I0
(I1343
I1337
I-42
I242
tp380
sI1
(I1343
I1332
I-43
I242
tp381
sI2
(I1340
I1324
I-43
I242
tp382
sI3
(I1344
I1314
I-44
I242
tp383
sI4
(I1344
I1331
I-44
I239
tp384
sI5
(I1347
I1335
I-46
I239
tp385
sI6
(I1343
I1333
I-47
I242
tp386
sI7
(I1344
I1333
I-50
I242
tp387
ssba(iSample
Sample
p388
(dp389
g3
S'85d2'
p390
sg5
F1441196752.832232
sg6
(dp391
I8
(I1347
I1322
I-54
I241
tp392
sI9
(I1347
I1324
I-56
I238
tp393
sI10
(I1348
I1295
I-53
I241
tp394
sI11
(I1348
I1330
I-48
I242
tp395
sI12
(I1347
I1337
I-46
I242
tp396
sI13
(I1348
I1345
I-45
I242
tp397
sI14
(I1347
I1346
I-45
I241
tp398
sI15
(I1346
I1343
I-46
I241
tp399
ssba(iSample
Sample
p400
(dp401
g3
S'85d2'
p402
sg5
F1441196754.857068
sg6
(dp403
I0
(I1350
I1344
I-42
I242
tp404
sI1
(I1351
I1340
I-42
I242
tp405
sI2
(I1348
I1332
I-43
I242
tp406
sI3
(I1352
I1322
I-44
I239
tp407
sI4
(I1351
I1338
I-45
I242
tp408
sI5
(I1353
I1342
I-47
I242
tp409
sI6
(I1351
I1341
I-47
I241
tp410
sI7
(I1352
I1341
I-50
I241
tp411
ssba(iSample
Sample
p412
(dp413
g3
S'85d2'
p414
sg5
F1441196756.883713
sg6
(dp415
I8
(I1355
I1330
I-54
I234
tp416
sI9
(I1354
I1331
I-54
I236
tp417
sI10
(I1355
I1302
I-51
I241
tp418
sI11
(I1355
I1337
I-48
I239
tp419
sI12
(I1355
I1345
I-46
I242
tp420
sI13
(I1355
I1352
I-45
I239
tp421
sI14
(I1354
I1353
I-44
I242
tp422
sI15
(I1354
I1351
I-44
I241
tp423
ssba(iSample
Sample
p424
(dp425
g3
S'85d2'
p426
sg5
F1441196758.849183
sg6
(dp427
I0
(I1358
I1352
I-43
I242
tp428
sI1
(I1358
I1347
I-42
I242
tp429
sI2
(I1356
I1340
I-43
I242
tp430
sI3
(I1359
I1329
I-46
I242
tp431
sI4
(I1358
I1345
I-48
I241
tp432
sI5
(I1361
I1350
I-49
I242
tp433
sI6
(I1359
I1349
I-51
I242
tp434
sI7
(I1359
I1348
I-52
I236
tp435
ssba(iSample
Sample
p436
(dp437
g3
S'85d2'
p438
sg5
F1441196760.874827
sg6
(dp439
I8
(I1363
I1338
I-54
I235
tp440
sI9
(I1361
I1338
I-51
I242
tp441
sI10
(I1363
I1310
I-54
I235
tp442
sI11
(I1363
I1345
I-47
I242
tp443
sI12
(I1363
I1353
I-44
I236
tp444
sI13
(I1362
I1359
I-44
I242
tp445
sI14
(I1362
I1361
I-46
I241
tp446
sI15
(I1361
I1358
I-44
I242
tp447
ssba(iSample
Sample
p448
(dp449
g3
S'85d2'
p450
sg5
F1441196762.900507
sg6
(dp451
I0
(I1366
I1360
I-41
I242
tp452
sI1
(I1365
I1354
I-42
I239
tp453
sI2
(I1363
I1347
I-42
I242
tp454
sI3
(I1367
I1337
I-44
I242
tp455
sI4
(I1365
I1352
I-44
I242
tp456
sI5
(I1369
I1358
I-47
I242
tp457
sI6
(I1366
I1356
I-48
I242
tp458
sI7
(I1366
I1355
I-51
I242
tp459
ssba(iSample
Sample
p460
(dp461
g3
S'85d2'
p462
sg5
F1441196764.927079
sg6
(dp463
I8
(I1370
I1345
I-52
I241
tp464
sI9
(I1369
I1346
I-52
I242
tp465
sI10
(I1370
I1317
I-51
I242
tp466
sI11
(I1371
I1353
I-47
I241
tp467
sI12
(I1370
I1360
I-44
I242
tp468
sI13
(I1369
I1366
I-43
I242
tp469
sI14
(I1370
I1369
I-42
I242
tp470
sI15
(I1369
I1366
I-43
I242
tp471
ssba(iSample
Sample
p472
(dp473
g3
S'85d2'
p474
sg5
F1441196766.922841
sg6
(dp475
I0
(I1373
I1367
I-40
I242
tp476
sI1
(I1372
I1361
I-42
I242
tp477
sI2
(I1371
I1355
I-43
I242
tp478
sI3
(I1375
I1345
I-45
I242
tp479
sI4
(I1373
I1360
I-46
I242
tp480
sI5
(I1377
I1366
I-49
I242
tp481
sI6
(I1373
I1363
I-50
I230
tp482
sI7
(I1373
I1362
I-50
I242
tp483
ssba(iSample
Sample
p484
(dp485
g3
S'85d2'
p486
sg5
F1441196768.948298
sg6
(dp487
I8
(I1377
I1352
I-54
I235
tp488
sI9
(I1377
I1354
I-55
I239
tp489
sI10
(I1377
I1324
I-56
I241
tp490
sI11
(I1379
I1361
I-49
I242
tp491
sI12
(I1378
I1368
I-46
I242
tp492
sI13
(I1377
I1374
I-43
I242
tp493
sI14
(I1377
I1376
I-44
I242
tp494
sI15
(I1377
I1374
I-45
I242
tp495
ssba(iSample
Sample
p496
(dp497
g3
S'85d2'
p498
sg5
F1441196770.973839
sg6
(dp499
I0
(I1381
I1375
I-41
I242
tp500
sI1
(I1381
I1370
I-42
I242
tp501
sI2
(I1379
I1363
I-42
I240
tp502
sI3
(I1382
I1352
I-44
I242
tp503
sI4
(I1381
I1368
I-45
I242
tp504
sI5
(I1384
I1373
I-48
I242
tp505
sI6
(I1380
I1370
I-49
I241
tp506
sI7
(I1382
I1371
I-51
I237
tp507
ssba(iSample
Sample
p508
(dp509
g3
S'85d2'
p510
sg5
F1441196772.954635
sg6
(dp511
I8
(I1384
I1359
I-52
I240
tp512
sI9
(I1384
I1361
I-54
I242
tp513
sI10
(I1384
I1331
I-53
I241
tp514
sI11
(I1386
I1368
I-48
I242
tp515
sI12
(I1386
I1376
I-45
I242
tp516
sI13
(I1385
I1382
I-44
I242
tp517
sI14
(I1383
I1382
I-44
I242
tp518
sI15
(I1384
I1381
I-44
I241
tp519
ssba(iSample
Sample
p520
(dp521
g3
S'85d2'
p522
sg5
F1441196774.980922
sg6
(dp523
I0
(I1389
I1383
I-40
I242
tp524
sI1
(I1389
I1378
I-42
I242
tp525
sI2
(I1386
I1369
I-42
I241
tp526
sI3
(I1388
I1358
I-44
I242
tp527
sI4
(I1388
I1375
I-45
I242
tp528
sI5
(I1392
I1381
I-47
I242
tp529
sI6
(I1389
I1379
I-47
I241
tp530
sI7
(I1390
I1379
I-49
I239
tp531
ssba(iSample
Sample
p532
(dp533
g3
S'85d2'
p534
sg5
F1441196777.00596
sg6
(dp535
I8
(I1392
I1367
I-51
I242
tp536
sI9
(I1392
I1368
I-53
I232
tp537
sI10
(I1392
I1339
I-52
I241
tp538
sI11
(I1394
I1376
I-48
I242
tp539
sI12
(I1392
I1382
I-44
I242
tp540
sI13
(I1392
I1389
I-44
I242
tp541
sI14
(I1391
I1390
I-43
I242
tp542
sI15
(I1390
I1387
I-44
I242
tp543
ssba(iSample
Sample
p544
(dp545
g3
S'85d2'
p546
sg5
F1441196779.033158
sg6
(dp547
I0
(I1395
I1389
I-40
I242
tp548
sI1
(I1396
I1385
I-42
I242
tp549
sI2
(I1392
I1376
I-42
I242
tp550
sI3
(I1396
I1366
I-44
I242
tp551
sI4
(I1396
I1383
I-45
I241
tp552
sI5
(I1399
I1388
I-46
I242
tp553
sI6
(I1397
I1387
I-47
I242
tp554
sI7
(I1397
I1386
I-50
I242
tp555
ssba(iSample
Sample
p556
(dp557
g3
S'85d2'
p558
sg5
F1441196781.05797
sg6
(dp559
I8
(I1400
I1375
I-50
I239
tp560
sI9
(I1399
I1375
I-50
I242
tp561
sI10
(I1400
I1347
I-52
I238
tp562
sI11
(I1401
I1383
I-47
I242
tp563
sI12
(I1399
I1389
I-45
I242
tp564
sI13
(I1400
I1397
I-44
I242
tp565
sI14
(I1399
I1398
I-43
I242
tp566
sI15
(I1398
I1395
I-44
I242
tp567
ssba(iSample
Sample
p568
(dp569
g3
S'85d2'
p570
sg5
F1441196783.023783
sg6
(dp571
I0
(I1402
I1396
I-40
I242
tp572
sI1
(I1404
I1393
I-42
I242
tp573
sI2
(I1400
I1384
I-42
I242
tp574
sI3
(I1404
I1374
I-43
I242
tp575
sI4
(I1403
I1390
I-45
I242
tp576
sI5
(I1406
I1395
I-47
I242
tp577
sI6
(I1404
I1394
I-48
I242
tp578
sI7
(I1405
I1394
I-49
I242
tp579
ssba(iSample
Sample
p580
(dp581
g3
S'85d2'
p582
sg5
F1441196785.049361
sg6
(dp583
I8
(I1407
I1382
I-50
I241
tp584
sI9
(I1406
I1382
I-52
I242
tp585
sI10
(I1407
I1354
I-52
I235
tp586
sI11
(I1408
I1390
I-48
I230
tp587
sI12
(I1407
I1397
I-45
I241
tp588
sI13
(I1407
I1404
I-44
I242
tp589
sI14
(I1407
I1406
I-43
I242
tp590
sI15
(I1406
I1403
I-44
I242
tp591
ssba(iSample
Sample
p592
(dp593
g3
S'85d2'
p594
sg5
F1441196787.07494
sg6
(dp595
I0
(I1410
I1404
I-41
I242
tp596
sI1
(I1412
I1401
I-42
I242
tp597
sI2
(I1408
I1392
I-42
I242
tp598
sI3
(I1412
I1382
I-43
I242
tp599
sI4
(I1410
I1397
I-44
I242
tp600
sI5
(I1413
I1402
I-47
I242
tp601
sI6
(I1412
I1402
I-47
I242
tp602
sI7
(I1412
I1401
I-48
I241
tp603
ssba(iSample
Sample
p604
(dp605
g3
S'85d2'
p606
sg5
F1441196789.100912
sg6
(dp607
I8
(I1415
I1390
I-50
I238
tp608
sI9
(I1413
I1389
I-54
I235
tp609
sI10
(I1415
I1362
I-55
I242
tp610
sI11
(I1415
I1397
I-49
I242
tp611
sI12
(I1415
I1405
I-45
I242
tp612
sI13
(I1414
I1411
I-44
I242
tp613
sI14
(I1414
I1413
I-44
I236
tp614
sI15
(I1414
I1411
I-44
I242
tp615
ssba(iSample
Sample
p616
(dp617
g3
S'85d2'
p618
sg5
F1441196791.096287
sg6
(dp619
I0
(I1418
I1412
I-41
I241
tp620
sI1
(I1419
I1408
I-43
I242
tp621
sI2
(I1416
I1400
I-44
I242
tp622
sI3
(I1419
I1389
I-45
I236
tp623
sI4
(I1417
I1404
I-46
I242
tp624
sI5
(I1421
I1410
I-50
I242
tp625
sI6
(I1419
I1409
I-50
I242
tp626
sI7
(I1419
I1408
I-51
I230
tp627
ssba(iSample
Sample
p628
(dp629
g3
S'85d2'
p630
sg5
F1441196793.122962
sg6
(dp631
I8
(I1423
I1398
I-52
I240
tp632
sI9
(I1422
I1398
I-54
I231
tp633
sI10
(I1423
I1369
I-50
I239
tp634
sI11
(I1423
I1405
I-47
I242
tp635
sI12
(I1423
I1413
I-44
I235
tp636
sI13
(I1421
I1418
I-43
I242
tp637
sI14
(I1422
I1421
I-43
I236
tp638
sI15
(I1421
I1418
I-44
I242
tp639
ssba(iSample
Sample
p640
(dp641
g3
S'85d2'
p642
sg5
F1441196795.149041
sg6
(dp643
I0
(I1426
I1420
I-40
I242
tp644
sI1
(I1425
I1414
I-42
I242
tp645
sI2
(I1423
I1407
I-42
I242
tp646
sI3
(I1428
I1397
I-43
I242
tp647
sI4
(I1426
I1413
I-45
I242
tp648
sI5
(I1429
I1418
I-47
I242
tp649
sI6
(I1426
I1416
I-48
I242
tp650
sI7
(I1426
I1415
I-50
I236
tp651
ssba(iSample
Sample
p652
(dp653
g3
S'85d2'
p654
sg5
F1441196797.128908
sg6
(dp655
I8
(I1430
I1405
I-50
I242
tp656
sI9
(I1430
I1406
I-51
I242
tp657
sI10
(I1430
I1376
I-50
I242
tp658
sI11
(I1431
I1413
I-46
I242
tp659
sI12
(I1430
I1420
I-44
I242
tp660
sI13
(I1430
I1427
I-43
I239
tp661
sI14
(I1429
I1428
I-43
I242
tp662
sI15
(I1429
I1426
I-44
I242
tp663
ssba(iSample
Sample
p664
(dp665
g3
S'85d2'
p666
sg5
F1441196799.155498
sg6
(dp667
I0
(I1433
I1427
I-40
I242
tp668
sI1
(I1433
I1422
I-41
I242
tp669
sI2
(I1431
I1415
I-42
I242
tp670
sI3
(I1435
I1404
I-43
I242
tp671
sI4
(I1434
I1421
I-44
I242
tp672
sI5
(I1436
I1425
I-46
I242
tp673
sI6
(I1433
I1423
I-47
I242
tp674
sI7
(I1434
I1423
I-49
I241
tp675
ssba(iSample
Sample
p676
(dp677
g3
S'85d2'
p678
sg5
F1441196801.180354
sg6
(dp679
I8
(I1437
I1412
I-47
I242
tp680
sI9
(I1437
I1413
I-48
I239
tp681
sI10
(I1436
I1382
I-50
I242
tp682
sI11
(I1438
I1420
I-48
I242
tp683
sI12
(I1438
I1428
I-44
I242
tp684
sI13
(I1438
I1435
I-44
I242
tp685
sI14
(I1436
I1435
I-43
I236
tp686
sI15
(I1436
I1433
I-43
I242
tp687
ssba(iSample
Sample
p688
(dp689
g3
S'85d2'
p690
sg5
F1441196803.20674
sg6
(dp691
I0
(I1441
I1435
I-41
I242
tp692
sI1
(I1441
I1430
I-42
I242
tp693
sI2
(I1438
I1422
I-42
I239
tp694
sI3
(I1442
I1411
I-42
I242
tp695
sI4
(I1441
I1428
I-45
I230
tp696
sI5
(I1444
I1433
I-47
I242
tp697
sI6
(I1441
I1431
I-47
I242
tp698
sI7
(I1442
I1431
I-47
I242
tp699
ssba(iSample
Sample
p700
(dp701
g3
S'85d2'
p702
sg5
F1441196805.23254
sg6
(dp703
I8
(I1445
I1420
I-47
I242
tp704
sI9
(I1445
I1421
I-47
I242
tp705
sI10
(I1444
I1390
I-49
I239
tp706
sI11
(I1446
I1428
I-46
I241
tp707
sI12
(I1445
I1435
I-44
I242
tp708
sI13
(I1445
I1442
I-44
I239
tp709
sI14
(I1443
I1442
I-43
I242
tp710
sI15
(I1443
I1440
I-43
I242
tp711
ssba(iSample
Sample
p712
(dp713
g3
S'85d2'
p714
sg5
F1441196807.198733
sg6
(dp715
I0
(I1448
I1442
I-41
I242
tp716
sI1
(I1449
I1438
I-42
I242
tp717
sI2
(I1445
I1429
I-42
I241
tp718
sI3
(I1449
I1418
I-43
I242
tp719
sI4
(I1449
I1436
I-44
I242
tp720
sI5
(I1451
I1440
I-47
I242
tp721
sI6
(I1449
I1439
I-47
I242
tp722
sI7
(I1449
I1438
I-48
I242
tp723
ssba(iSample
Sample
p724
(dp725
g3
S'85d2'
p726
sg5
F1441196809.223651
sg6
(dp727
I8
(I1453
I1428
I-47
I242
tp728
sI9
(I1453
I1429
I-48
I234
tp729
sI10
(I1452
I1398
I-48
I242
tp730
sI11
(I1453
I1435
I-47
I236
tp731
sI12
(I1452
I1442
I-45
I242
tp732
sI13
(I1453
I1450
I-43
I242
tp733
sI14
(I1451
I1450
I-42
I239
tp734
sI15
(I1450
I1447
I-42
I242
tp735
ssba(iSample
Sample
p736
(dp737
g3
S'85d2'
p738
sg5
F1441196811.249349
sg6
(dp739
I0
(I1455
I1449
I-41
I242
tp740
sI1
(I1456
I1445
I-42
I242
tp741
sI2
(I1452
I1436
I-42
I242
tp742
sI3
(I1457
I1426
I-42
I242
tp743
sI4
(I1457
I1444
I-43
I242
tp744
sI5
(I1458
I1446
I-46
I242
tp745
sI6
(I1456
I1446
I-46
I242
tp746
sI7
(I1457
I1446
I-47
I242
tp747
ssba(iSample
Sample
p748
(dp749
g3
S'85d2'
p750
sg5
F1441196813.275005
sg6
(dp751
I8
(I1460
I1435
I-49
I236
tp752
sI9
(I1460
I1436
I-49
I242
tp753
sI10
(I1460
I1406
I-50
I242
tp754
sI11
(I1460
I1442
I-48
I242
tp755
sI12
(I1459
I1449
I-44
I242
tp756
sI13
(I1461
I1458
I-43
I242
tp757
sI14
(I1459
I1458
I-43
I242
tp758
sI15
(I1458
I1455
I-43
I242
tp759
ssba(iSample
Sample
p760
(dp761
g3
S'85d2'
p762
sg5
F1441196815.270672
sg6
(dp763
I0
(I1462
I1456
I-40
I236
tp764
sI1
(I1464
I1453
I-41
I239
tp765
sI2
(I1460
I1444
I-42
I242
tp766
sI3
(I1465
I1434
I-42
I242
tp767
sI4
(I1464
I1451
I-43
I242
tp768
sI5
(I1465
I1453
I-46
I242
tp769
sI6
(I1464
I1454
I-47
I242
tp770
sI7
(I1465
I1454
I-47
I242
tp771
ssba(iSample
Sample
p772
(dp773
g3
S'85d2'
p774
sg5
F1441196817.298073
sg6
(dp775
I8
(I1468
I1443
I-47
I236
tp776
sI9
(I1467
I1442
I-49
I236
tp777
sI10
(I1467
I1413
I-50
I242
tp778
sI11
(I1467
I1449
I-47
I236
tp779
sI12
(I1467
I1457
I-45
I242
tp780
sI13
(I1468
I1465
I-44
I242
tp781
sI14
(I1466
I1465
I-43
I242
tp782
sI15
(I1466
I1463
I-43
I242
tp783
ssba(iSample
Sample
p784
(dp785
g3
S'85d2'
p786
sg5
F1441196819.323357
sg6
(dp787
I0
(I1471
I1465
I-40
I242
tp788
sI1
(I1471
I1460
I-42
I242
tp789
sI2
(I1468
I1452
I-42
I242
tp790
sI3
(I1472
I1441
I-42
I242
tp791
sI4
(I1470
I1457
I-44
I242
tp792
sI5
(I1474
I1462
I-46
I242
tp793
sI6
(I1472
I1462
I-47
I242
tp794
sI7
(I1472
I1461
I-48
I242
tp795
ssba(iSample
Sample
p796
(dp797
g3
S'85d2'
p798
sg5
F1441196821.303562
sg6
(dp799
I8
(I1476
I1451
I-48
I242
tp800
sI9
(I1474
I1450
I-51
I242
tp801
sI10
(I1475
I1421
I-51
I241
tp802
sI11
(I1476
I1458
I-48
I242
tp803
sI12
(I1475
I1465
I-45
I242
tp804
sI13
(I1474
I1471
I-44
I242
tp805
sI14
(I1474
I1473
I-43
I239
tp806
sI15
(I1473
I1470
I-44
I242
tp807
ssba(iSample
Sample
p808
(dp809
g3
S'85d2'
p810
sg5
F1441196823.329176
sg6
(dp811
I0
(I1479
I1473
I-41
I242
tp812
sI1
(I1478
I1467
I-42
I242
tp813
sI2
(I1475
I1459
I-42
I242
tp814
sI3
(I1480
I1449
I-42
I242
tp815
sI4
(I1478
I1465
I-43
I242
tp816
sI5
(I1482
I1470
I-46
I242
tp817
sI6
(I1479
I1468
I-47
I242
tp818
sI7
(I1478
I1467
I-48
I241
tp819
ssba(iSample
Sample
p820
(dp821
g3
S'85d2'
p822
sg5
F1441196825.354819
sg6
(dp823
I8
(I1482
I1457
I-52
I236
tp824
sI9
(I1482
I1458
I-56
I242
tp825
sI10
(I1482
I1428
I-54
I242
tp826
sI11
(I1484
I1466
I-49
I242
tp827
sI12
(I1482
I1472
I-46
I242
tp828
sI13
(I1482
I1479
I-44
I242
tp829
sI14
(I1482
I1481
I-44
I242
tp830
sI15
(I1481
I1478
I-46
I242
tp831
ssba(iSample
Sample
p832
(dp833
g3
S'85d2'
p834
sg5
F1441196827.380274
sg6
(dp835
I0
(I1486
I1480
I-43
I242
tp836
sI1
(I1485
I1474
I-43
I242
tp837
sI2
(I1483
I1467
I-45
I242
tp838
sI3
(I1488
I1457
I-45
I236
tp839
sI4
(I1486
I1473
I-47
I242
tp840
sI5
(I1489
I1477
I-48
I242
tp841
sI6
(I1485
I1475
I-48
I242
tp842
sI7
(I1486
I1475
I-50
I240
tp843
ssba(iSample
Sample
p844
(dp845
g3
S'85d2'
p846
sg5
F1441196829.407058
sg6
(dp847
I8
(I1489
I1464
I-53
I242
tp848
sI9
(I1490
I1466
I-56
I236
tp849
sI10
(I1489
I1435
I-54
I236
tp850
sI11
(I1491
I1473
I-48
I239
tp851
sI12
(I1490
I1480
I-46
I242
tp852
sI13
(I1490
I1487
I-46
I242
tp853
sI14
(I1488
I1487
I-44
I242
tp854
sI15
(I1488
I1485
I-45
I242
tp855
ssba(iSample
Sample
p856
(dp857
g3
S'85d2'
p858
sg5
F1441196831.373981
sg6
(dp859
I0
(I1494
I1488
I-43
I242
tp860
sI1
(I1493
I1482
I-45
I242
tp861
sI2
(I1490
I1474
I-46
I242
tp862
sI3
(I1494
I1463
I-46
I242
tp863
sI4
(I1494
I1481
I-50
I242
tp864
sI5
(I1497
I1485
I-55
I242
tp865
sI6
(I1493
I1483
I-51
I242
tp866
sI7
(I1494
I1483
I-53
I239
tp867
ssba(iSample
Sample
p868
(dp869
g3
S'85d2'
p870
sg5
F1441196833.3993
sg6
(dp871
I8
(I1497
I1472
I-54
I236
tp872
sI9
(I1497
I1473
I-52
I242
tp873
sI10
(I1496
I1442
I-51
I242
tp874
sI11
(I1499
I1481
I-48
I242
tp875
sI12
(I1497
I1487
I-46
I241
tp876
sI13
(I1498
I1495
I-43
I242
tp877
sI14
(I1495
I1494
I-44
I242
tp878
sI15
(I1495
I1492
I-47
I236
tp879
ssba(iSample
Sample
p880
(dp881
g3
S'85d2'
p882
sg5
F1441196835.424618
sg6
(dp883
I0
(I1501
I1495
I-44
I242
tp884
sI1
(I1501
I1490
I-45
I242
tp885
sI2
(I1497
I1481
I-45
I242
tp886
sI3
(I1501
I1470
I-49
I242
tp887
sI4
(I1501
I1488
I-52
I242
tp888
sI5
(I1505
I1493
I-59
I242
tp889
sI6
(I1501
I1491
I-58
I238
tp890
sI7
(I1502
I1491
I-56
I232
tp891
ssba(iSample
Sample
p892
(dp893
g3
S'85d2'
p894
sg5
F1441196837.45042
sg6
(dp895
I8
(I1505
I1480
I-64
I236
tp896
sI9
(I1505
I1481
I-55
I241
tp897
sI10
(I1504
I1450
I-52
I236
tp898
sI11
(I1507
I1489
I-48
I241
tp899
sI12
(I1504
I1494
I-45
I242
tp900
sI13
(I1505
I1502
I-44
I242
tp901
sI14
(I1503
I1502
I-44
I242
tp902
sI15
(I1502
I1499
I-44
I242
tp903
ssba(iSample
Sample
p904
(dp905
g3
S'85d2'
p906
sg5
F1441196839.475925
sg6
(dp907
I0
(I1508
I1502
I-42
I239
tp908
sI1
(I1508
I1497
I-43
I242
tp909
sI2
(I1504
I1488
I-44
I242
tp910
sI3
(I1509
I1478
I-45
I242
tp911
sI4
(I1509
I1496
I-47
I242
tp912
sI5
(I1512
I1500
I-51
I242
tp913
sI6
(I1509
I1499
I-51
I241
tp914
sI7
(I1509
I1498
I-53
I234
tp915
ssba(iSample
Sample
p916
(dp917
g3
S'85d2'
p918
sg5
F1441196841.471864
sg6
(dp919
I8
(I1513
I1488
I-57
I238
tp920
sI9
(I1512
I1488
I-57
I239
tp921
sI10
(I1512
I1458
I-58
I242
tp922
sI11
(I1514
I1496
I-51
I242
tp923
sI12
(I1511
I1501
I-46
I242
tp924
sI13
(I1513
I1510
I-44
I242
tp925
sI14
(I1511
I1510
I-44
I242
tp926
sI15
(I1511
I1507
I-45
I242
tp927
ssba(iSample
Sample
p928
(dp929
g3
S'85d2'
p930
sg5
F1441196843.49869
sg6
(dp931
I0
(I1515
I1509
I-44
I242
tp932
sI1
(I1516
I1505
I-46
I242
tp933
sI2
(I1513
I1497
I-46
I242
tp934
sI3
(I1517
I1486
I-49
I242
tp935
sI4
(I1516
I1503
I-49
I242
tp936
sI5
(I1518
I1506
I-54
I236
tp937
sI6
(I1516
I1506
I-55
I236
tp938
sI7
(I1517
I1506
I-58
I242
tp939
ssba(iSample
Sample
p940
(dp941
g3
S'85d2'
p942
sg5
F1441196845.478444
sg6
(dp943
I8
(I1520
I1495
I-54
I239
tp944
sI9
(I1519
I1495
I-63
I233
tp945
sI10
(I1519
I1465
I-58
I239
tp946
sI11
(I1520
I1502
I-48
I242
tp947
sI12
(I1520
I1510
I-46
I242
tp948
sI13
(I1520
I1517
I-46
I241
tp949
sI14
(I1518
I1517
I-44
I242
tp950
sI15
(I1519
I1515
I-46
I242
tp951
ssba(iSample
Sample
p952
(dp953
g3
S'85d2'
p954
sg5
F1441196847.503947
sg6
(dp955
I0
(I1523
I1517
I-44
I233
tp956
sI1
(I1524
I1513
I-46
I242
tp957
sI2
(I1521
I1505
I-46
I239
tp958
sI3
(I1524
I1493
I-44
I242
tp959
sI4
(I1523
I1510
I-47
I242
tp960
sI5
(I1526
I1514
I-50
I241
tp961
sI6
(I1524
I1514
I-52
I235
tp962
sI7
(I1524
I1512
I-50
I238
tp963
ssba(iSample
Sample
p964
(dp965
g3
S'85d2'
p966
sg5
F1441196849.530461
sg6
(dp967
I8
(I1528
I1503
I-51
I238
tp968
sI9
(I1526
I1502
I-54
I242
tp969
sI10
(I1527
I1472
I-53
I235
tp970
sI11
(I1528
I1510
I-49
I242
tp971
sI12
(I1528
I1518
I-45
I236
tp972
sI13
(I1527
I1524
I-44
I242
tp973
sI14
(I1526
I1525
I-46
I242
tp974
sI15
(I1526
I1522
I-44
I242
tp975
ssba(iSample
Sample
p976
(dp977
g3
S'85d2'
p978
sg5
F1441196851.554745
sg6
(dp979
I0
(I1531
I1525
I-42
I242
tp980
sI1
(I1530
I1519
I-42
I242
tp981
sI2
(I1528
I1512
I-45
I242
tp982
sI3
(I1532
I1501
I-50
I242
tp983
sI4
(I1530
I1517
I-49
I242
tp984
sI5
(I1534
I1522
I-53
I242
tp985
sI6
(I1531
I1521
I-49
I238
tp986
sI7
(I1531
I1519
I-49
I242
tp987
ssba(iSample
Sample
p988
(dp989
g3
S'85d2'
p990
sg5
F1441196853.582558
sg6
(dp991
I8
(I1535
I1510
I-52
I241
tp992
sI9
(I1534
I1510
I-53
I242
tp993
sI10
(I1534
I1479
I-50
I242
tp994
sI11
(I1536
I1518
I-47
I242
tp995
sI12
(I1535
I1525
I-45
I242
tp996
sI13
(I1534
I1531
I-44
I242
tp997
sI14
(I1534
I1533
I-44
I242
tp998
sI15
(I1534
I1530
I-44
I242
tp999
ssba(iSample
Sample
p1000
(dp1001
g3
S'85d2'
p1002
sg5
F1441196855.547137
sg6
(dp1003
I0
(I1538
I1532
I-42
I242
tp1004
sI1
(I1537
I1526
I-45
I242
tp1005
sI2
(I1536
I1520
I-46
I242
tp1006
sI3
(I1540
I1509
I-47
I242
tp1007
sI4
(I1538
I1525
I-49
I236
tp1008
sI5
(I1542
I1530
I-48
I242
tp1009
sI6
(I1538
I1527
I-49
I242
tp1010
sI7
(I1538
I1526
I-55
I225
tp1011
ssba(iSample
Sample
p1012
(dp1013
g3
S'85d2'
p1014
sg5
F1441196857.57353
sg6
(dp1015
I8
(I1542
I1517
I-55
I239
tp1016
sI9
(I1542
I1518
I-54
I236
tp1017
sI10
(I1541
I1486
I-51
I242
tp1018
sI11
(I1544
I1526
I-47
I242
tp1019
sI12
(I1543
I1533
I-45
I242
tp1020
sI13
(I1542
I1539
I-45
I239
tp1021
sI14
(I1541
I1540
I-44
I242
tp1022
sI15
(I1542
I1538
I-44
I242
tp1023
ssba(iSample
Sample
p1024
(dp1025
g3
S'85d2'
p1026
sg5
F1441196859.598703
sg6
(dp1027
I0
(I1546
I1540
I-44
I242
tp1028
sI1
(I1545
I1534
I-45
I242
tp1029
sI2
(I1544
I1528
I-46
I242
tp1030
sI3
(I1547
I1516
I-47
I242
tp1031
sI4
(I1546
I1533
I-48
I242
tp1032
sI5
(I1549
I1537
I-53
I242
tp1033
sI6
(I1545
I1534
I-53
I236
tp1034
sI7
(I1546
I1534
I-52
I240
tp1035
ssba(iSample
Sample
p1036
(dp1037
g3
S'85d2'
p1038
sg5
F1441196861.623796
sg6
(dp1039
I8
(I1549
I1524
I-54
I233
tp1040
sI9
(I1549
I1525
I-53
I234
tp1041
sI10
(I1548
I1492
I-52
I242
tp1042
sI11
(I1551
I1533
I-48
I242
tp1043
sI12
(I1551
I1541
I-46
I242
tp1044
sI13
(I1550
I1547
I-45
I242
tp1045
sI14
(I1548
I1547
I-45
I242
tp1046
sI15
(I1549
I1545
I-45
I242
tp1047
ssba(iSample
Sample
p1048
(dp1049
g3
S'85d2'
p1050
sg5
F1441196863.62051
sg6
(dp1051
I0
(I1554
I1548
I-43
I242
tp1052
sI1
(I1553
I1542
I-47
I242
tp1053
sI2
(I1551
I1535
I-45
I242
tp1054
sI3
(I1554
I1523
I-47
I242
tp1055
sI4
(I1553
I1540
I-48
I242
tp1056
sI5
(I1557
I1545
I-55
I241
tp1057
sI6
(I1553
I1542
I-51
I241
tp1058
sI7
(I1554
I1542
I-56
I240
tp1059
ssba(iSample
Sample
p1060
(dp1061
g3
S'85d2'
p1062
sg5
F1441196865.647534
sg6
(dp1063
I8
(I1557
I1532
I-57
I236
tp1064
sI9
(I1557
I1533
I-61
I242
tp1065
sI10
(I1557
I1501
I-58
I242
tp1066
sI11
(I1559
I1541
I-53
I242
tp1067
sI12
(I1558
I1548
I-49
I242
tp1068
sI13
(I1557
I1554
I-46
I241
tp1069
sI14
(I1555
I1554
I-45
I238
tp1070
sI15
(I1556
I1551
I-46
I242
tp1071
ssba(iSample
Sample
p1072
(dp1073
g3
S'85d2'
p1074
sg5
F1441196867.672126
sg6
(dp1075
I0
(I1561
I1555
I-43
I242
tp1076
sI1
(I1561
I1550
I-44
I242
tp1077
sI2
(I1557
I1541
I-44
I242
tp1078
sI3
(I1561
I1530
I-47
I242
tp1079
sI4
(I1561
I1548
I-49
I241
tp1080
sI5
(I1564
I1552
I-54
I241
tp1081
sI6
(I1561
I1550
I-57
I239
tp1082
sI7
(I1561
I1549
I-57
I242
tp1083
ssba(iSample
Sample
p1084
(dp1085
g3
S'85d2'
p1086
sg5
F1441196869.652424
sg6
(dp1087
I8
(I1565
I1540
I-61
I242
tp1088
sI9
(I1565
I1540
I-56
I233
tp1089
sI10
(I1565
I1509
I-54
I236
tp1090
sI11
(I1566
I1548
I-47
I242
tp1091
sI12
(I1564
I1554
I-46
I242
tp1092
sI13
(I1565
I1562
I-45
I242
tp1093
sI14
(I1564
I1563
I-44
I242
tp1094
sI15
(I1563
I1559
I-45
I242
tp1095
ssba(iSample
Sample
p1096
(dp1097
g3
S'85d2'
p1098
sg5
F1441196871.678023
sg6
(dp1099
I0
(I1567
I1561
I-43
I242
tp1100
sI1
(I1568
I1557
I-45
I242
tp1101
sI2
(I1565
I1549
I-47
I242
tp1102
sI3
(I1570
I1539
I-49
I241
tp1103
sI4
(I1569
I1556
I-48
I242
tp1104
sI5
(I1571
I1559
I-54
I242
tp1105
sI6
(I1568
I1557
I-51
I236
tp1106
sI7
(I1569
I1557
I-51
I235
tp1107
ssba(iSample
Sample
p1108
(dp1109
g3
S'85d2'
p1110
sg5
F1441196873.703743
sg6
(dp1111
I8
(I1572
I1546
I-54
I242
tp1112
sI9
(I1571
I1546
I-55
I239
tp1113
sI10
(I1572
I1516
I-56
I239
tp1114
sI11
(I1573
I1555
I-53
I242
tp1115
sI12
(I1572
I1562
I-47
I242
tp1116
sI13
(I1573
I1570
I-47
I242
tp1117
sI14
(I1572
I1571
I-46
I241
tp1118
sI15
(I1571
I1567
I-48
I242
tp1119
ssba(iSample
Sample
p1120
(dp1121
g3
S'85d2'
p1122
sg5
F1441196875.7298
sg6
(dp1123
I0
(I1575
I1569
I-47
I242
tp1124
sI1
(I1576
I1565
I-48
I242
tp1125
sI2
(I1573
I1557
I-48
I242
tp1126
sI3
(I1578
I1547
I-46
I242
tp1127
sI4
(I1575
I1562
I-50
I242
tp1128
sI5
(I1578
I1566
I-48
I242
tp1129
sI6
(I1576
I1565
I-52
I235
tp1130
sI7
(I1577
I1565
I-53
I236
tp1131
ssba(iSample
Sample
p1132
(dp1133
g3
S'85d2'
p1134
sg5
F1441196877.755755
sg6
(dp1135
I8
(I1580
I1554
I-55
I238
tp1136
sI9
(I1578
I1553
I-58
I242
tp1137
sI10
(I1580
I1524
I-55
I242
tp1138
sI11
(I1580
I1562
I-56
I242
tp1139
sI12
(I1580
I1570
I-53
I236
tp1140
sI13
(I1579
I1576
I-52
I241
tp1141
sI14
(I1579
I1578
I-51
I239
tp1142
sI15
(I1579
I1575
I-49
I239
tp1143
ssba(iSample
Sample
p1144
(dp1145
g3
S'85d2'
p1146
sg5
F1441196879.721868
sg6
(dp1147
I0
(I1583
I1577
I-45
I242
tp1148
sI1
(I1583
I1572
I-46
I242
tp1149
sI2
(I1581
I1565
I-50
I242
tp1150
sI3
(I1585
I1554
I-49
I240
tp1151
sI4
(I1582
I1569
I-46
I242
tp1152
sI5
(I1586
I1573
I-49
I242
tp1153
sI6
(I1583
I1572
I-54
I230
tp1154
sI7
(I1583
I1571
I-53
I242
tp1155
ssba(iSample
Sample
p1156
(dp1157
g3
S'85d2'
p1158
sg5
F1441196881.746949
sg6
(dp1159
I8
(I1587
I1561
I-51
I239
tp1160
sI9
(I1586
I1561
I-56
I242
tp1161
sI10
(I1588
I1532
I-49
I234
tp1162
sI11
(I1588
I1570
I-47
I242
tp1163
sI12
(I1588
I1577
I-45
I239
tp1164
sI13
(I1586
I1583
I-46
I242
tp1165
sI14
(I1587
I1586
I-45
I242
tp1166
sI15
(I1586
I1582
I-46
I242
tp1167
ssba(iSample
Sample
p1168
(dp1169
g3
S'85d2'
p1170
sg5
F1441196883.77314
sg6
(dp1171
I0
(I1591
I1585
I-45
I241
tp1172
sI1
(I1590
I1579
I-46
I242
tp1173
sI2
(I1588
I1572
I-47
I242
tp1174
sI3
(I1593
I1562
I-48
I242
tp1175
sI4
(I1590
I1577
I-52
I240
tp1176
sI5
(I1594
I1581
I-51
I241
tp1177
sI6
(I1590
I1579
I-54
I239
tp1178
sI7
(I1590
I1578
I-59
I241
tp1179
ssba(iSample
Sample
p1180
(dp1181
g3
S'85d2'
p1182
sg5
F1441196885.804935
sg6
(dp1183
I8
(I1594
I1568
I-55
I242
tp1184
sI9
(I1594
I1569
I-55
I242
tp1185
sI10
(I1595
I1539
I-51
I235
tp1186
sI11
(I1596
I1578
I-48
I236
tp1187
sI12
(I1595
I1584
I-44
I242
tp1188
sI13
(I1594
I1591
I-43
I242
tp1189
sI14
(I1594
I1593
I-43
I242
tp1190
sI15
(I1594
I1590
I-44
I242
tp1191
ssba(iSample
Sample
p1192
(dp1193
g3
S'85d2'
p1194
sg5
F1441196887.794361
sg6
(dp1195
I0
(I1598
I1592
I-43
I236
tp1196
sI1
(I1597
I1586
I-43
I242
tp1197
sI2
(I1596
I1580
I-45
I242
tp1198
sI3
(I1600
I1569
I-46
I242
tp1199
sI4
(I1598
I1585
I-47
I242
tp1200
sI5
(I1601
I1588
I-46
I242
tp1201
sI6
(I1597
I1586
I-48
I242
tp1202
sI7
(I1598
I1586
I-53
I242
tp1203
ssba(iSample
Sample
p1204
(dp1205
g3
S'85d2'
p1206
sg5
F1441196889.820785
sg6
(dp1207
I8
(I1601
I1575
I-60
I236
tp1208
sI9
(I1602
I1577
I-60
I236
tp1209
sI10
(I1602
I1545
I-55
I242
tp1210
sI11
(I1603
I1585
I-49
I242
tp1211
sI12
(I1603
I1592
I-47
I242
tp1212
sI13
(I1602
I1599
I-45
I242
tp1213
sI14
(I1601
I1600
I-44
I242
tp1214
sI15
(I1601
I1597
I-45
I242
tp1215
ssba(iSample
Sample
p1216
(dp1217
g3
S'85d2'
p1218
sg5
F1441196891.801559
sg6
(dp1219
I0
(I1606
I1600
I-43
I236
tp1220
sI1
(I1606
I1595
I-44
I236
tp1221
sI2
(I1603
I1587
I-43
I242
tp1222
sI3
(I1607
I1576
I-45
I242
tp1223
sI4
(I1606
I1593
I-48
I242
tp1224
sI5
(I1609
I1596
I-50
I239
tp1225
sI6
(I1606
I1595
I-52
I241
tp1226
sI7
(I1606
I1594
I-54
I238
tp1227
ssba(iSample
Sample
p1228
(dp1229
g3
S'85d2'
p1230
sg5
F1441196893.826928
sg6
(dp1231
I8
(I1609
I1582
I-53
I236
tp1232
sI9
(I1609
I1584
I-55
I237
tp1233
sI10
(I1609
I1551
I-55
I242
tp1234
sI11
(I1611
I1593
I-50
I242
tp1235
sI12
(I1610
I1599
I-47
I238
tp1236
sI13
(I1609
I1606
I-46
I242
tp1237
sI14
(I1608
I1607
I-45
I242
tp1238
sI15
(I1608
I1604
I-46
I242
tp1239
ssba(iSample
Sample
p1240
(dp1241
g3
S'85d2'
p1242
sg5
F1441196895.852368
sg6
(dp1243
I0
(I1613
I1607
I-42
I242
tp1244
sI1
(I1614
I1603
I-42
I242
tp1245
sI2
(I1610
I1594
I-44
I242
tp1246
sI3
(I1614
I1583
I-46
I241
tp1247
sI4
(I1613
I1600
I-48
I236
tp1248
sI5
(I1617
I1604
I-50
I242
tp1249
sI6
(I1614
I1603
I-52
I242
tp1250
sI7
(I1613
I1601
I-52
I234
tp1251
ssba(iSample
Sample
p1252
(dp1253
g3
S'85d2'
p1254
sg5
F1441196897.878033
sg6
(dp1255
I8
(I1617
I1590
I-52
I241
tp1256
sI9
(I1617
I1592
I-55
I242
tp1257
sI10
(I1617
I1557
I-56
I238
tp1258
sI11
(I1619
I1601
I-52
I242
tp1259
sI12
(I1617
I1606
I-48
I242
tp1260
sI13
(I1617
I1614
I-47
I241
tp1261
sI14
(I1616
I1615
I-45
I242
tp1262
sI15
(I1615
I1611
I-45
I233
tp1263
ssba(iSample
Sample
p1264
(dp1265
g3
S'85d2'
p1266
sg5
F1441196899.903645
sg6
(dp1267
I0
(I1620
I1614
I-42
I242
tp1268
sI1
(I1621
I1610
I-43
I239
tp1269
sI2
(I1617
I1601
I-44
I242
tp1270
sI3
(I1622
I1591
I-45
I242
tp1271
sI4
(I1621
I1608
I-47
I241
tp1272
sI5
(I1623
I1610
I-50
I242
tp1273
sI6
(I1621
I1610
I-51
I242
tp1274
sI7
(I1621
I1609
I-52
I241
tp1275
ssba(iSample
Sample
p1276
(dp1277
g3
S'85d2'
p1278
sg5
F1441196901.93032
sg6
(dp1279
I8
(I1624
I1597
I-52
I239
tp1280
sI9
(I1624
I1599
I-54
I233
tp1281
sI10
(I1625
I1565
I-56
I240
tp1282
sI11
(I1625
I1607
I-52
I234
tp1283
sI12
(I1624
I1613
I-48
I242
tp1284
sI13
(I1625
I1622
I-47
I242
tp1285
sI14
(I1624
I1623
I-46
I242
tp1286
sI15
(I1623
I1619
I-46
I242
tp1287
ssba(iSample
Sample
p1288
(dp1289
g3
S'85d2'
p1290
sg5
F1441196903.895929
sg6
(dp1291
I0
(I1627
I1621
I-42
I242
tp1292
sI1
(I1629
I1618
I-42
I242
tp1293
sI2
(I1625
I1609
I-43
I242
tp1294
sI3
(I1630
I1599
I-45
I242
tp1295
sI4
(I1628
I1615
I-47
I242
tp1296
sI5
(I1630
I1617
I-49
I242
tp1297
sI6
(I1629
I1618
I-50
I241
tp1298
sI7
(I1629
I1616
I-50
I242
tp1299
ssba(iSample
Sample
p1300
(dp1301
g3
S'85d2'
p1302
sg5
F1441196905.921654
sg6
(dp1303
I8
(I1632
I1605
I-51
I240
tp1304
sI9
(I1631
I1606
I-54
I238
tp1305
sI10
(I1632
I1571
I-58
I242
tp1306
sI11
(I1632
I1614
I-54
I239
tp1307
sI12
(I1632
I1621
I-49
I242
tp1308
sI13
(I1632
I1629
I-47
I242
tp1309
sI14
(I1631
I1630
I-46
I242
tp1310
sI15
(I1631
I1627
I-47
I242
tp1311
ssba(iSample
Sample
p1312
(dp1313
g3
S'85d2'
p1314
sg5
F1441196907.947069
sg6
(dp1315
I0
(I1635
I1629
I-43
I242
tp1316
sI1
(I1636
I1625
I-43
I241
tp1317
sI2
(I1633
I1617
I-43
I242
tp1318
sI3
(I1637
I1606
I-45
I242
tp1319
sI4
(I1635
I1622
I-47
I242
tp1320
sI5
(I1638
I1625
I-49
I241
tp1321
sI6
(I1637
I1626
I-50
I238
tp1322
sI7
(I1636
I1623
I-51
I241
tp1323
ssba(iSample
Sample
p1324
(dp1325
g3
S'85d2'
p1326
sg5
F1441196909.972778
sg6
(dp1327
I8
(I1640
I1613
I-51
I239
tp1328
sI9
(I1638
I1613
I-54
I234
tp1329
sI10
(I1640
I1579
I-56
I236
tp1330
sI11
(I1640
I1622
I-54
I236
tp1331
sI12
(I1640
I1629
I-48
I242
tp1332
sI13
(I1639
I1636
I-48
I242
tp1333
sI14
(I1639
I1638
I-47
I242
tp1334
sI15
(I1638
I1634
I-47
I242
tp1335
ssba(iSample
Sample
p1336
(dp1337
g3
S'85d2'
p1338
sg5
F1441196911.968436
sg6
(dp1339
I0
(I1643
I1637
I-43
I242
tp1340
sI1
(I1643
I1632
I-43
I242
tp1341
sI2
(I1640
I1624
I-43
I242
tp1342
sI3
(I1645
I1614
I-45
I242
tp1343
sI4
(I1642
I1629
I-47
I242
tp1344
sI5
(I1646
I1633
I-49
I242
tp1345
sI6
(I1644
I1633
I-50
I242
tp1346
sI7
(I1643
I1630
I-51
I242
tp1347
ssba(iSample
Sample
p1348
(dp1349
g3
S'85d2'
p1350
sg5
F1441196913.995022
sg6
(dp1351
I8
(I1647
I1620
I-50
I238
tp1352
sI9
(I1646
I1621
I-54
I237
tp1353
sI10
(I1647
I1586
I-57
I234
tp1354
sI11
(I1648
I1630
I-53
I235
tp1355
sI12
(I1647
I1636
I-49
I242
tp1356
sI13
(I1646
I1643
I-48
I242
tp1357
sI14
(I1647
I1646
I-46
I241
tp1358
sI15
(I1646
I1642
I-46
I242
tp1359
ssba(iSample
Sample
p1360
(dp1361
g3
S'85d2'
p1362
sg5
F1441196915.97572
sg6
(dp1363
I0
(I1650
I1644
I-42
I241
tp1364
sI1
(I1650
I1639
I-42
I242
tp1365
sI2
(I1648
I1632
I-43
I241
tp1366
sI3
(I1653
I1622
I-45
I242
tp1367
sI4
(I1651
I1638
I-46
I242
tp1368
sI5
(I1654
I1640
I-49
I236
tp1369
sI6
(I1650
I1639
I-50
I242
tp1370
sI7
(I1650
I1637
I-51
I229
tp1371
ssba(iSample
Sample
p1372
(dp1373
g3
S'85d2'
p1374
sg5
F1441196918.001341
sg6
(dp1375
I8
(I1653
I1626
I-50
I242
tp1376
sI9
(I1654
I1629
I-54
I239
tp1377
sI10
(I1654
I1593
I-59
I235
tp1378
sI11
(I1655
I1637
I-54
I234
tp1379
sI12
(I1655
I1644
I-49
I242
tp1380
sI13
(I1655
I1652
I-48
I242
tp1381
sI14
(I1654
I1653
I-47
I236
tp1382
sI15
(I1654
I1650
I-46
I242
tp1383
ssba(iSample
Sample
p1384
(dp1385
g3
S'85d2'
p1386
sg5
F1441196920.026946
sg6
(dp1387
I0
(I1658
I1652
I-42
I242
tp1388
sI1
(I1658
I1647
I-43
I242
tp1389
sI2
(I1656
I1640
I-44
I242
tp1390
sI3
(I1659
I1628
I-46
I242
tp1391
sI4
(I1659
I1646
I-48
I242
tp1392
sI5
(I1661
I1647
I-49
I242
tp1393
sI6
(I1658
I1646
I-50
I230
tp1394
sI7
(I1658
I1645
I-51
I242
tp1395
ssba(iSample
Sample
p1396
(dp1397
g3
S'85d2'
p1398
sg5
F1441196922.053392
sg6
(dp1399
I8
(I1661
I1634
I-50
I240
tp1400
sI9
(I1661
I1636
I-53
I242
tp1401
sI10
(I1661
I1599
I-60
I240
tp1402
sI11
(I1663
I1645
I-55
I240
tp1403
sI12
(I1663
I1652
I-48
I242
tp1404
sI13
(I1663
I1660
I-48
I242
tp1405
sI14
(I1660
I1659
I-48
I242
tp1406
sI15
(I1660
I1656
I-48
I241
tp1407
ssba(iSample
Sample
p1408
(dp1409
g3
S'85d2'
p1410
sg5
F1441196924.078669
sg6
(dp1411
I0
(I1666
I1659
I-42
I242
tp1412
sI1
(I1666
I1655
I-43
I242
tp1413
sI2
(I1662
I1646
I-44
I242
tp1414
sI3
(I1666
I1635
I-46
I242
tp1415
sI4
(I1666
I1653
I-48
I242
tp1416
sI5
(I1669
I1655
I-50
I242
tp1417
sI6
(I1666
I1654
I-50
I242
tp1418
sI7
(I1666
I1653
I-51
I242
tp1419
ssba(iSample
Sample
p1420
(dp1421
g3
S'85d2'
p1422
sg5
F1441196926.104023
sg6
(dp1423
I8
(I1669
I1642
I-50
I242
tp1424
sI9
(I1669
I1644
I-52
I242
tp1425
sI10
(I1669
I1607
I-57
I242
tp1426
sI11
(I1671
I1653
I-54
I233
tp1427
sI12
(I1669
I1658
I-48
I242
tp1428
sI13
(I1670
I1667
I-47
I242
tp1429
sI14
(I1668
I1667
I-47
I242
tp1430
sI15
(I1667
I1663
I-47
I236
tp1431
ssba(iSample
Sample
p1432
(dp1433
g3
S'85d2'
p1434
sg5
F1441196928.070481
sg6
(dp1435
I0
(I1672
I1666
I-43
I242
tp1436
sI1
(I1673
I1662
I-43
I242
tp1437
sI2
(I1669
I1653
I-44
I242
tp1438
sI3
(I1674
I1643
I-46
I242
tp1439
sI4
(I1674
I1661
I-48
I242
tp1440
sI5
(I1676
I1662
I-51
I242
tp1441
sI6
(I1674
I1662
I-50
I242
tp1442
sI7
(I1673
I1660
I-51
I241
tp1443
ssba(iSample
Sample
p1444
(dp1445
g3
S'85d2'
p1446
sg5
F1441196930.096011
sg6
(dp1447
I8
(I1677
I1649
I-49
I242
tp1448
sI9
(I1676
I1651
I-52
I242
tp1449
sI10
(I1677
I1615
I-56
I232
tp1450
sI11
(I1678
I1660
I-53
I240
tp1451
sI12
(I1676
I1665
I-48
I235
tp1452
sI13
(I1678
I1675
I-47
I242
tp1453
sI14
(I1676
I1675
I-47
I242
tp1454
sI15
(I1675
I1671
I-47
I242
tp1455
ssba(iSample
Sample
p1456
(dp1457
g3
S'85d2'
p1458
sg5
F1441196932.121716
sg6
(dp1459
I0
(I1679
I1673
I-43
I242
tp1460
sI1
(I1681
I1670
I-45
I242
tp1461
sI2
(I1677
I1661
I-45
I242
tp1462
sI3
(I1682
I1651
I-49
I239
tp1463
sI4
(I1681
I1668
I-52
I241
tp1464
sI5
(I1683
I1669
I-52
I236
tp1465
sI6
(I1681
I1669
I-51
I242
tp1466
sI7
(I1681
I1668
I-52
I235
tp1467
ssba(iSample
Sample
p1468
(dp1469
g3
S'85d2'
p1470
sg5
F1441196934.147112
sg6
(dp1471
I8
(I1684
I1656
I-51
I241
tp1472
sI9
(I1683
I1658
I-54
I242
tp1473
sI10
(I1684
I1622
I-60
I242
tp1474
sI11
(I1685
I1667
I-52
I242
tp1475
sI12
(I1684
I1673
I-48
I242
tp1476
sI13
(I1685
I1682
I-47
I242
tp1477
sI14
(I1684
I1683
I-46
I242
tp1478
sI15
(I1683
I1679
I-47
I242
tp1479
ssba(iSample
Sample
p1480
(dp1481
g3
S'85d2'
p1482
sg5
F1441196936.142984
sg6
(dp1483
I0
(I1687
I1681
I-44
I242
tp1484
sI1
(I1689
I1678
I-44
I242
tp1485
sI2
(I1685
I1669
I-45
I241
tp1486
sI3
(I1690
I1659
I-48
I242
tp1487
sI4
(I1688
I1675
I-50
I242
tp1488
sI5
(I1690
I1676
I-52
I242
tp1489
sI6
(I1689
I1677
I-51
I242
tp1490
sI7
(I1688
I1675
I-50
I236
tp1491
ssba(iSample
Sample
p1492
(dp1493
g3
S'85d2'
p1494
sg5
F1441196938.16854
sg6
(dp1495
I8
(I1692
I1664
I-49
I242
tp1496
sI9
(I1690
I1665
I-52
I235
tp1497
sI10
(I1692
I1629
I-57
I242
tp1498
sI11
(I1692
I1674
I-54
I239
tp1499
sI12
(I1692
I1681
I-48
I242
tp1500
sI13
(I1692
I1689
I-47
I242
tp1501
sI14
(I1691
I1690
I-47
I242
tp1502
sI15
(I1691
I1687
I-47
I242
tp1503
ssba(iSample
Sample
p1504
(dp1505
g3
S'85d2'
p1506
sg5
F1441196940.149779
sg6
(dp1507
I0
(I1695
I1689
I-44
I242
tp1508
sI1
(I1696
I1685
I-45
I242
tp1509
sI2
(I1693
I1676
I-46
I242
tp1510
sI3
(I1697
I1666
I-49
I242
tp1511
sI4
(I1695
I1682
I-50
I242
tp1512
sI5
(I1699
I1685
I-52
I242
tp1513
sI6
(I1696
I1684
I-51
I241
tp1514
sI7
(I1695
I1682
I-50
I242
tp1515
ssba(iSample
Sample
p1516
(dp1517
g3
S'85d2'
p1518
sg5
F1441196942.176283
sg6
(dp1519
I8
(I1699
I1671
I-51
I233
tp1520
sI9
(I1698
I1673
I-57
I236
tp1521
sI10
(I1700
I1637
I-62
I242
tp1522
sI11
(I1701
I1683
I-53
I242
tp1523
sI12
(I1699
I1688
I-48
I236
tp1524
sI13
(I1699
I1696
I-47
I242
tp1525
sI14
(I1699
I1697
I-45
I242
tp1526
sI15
(I1698
I1694
I-47
I241
tp1527
ssba(iSample
Sample
p1528
(dp1529
g3
S'85d2'
p1530
sg5
F1441196944.201317
sg6
(dp1531
I0
(I1702
I1696
I-44
I241
tp1532
sI1
(I1702
I1691
I-45
I242
tp1533
sI2
(I1700
I1684
I-44
I241
tp1534
sI3
(I1705
I1674
I-47
I242
tp1535
sI4
(I1703
I1690
I-48
I239
tp1536
sI5
(I1707
I1693
I-52
I242
tp1537
sI6
(I1703
I1691
I-51
I236
tp1538
sI7
(I1702
I1689
I-51
I238
tp1539
ssba(iSample
Sample
p1540
(dp1541
g3
S'85d2'
p1542
sg5
F1441196946.227023
sg6
(dp1543
I8
(I1706
I1678
I-52
I242
tp1544
sI9
(I1706
I1681
I-56
I241
tp1545
sI10
(I1706
I1643
I-60
I239
tp1546
sI11
(I1709
I1691
I-53
I233
tp1547
sI12
(I1707
I1696
I-48
I242
tp1548
sI13
(I1707
I1704
I-47
I236
tp1549
sI14
(I1706
I1704
I-47
I242
tp1550
sI15
(I1706
I1702
I-47
I242
tp1551
ssba(iSample
Sample
p1552
(dp1553
g3
S'85d2'
p1554
sg5
F1441196948.253794
sg6
(dp1555
I0
(I1710
I1704
I-45
I242
tp1556
sI1
(I1710
I1699
I-45
I242
tp1557
sI2
(I1708
I1692
I-47
I236
tp1558
sI3
(I1712
I1681
I-50
I242
tp1559
sI4
(I1711
I1697
I-50
I242
tp1560
sI5
(I1714
I1700
I-54
I237
tp1561
sI6
(I1710
I1698
I-53
I241
tp1562
sI7
(I1710
I1697
I-54
I239
tp1563
ssba(iSample
Sample
p1564
(dp1565
g3
S'85d2'
p1566
sg5
F1441196950.279636
sg6
(dp1567
I8
(I1713
I1685
I-65
I220
tp1568
sI9
(I1713
I1688
I-65
I234
tp1569
sI10
(I1713
I1650
I-59
I242
tp1570
sI11
(I1716
I1698
I-49
I240
tp1571
sI12
(I1715
I1704
I-46
I242
tp1572
sI13
(I1715
I1712
I-46
I242
tp1573
sI14
(I1713
I1711
I-46
I242
tp1574
sI15
(I1713
I1709
I-46
I242
tp1575
ssba(iSample
Sample
p1576
(dp1577
g3
S'85d2'
p1578
sg5
F1441196952.245125
sg6
(dp1579
I0
(I1718
I1712
I-45
I242
tp1580
sI1
(I1718
I1707
I-49
I242
tp1581
sI2
(I1715
I1699
I-48
I236
tp1582
sI3
(I1719
I1688
I-50
I242
tp1583
sI4
(I1718
I1704
I-57
I242
tp1584
sI5
(I1722
I1708
I-62
I234
tp1585
sI6
(I1718
I1706
I-64
I242
tp1586
sI7
(I1718
I1705
I-65
I242
tp1587
ssba(iSample
Sample
p1588
(dp1589
g3
S'85d2'
p1590
sg5
F1441196954.27112
sg6
(dp1591
I8
(I1721
I1692
I-63
I241
tp1592
sI9
(I1721
I1696
I-59
I238
tp1593
sI10
(I1721
I1658
I-53
I242
tp1594
sI11
(I1724
I1706
I-50
I242
tp1595
sI12
(I1722
I1711
I-49
I241
tp1596
sI13
(I1722
I1719
I-50
I242
tp1597
sI14
(I1720
I1718
I-50
I242
tp1598
sI15
(I1720
I1716
I-51
I239
tp1599
ssba(iSample
Sample
p1600
(dp1601
g3
S'85d2'
p1602
sg5
F1441196956.296783
sg6
(dp1603
I0
(I1725
I1719
I-48
I242
tp1604
sI1
(I1726
I1715
I-49
I240
tp1605
sI2
(I1722
I1706
I-49
I242
tp1606
sI3
(I1726
I1695
I-52
I241
tp1607
sI4
(I1726
I1712
I-58
I242
tp1608
sI5
(I1729
I1715
I-60
I240
tp1609
sI6
(I1726
I1714
I-62
I239
tp1610
sI7
(I1725
I1712
I-67
I242
tp1611
ssba(iSample
Sample
p1612
(dp1613
g3
S'85d2'
p1614
sg5
F1441196958.292769
sg6
(dp1615
I8
(I1729
I1700
I-56
I231
tp1616
sI9
(I1729
I1704
I-58
I241
tp1617
sI10
(I1729
I1665
I-55
I242
tp1618
sI11
(I1731
I1713
I-52
I242
tp1619
sI12
(I1729
I1718
I-50
I242
tp1620
sI13
(I1730
I1727
I-51
I242
tp1621
sI14
(I1728
I1726
I-52
I239
tp1622
sI15
(I1727
I1723
I-52
I237
tp1623
ssba(iSample
Sample
p1624
(dp1625
g3
S'85d2'
p1626
sg5
F1441196960.318143
sg6
(dp1627
I0
(I1732
I1726
I-46
I242
tp1628
sI1
(I1733
I1722
I-47
I236
tp1629
sI2
(I1729
I1713
I-47
I242
tp1630
sI3
(I1734
I1703
I-50
I242
tp1631
sI4
(I1734
I1720
I-53
I241
tp1632
sI5
(I1736
I1722
I-57
I239
tp1633
sI6
(I1733
I1721
I-52
I241
tp1634
sI7
(I1733
I1720
I-53
I235
tp1635
ssba(iSample
Sample
p1636
(dp1637
g3
S'85d2'
p1638
sg5
F1441196962.343457
sg6
(dp1639
I8
(I1736
I1707
I-55
I238
tp1640
sI9
(I1736
I1711
I-57
I240
tp1641
sI10
(I1737
I1673
I-56
I242
tp1642
sI11
(I1738
I1720
I-53
I232
tp1643
sI12
(I1736
I1725
I-50
I241
tp1644
sI13
(I1738
I1735
I-51
I242
tp1645
sI14
(I1736
I1734
I-51
I242
tp1646
sI15
(I1736
I1732
I-52
I241
tp1647
ssba(iSample
Sample
p1648
(dp1649
g3
S'85d2'
p1650
sg5
F1441196964.325575
sg6
(dp1651
I0
(I1739
I1733
I-47
I242
tp1652
sI1
(I1741
I1730
I-48
I242
tp1653
sI2
(I1738
I1722
I-48
I242
tp1654
sI3
(I1742
I1711
I-50
I239
tp1655
sI4
(I1741
I1727
I-53
I238
tp1656
sI5
(I1743
I1729
I-56
I232
tp1657
sI6
(I1741
I1729
I-54
I239
tp1658
sI7
(I1741
I1728
I-54
I231
tp1659
ssba(iSample
Sample
p1660
(dp1661
g3
S'85d2'
p1662
sg5
F1441196966.351472
sg6
(dp1663
I8
(I1744
I1714
I-57
I240
tp1664
sI9
(I1742
I1717
I-60
I235
tp1665
sI10
(I1744
I1678
I-56
I241
tp1666
sI11
(I1745
I1727
I-52
I242
tp1667
sI12
(I1745
I1734
I-49
I242
tp1668
sI13
(I1745
I1742
I-50
I242
tp1669
sI14
(I1743
I1741
I-50
I241
tp1670
sI15
(I1744
I1740
I-52
I242
tp1671
ssba(iSample
Sample
p1672
(dp1673
g3
S'85d2'
p1674
sg5
F1441196968.375869
sg6
(dp1675
I0
(I1747
I1741
I-46
I242
tp1676
sI1
(I1748
I1737
I-47
I242
tp1677
sI2
(I1746
I1730
I-47
I242
tp1678
sI3
(I1749
I1718
I-50
I242
tp1679
sI4
(I1747
I1733
I-53
I239
tp1680
sI5
(I1751
I1737
I-54
I242
tp1681
sI6
(I1749
I1737
I-53
I237
tp1682
sI7
(I1747
I1734
I-55
I233
tp1683
ssba(iSample
Sample
p1684
(dp1685
g3
S'85d2'
p1686
sg5
F1441196970.401902
sg6
(dp1687
I8
(I1752
I1722
I-56
I241
tp1688
sI9
(I1750
I1725
I-57
I240
tp1689
sI10
(I1752
I1685
I-54
I242
tp1690
sI11
(I1753
I1735
I-52
I241
tp1691
sI12
(I1753
I1742
I-49
I241
tp1692
sI13
(I1751
I1748
I-50
I242
tp1693
sI14
(I1751
I1749
I-50
I242
tp1694
sI15
(I1751
I1747
I-51
I242
tp1695
ssba(iSample
Sample
p1696
(dp1697
g3
S'85d2'
p1698
sg5
F1441196972.42777
sg6
(dp1699
I0
(I1755
I1749
I-47
I242
tp1700
sI1
(I1755
I1744
I-48
I242
tp1701
sI2
(I1753
I1737
I-48
I242
tp1702
sI3
(I1757
I1726
I-50
I236
tp1703
sI4
(I1755
I1741
I-53
I234
tp1704
sI5
(I1759
I1745
I-58
I242
tp1705
sI6
(I1755
I1743
I-55
I240
tp1706
sI7
(I1754
I1741
I-54
I241
tp1707
ssba(iSample
Sample
p1708
(dp1709
g3
S'85d2'
p1710
sg5
F1441196974.394353
sg6
(dp1711
I8
(I1758
I1728
I-57
I232
tp1712
sI9
(I1758
I1733
I-57
I233
tp1713
sI10
(I1759
I1691
I-53
I231
tp1714
sI11
(I1761
I1743
I-51
I235
tp1715
sI12
(I1760
I1749
I-49
I242
tp1716
sI13
(I1759
I1756
I-50
I242
tp1717
sI14
(I1758
I1756
I-50
I242
tp1718
sI15
(I1759
I1755
I-51
I242
tp1719
ssba(iSample
Sample
p1720
(dp1721
g3
S'85d2'
p1722
sg5
F1441196976.418423
sg6
(dp1723
I0
(I1762
I1756
I-47
I242
tp1724
sI1
(I1762
I1751
I-49
I241
tp1725
sI2
(I1761
I1745
I-49
I239
tp1726
sI3
(I1764
I1733
I-52
I242
tp1727
sI4
(I1763
I1749
I-55
I242
tp1728
sI5
(I1766
I1752
I-58
I242
tp1729
sI6
(I1762
I1750
I-56
I231
tp1730
sI7
(I1762
I1749
I-60
I242
tp1731
ssba(iSample
Sample
p1732
(dp1733
g3
S'85d2'
p1734
sg5
F1441196978.445034
sg6
(dp1735
I8
(I1765
I1735
I-57
I242
tp1736
sI9
(I1766
I1741
I-56
I241
tp1737
sI10
(I1766
I1697
I-53
I240
tp1738
sI11
(I1768
I1750
I-50
I242
tp1739
sI12
(I1768
I1757
I-49
I242
tp1740
sI13
(I1767
I1764
I-50
I242
tp1741
sI14
(I1765
I1763
I-51
I242
tp1742
sI15
(I1766
I1762
I-52
I236
tp1743
ssba(iSample
Sample
p1744
(dp1745
g3
S'85d2'
p1746
sg5
F1441196980.470675
sg6
(dp1747
I0
(I1770
I1764
I-48
I236
tp1748
sI1
(I1770
I1759
I-51
I231
tp1749
sI2
(I1768
I1752
I-51
I240
tp1750
sI3
(I1771
I1739
I-53
I234
tp1751
sI4
(I1771
I1757
I-57
I238
tp1752
sI5
(I1774
I1760
I-62
I236
tp1753
sI6
(I1770
I1758
I-59
I241
tp1754
sI7
(I1770
I1757
I-61
I239
tp1755
ssba(iSample
Sample
p1756
(dp1757
g3
S'85d2'
p1758
sg5
F1441196982.466357
sg6
(dp1759
I8
(I1773
I1743
I-59
I234
tp1760
sI9
(I1773
I1748
I-56
I236
tp1761
sI10
(I1773
I1704
I-53
I235
tp1762
sI11
(I1776
I1758
I-50
I242
tp1763
sI12
(I1775
I1764
I-49
I240
tp1764
sI13
(I1775
I1772
I-50
I241
tp1765
sI14
(I1772
I1770
I-50
I242
tp1766
sI15
(I1773
I1769
I-52
I232
tp1767
ssba(iSample
Sample
p1768
(dp1769
g3
S'85d2'
p1770
sg5
F1441196984.491953
sg6
(dp1771
I0
(I1777
I1771
I-48
I242
tp1772
sI1
(I1778
I1767
I-50
I242
tp1773
sI2
(I1775
I1759
I-50
I233
tp1774
sI3
(I1778
I1746
I-52
I234
tp1775
sI4
(I1778
I1764
I-56
I235
tp1776
sI5
(I1782
I1768
I-62
I242
tp1777
sI6
(I1778
I1766
I-58
I236
tp1778
sI7
(I1778
I1765
I-61
I239
tp1779
ssba(iSample
Sample
p1780
(dp1781
g3
S'85d2'
p1782
sg5
F1441196986.518077
sg6
(dp1783
I8
(I1781
I1751
I-59
I242
tp1784
sI9
(I1781
I1756
I-56
I226
tp1785
sI10
(I1782
I1713
I-53
I239
tp1786
sI11
(I1784
I1766
I-50
I235
tp1787
sI12
(I1782
I1771
I-49
I238
tp1788
sI13
(I1782
I1779
I-50
I230
tp1789
sI14
(I1781
I1779
I-51
I242
tp1790
sI15
(I1780
I1776
I-51
I241
tp1791
ssba(iSample
Sample
p1792
(dp1793
g3
S'85d2'
p1794
sg5
F1441196988.498611
sg6
(dp1795
I0
(I1784
I1778
I-49
I242
tp1796
sI1
(I1785
I1774
I-51
I238
tp1797
sI2
(I1782
I1766
I-51
I240
tp1798
sI3
(I1787
I1755
I-54
I242
tp1799
sI4
(I1786
I1772
I-57
I242
tp1800
sI5
(I1789
I1775
I-62
I242
tp1801
sI6
(I1786
I1773
I-57
I241
tp1802
sI7
(I1785
I1772
I-62
I242
tp1803
ssba(iSample
Sample
p1804
(dp1805
g3
S'85d2'
p1806
sg5
F1441196990.524677
sg6
(dp1807
I8
(I1788
I1758
I-57
I230
tp1808
sI9
(I1788
I1763
I-55
I241
tp1809
sI10
(I1790
I1721
I-52
I236
tp1810
sI11
(I1791
I1772
I-50
I241
tp1811
sI12
(I1789
I1778
I-49
I242
tp1812
sI13
(I1790
I1787
I-50
I242
tp1813
sI14
(I1789
I1787
I-50
I242
tp1814
sI15
(I1788
I1784
I-52
I233
tp1815
ssba(iSample
Sample
p1816
(dp1817
g3
S'85d2'
p1818
sg5
F1441196992.550843
sg6
(dp1819
I0
(I1791
I1785
I-48
I241
tp1820
sI1
(I1793
I1782
I-48
I238
tp1821
sI2
(I1790
I1774
I-49
I236
tp1822
sI3
(I1795
I1763
I-52
I241
tp1823
sI4
(I1793
I1779
I-55
I242
tp1824
sI5
(I1795
I1780
I-60
I242
tp1825
sI6
(I1793
I1781
I-56
I242
tp1826
sI7
(I1793
I1780
I-60
I241
tp1827
ssba(iSample
Sample
p1828
(dp1829
g3
S'85d2'
p1830
sg5
F1441196994.576796
sg6
(dp1831
I8
(I1796
I1766
I-61
I238
tp1832
sI9
(I1795
I1770
I-56
I238
tp1833
sI10
(I1797
I1727
I-51
I239
tp1834
sI11
(I1797
I1779
I-50
I238
tp1835
sI12
(I1797
I1786
I-49
I236
tp1836
sI13
(I1797
I1794
I-49
I242
tp1837
sI14
(I1796
I1794
I-50
I242
tp1838
sI15
(I1796
I1792
I-51
I242
tp1839
ssba(iSample
Sample
p1840
(dp1841
g3
S'85d2'
p1842
sg5
F1441196996.601949
sg6
(dp1843
I0
(I1799
I1793
I-48
I242
tp1844
sI1
(I1801
I1789
I-49
I242
tp1845
sI2
(I1798
I1782
I-50
I242
tp1846
sI3
(I1802
I1770
I-52
I242
tp1847
sI4
(I1800
I1786
I-56
I228
tp1848
sI5
(I1803
I1788
I-60
I242
tp1849
sI6
(I1801
I1789
I-58
I241
tp1850
sI7
(I1800
I1787
I-60
I242
tp1851
ssba(iSample
Sample
p1852
(dp1853
g3
S'85d2'
p1854
sg5
F1441196998.567588
sg6
(dp1855
I8
(I1804
I1774
I-57
I233
tp1856
sI9
(I1802
I1777
I-54
I238
tp1857
sI10
(I1805
I1735
I-51
I235
tp1858
sI11
(I1805
I1787
I-50
I242
tp1859
sI12
(I1805
I1794
I-49
I242
tp1860
sI13
(I1804
I1801
I-50
I236
tp1861
sI14
(I1804
I1802
I-50
I239
tp1862
sI15
(I1803
I1799
I-52
I242
tp1863
ssba(iSample
Sample
p1864
(dp1865
g3
S'85d2'
p1866
sg5
F1441197000.59367
sg6
(dp1867
I0
(I1807
I1801
I-48
I242
tp1868
sI1
(I1807
I1796
I-51
I239
tp1869
sI2
(I1805
I1789
I-50
I242
tp1870
sI3
(I1810
I1778
I-53
I236
tp1871
sI4
(I1807
I1793
I-58
I241
tp1872
sI5
(I1811
I1796
I-60
I241
tp1873
sI6
(I1808
I1796
I-56
I241
tp1874
sI7
(I1807
I1794
I-58
I229
tp1875
ssba(iSample
Sample
p1876
(dp1877
g3
S'85d2'
p1878
sg5
F1441197002.61884
sg6
(dp1879
I8
(I1811
I1781
I-59
I242
tp1880
sI9
(I1810
I1785
I-57
I241
tp1881
sI10
(I1812
I1742
I-53
I242
tp1882
sI11
(I1813
I1795
I-50
I242
tp1883
sI12
(I1812
I1801
I-49
I242
tp1884
sI13
(I1811
I1808
I-49
I242
tp1885
sI14
(I1812
I1810
I-49
I242
tp1886
sI15
(I1811
I1807
I-51
I242
tp1887
ssba(iSample
Sample
p1888
(dp1889
g3
S'85d2'
p1890
sg5
F1441197004.645046
sg6
(dp1891
I0
(I1814
I1808
I-48
I242
tp1892
sI1
(I1814
I1803
I-50
I239
tp1893
sI2
(I1813
I1797
I-51
I235
tp1894
sI3
(I1818
I1785
I-54
I242
tp1895
sI4
(I1815
I1801
I-56
I231
tp1896
sI5
(I1819
I1804
I-58
I235
tp1897
sI6
(I1815
I1803
I-56
I237
tp1898
sI7
(I1814
I1801
I-58
I236
tp1899
ssba(iSample
Sample
p1900
(dp1901
g3
S'85d2'
p1902
sg5
F1441197006.641432
sg6
(dp1903
I8
(I1818
I1788
I-58
I240
tp1904
sI9
(I1818
I1793
I-59
I238
tp1905
sI10
(I1819
I1749
I-52
I235
tp1906
sI11
(I1821
I1803
I-48
I241
tp1907
sI12
(I1820
I1809
I-46
I239
tp1908
sI13
(I1819
I1816
I-46
I242
tp1909
sI14
(I1820
I1818
I-46
I242
tp1910
sI15
(I1819
I1815
I-47
I239
tp1911
ssba(iSample
Sample
p1912
(dp1913
g3
S'85d2'
p1914
sg5
F1441197008.666609
sg6
(dp1915
I0
(I1822
I1816
I-44
I242
tp1916
sI1
(I1823
I1812
I-44
I242
tp1917
sI2
(I1821
I1805
I-46
I242
tp1918
sI3
(I1825
I1792
I-49
I242
tp1919
sI4
(I1823
I1809
I-51
I236
tp1920
sI5
(I1826
I1811
I-54
I234
tp1921
sI6
(I1822
I1810
I-58
I239
tp1922
sI7
(I1822
I1809
I-56
I237
tp1923
ssba(iSample
Sample
p1924
(dp1925
g3
S'85d2'
p1926
sg5
F1441197010.692548
sg6
(dp1927
I8
(I1825
I1795
I-54
I233
tp1928
sI9
(I1825
I1800
I-58
I242
tp1929
sI10
(I1826
I1755
I-60
I230
tp1930
sI11
(I1828
I1810
I-60
I242
tp1931
sI12
(I1828
I1817
I-51
I242
tp1932
sI13
(I1827
I1824
I-48
I242
tp1933
sI14
(I1826
I1824
I-47
I242
tp1934
sI15
(I1826
I1822
I-49
I242
tp1935
ssba(iSample
Sample
p1936
(dp1937
g3
S'85d2'
p1938
sg5
F1441197012.673713
sg6
(dp1939
I0
(I1830
I1824
I-45
I242
tp1940
sI1
(I1831
I1820
I-43
I242
tp1941
sI2
(I1828
I1812
I-45
I242
tp1942
sI3
(I1831
I1798
I-45
I235
tp1943
sI4
(I1830
I1816
I-47
I242
tp1944
sI5
(I1834
I1819
I-51
I241
tp1945
sI6
(I1831
I1819
I-49
I242
tp1946
sI7
(I1830
I1817
I-52
I242
tp1947
ssba(iSample
Sample
p1948
(dp1949
g3
S'85d2'
p1950
sg5
F1441197014.698573
sg6
(dp1951
I8
(I1834
I1804
I-59
I242
tp1952
sI9
(I1833
I1808
I-68
I242
tp1953
sI10
(I1834
I1763
I-62
I236
tp1954
sI11
(I1836
I1818
I-53
I242
tp1955
sI12
(I1835
I1823
I-49
I242
tp1956
sI13
(I1834
I1831
I-48
I242
tp1957
sI14
(I1834
I1832
I-48
I242
tp1958
sI15
(I1832
I1828
I-48
I238
tp1959
ssba(iSample
Sample
p1960
(dp1961
g3
S'85d2'
p1962
sg5
F1441197016.724924
sg6
(dp1963
I0
(I1836
I1830
I-44
I236
tp1964
sI1
(I1838
I1827
I-45
I242
tp1965
sI2
(I1834
I1818
I-44
I242
tp1966
sI3
(I1839
I1806
I-46
I242
tp1967
sI4
(I1838
I1824
I-48
I242
tp1968
sI5
(I1841
I1826
I-51
I236
tp1969
sI6
(I1839
I1827
I-51
I233
tp1970
sI7
(I1837
I1824
I-54
I234
tp1971
ssba(iSample
Sample
p1972
(dp1973
g3
S'85d2'
p1974
sg5
F1441197018.750728
sg6
(dp1975
I8
(I1842
I1811
I-56
I235
tp1976
sI9
(I1841
I1816
I-64
I242
tp1977
sI10
(I1842
I1771
I-69
I242
tp1978
sI11
(I1843
I1825
I-53
I242
tp1979
sI12
(I1841
I1830
I-49
I241
tp1980
sI13
(I1842
I1839
I-47
I242
tp1981
sI14
(I1842
I1840
I-47
I242
tp1982
sI15
(I1840
I1836
I-48
I242
tp1983
ssba(iSample
Sample
p1984
(dp1985
g3
S'85d2'
p1986
sg5
F1441197020.7761
sg6
(dp1987
I0
(I1843
I1837
I-45
I242
tp1988
sI1
(I1846
I1835
I-44
I242
tp1989
sI2
(I1842
I1826
I-45
I239
tp1990
sI3
(I1847
I1814
I-46
I242
tp1991
sI4
(I1846
I1831
I-48
I242
tp1992
sI5
(I1848
I1833
I-51
I242
tp1993
sI6
(I1846
I1834
I-50
I241
tp1994
sI7
(I1845
I1832
I-53
I235
tp1995
ssba(iSample
Sample
p1996
(dp1997
g3
S'85d2'
p1998
sg5
F1441197022.741726
sg6
(dp1999
I8
(I1849
I1818
I-55
I239
tp2000
sI9
(I1847
I1822
I-62
I242
tp2001
sI10
(I1849
I1778
I-62
I239
tp2002
sI11
(I1850
I1832
I-53
I236
tp2003
sI12
(I1849
I1838
I-48
I242
tp2004
sI13
(I1849
I1846
I-46
I242
tp2005
sI14
(I1850
I1848
I-46
I242
tp2006
sI15
(I1848
I1844
I-47
I239
tp2007
ssba(iSample
Sample
p2008
(dp2009
g3
S'85d2'
p2010
sg5
F1441197024.767346
sg6
(dp2011
I0
(I1851
I1845
I-45
I242
tp2012
sI1
(I1854
I1843
I-45
I241
tp2013
sI2
(I1850
I1834
I-45
I242
tp2014
sI3
(I1855
I1822
I-46
I242
tp2015
sI4
(I1852
I1838
I-48
I242
tp2016
sI5
(I1855
I1840
I-52
I242
tp2017
sI6
(I1854
I1841
I-51
I242
tp2018
sI7
(I1852
I1839
I-52
I232
tp2019
ssba(iSample
Sample
p2020
(dp2021
g3
S'85d2'
p2022
sg5
F1441197026.793469
sg6
(dp2023
I8
(I1857
I1826
I-60
I239
tp2024
sI9
(I1854
I1829
I-66
I242
tp2025
sI10
(I1857
I1785
I-61
I236
tp2026
sI11
(I1857
I1839
I-53
I236
tp2027
sI12
(I1857
I1846
I-49
I239
tp2028
sI13
(I1856
I1853
I-47
I236
tp2029
sI14
(I1857
I1855
I-47
I242
tp2030
sI15
(I1856
I1852
I-47
I242
tp2031
ssba(iSample
Sample
p2032
(dp2033
g3
S'85d2'
p2034
sg5
F1441197028.819674
sg6
(dp2035
I0
(I1859
I1853
I-45
I242
tp2036
sI1
(I1861
I1850
I-45
I242
tp2037
sI2
(I1858
I1842
I-46
I242
tp2038
sI3
(I1862
I1829
I-48
I242
tp2039
sI4
(I1859
I1845
I-49
I242
tp2040
sI5
(I1863
I1847
I-52
I242
tp2041
sI6
(I1861
I1848
I-51
I240
tp2042
sI7
(I1859
I1846
I-54
I241
tp2043
ssba(iSample
Sample
p2044
(dp2045
g3
S'85d2'
p2046
sg5
F1441197030.815206
sg6
(dp2047
I8
(I1864
I1833
I-58
I236
tp2048
sI9
(I1862
I1837
I-65
I242
tp2049
sI10
(I1865
I1792
I-63
I239
tp2050
sI11
(I1865
I1847
I-53
I242
tp2051
sI12
(I1865
I1854
I-48
I242
tp2052
sI13
(I1863
I1860
I-47
I242
tp2053
sI14
(I1865
I1863
I-47
I242
tp2054
sI15
(I1863
I1859
I-47
I236
tp2055
ssba(iSample
Sample
p2056
(dp2057
g3
S'85d2'
p2058
sg5
F1441197032.84092
sg6
(dp2059
I0
(I1867
I1861
I-48
I241
tp2060
sI1
(I1868
I1857
I-46
I242
tp2061
sI2
(I1865
I1849
I-47
I242
tp2062
sI3
(I1870
I1837
I-46
I242
tp2063
sI4
(I1868
I1854
I-47
I241
tp2064
sI5
(I1871
I1855
I-48
I242
tp2065
sI6
(I1868
I1855
I-50
I242
tp2066
sI7
(I1866
I1853
I-49
I241
tp2067
ssba(iSample
Sample
p2068
(dp2069
g3
S'85d2'
p2070
sg5
F1441197034.866819
sg6
(dp2071
I8
(I1871
I1840
I-57
I241
tp2072
sI9
(I1870
I1844
I-57
I242
tp2073
sI10
(I1872
I1797
I-55
I239
tp2074
sI11
(I1873
I1855
I-53
I234
tp2075
sI12
(I1872
I1861
I-49
I242
tp2076
sI13
(I1872
I1869
I-47
I242
tp2077
sI14
(I1872
I1870
I-47
I242
tp2078
sI15
(I1871
I1867
I-47
I242
tp2079
ssba(iSample
Sample
p2080
(dp2081
g3
S'85d2'
p2082
sg5
F1441197036.847434
sg6
(dp2083
I0
(I1874
I1868
I-47
I242
tp2084
sI1
(I1875
I1864
I-46
I242
tp2085
sI2
(I1873
I1857
I-46
I242
tp2086
sI3
(I1877
I1844
I-47
I242
tp2087
sI4
(I1876
I1862
I-47
I242
tp2088
sI5
(I1878
I1862
I-51
I242
tp2089
sI6
(I1875
I1862
I-52
I236
tp2090
sI7
(I1875
I1862
I-53
I240
tp2091
ssba(iSample
Sample
p2092
(dp2093
g3
S'85d2'
p2094
sg5
F1441197038.873757
sg6
(dp2095
I8
(I1878
I1847
I-53
I242
tp2096
sI9
(I1877
I1851
I-52
I242
tp2097
sI10
(I1878
I1803
I-53
I240
tp2098
sI11
(I1880
I1862
I-52
I242
tp2099
sI12
(I1880
I1869
I-49
I242
tp2100
sI13
(I1880
I1877
I-48
I242
tp2101
sI14
(I1880
I1878
I-47
I242
tp2102
sI15
(I1878
I1874
I-47
I242
tp2103
ssba(iSample
Sample
p2104
(dp2105
g3
S'85d2'
p2106
sg5
F1441197040.899297
sg6
(dp2107
I0
(I1882
I1876
I-47
I242
tp2108
sI1
(I1883
I1872
I-46
I241
tp2109
sI2
(I1880
I1864
I-47
I242
tp2110
sI3
(I1884
I1851
I-48
I242
tp2111
sI4
(I1883
I1869
I-49
I242
tp2112
sI5
(I1886
I1870
I-50
I235
tp2113
sI6
(I1883
I1870
I-50
I238
tp2114
sI7
(I1883
I1869
I-54
I235
tp2115
ssba(iSample
Sample
p2116
(dp2117
g3
S'85d2'
p2118
sg5
F1441197042.925333
sg6
(dp2119
I8
(I1886
I1855
I-59
I240
tp2120
sI9
(I1885
I1859
I-57
I239
tp2121
sI10
(I1886
I1810
I-58
I242
tp2122
sI11
(I1888
I1870
I-53
I242
tp2123
sI12
(I1887
I1876
I-49
I242
tp2124
sI13
(I1887
I1884
I-48
I234
tp2125
sI14
(I1887
I1885
I-47
I239
tp2126
sI15
(I1885
I1881
I-47
I242
tp2127
ssba(iSample
Sample
p2128
(dp2129
g3
S'85d2'
p2130
sg5
F1441197044.951469
sg6
(dp2131
I0
(I1889
I1883
I-47
I242
tp2132
sI1
(I1891
I1880
I-47
I242
tp2133
sI2
(I1887
I1871
I-49
I242
tp2134
sI3
(I1891
I1858
I-52
I242
tp2135
sI4
(I1891
I1877
I-51
I239
tp2136
sI5
(I1893
I1877
I-52
I230
tp2137
sI6
(I1891
I1878
I-53
I242
tp2138
sI7
(I1890
I1876
I-56
I236
tp2139
ssba(iSample
Sample
p2140
(dp2141
g3
S'85d2'
p2142
sg5
F1441197046.916203
sg6
(dp2143
I8
(I1894
I1862
I-60
I242
tp2144
sI9
(I1893
I1867
I-60
I239
tp2145
sI10
(I1894
I1818
I-65
I242
tp2146
sI11
(I1895
I1877
I-55
I241
tp2147
sI12
(I1894
I1883
I-51
I242
tp2148
sI13
(I1895
I1892
I-49
I236
tp2149
sI14
(I1895
I1893
I-48
I242
tp2150
sI15
(I1892
I1888
I-48
I242
tp2151
ssba(iSample
Sample
p2152
(dp2153
g3
S'85d2'
p2154
sg5
F1441197048.94351
sg6
(dp2155
I0
(I1896
I1890
I-48
I242
tp2156
sI1
(I1898
I1887
I-48
I239
tp2157
sI2
(I1894
I1878
I-48
I242
tp2158
sI3
(I1899
I1866
I-51
I242
tp2159
sI4
(I1899
I1885
I-51
I242
tp2160
sI5
(I1900
I1884
I-51
I242
tp2161
sI6
(I1898
I1885
I-51
I235
tp2162
sI7
(I1898
I1884
I-55
I241
tp2163
ssba(iSample
Sample
p2164
(dp2165
g3
S'85d2'
p2166
sg5
F1441197050.968159
sg6
(dp2167
I8
(I1901
I1869
I-56
I236
tp2168
sI9
(I1900
I1874
I-53
I238
tp2169
sI10
(I1902
I1826
I-56
I242
tp2170
sI11
(I1902
I1884
I-51
I241
tp2171
sI12
(I1901
I1890
I-49
I242
tp2172
sI13
(I1903
I1900
I-48
I242
tp2173
sI14
(I1903
I1901
I-47
I242
tp2174
sI15
(I1900
I1896
I-47
I242
tp2175
ssba(iSample
Sample
p2176
(dp2177
g3
S'85d2'
p2178
sg5
F1441197052.994828
sg6
(dp2179
I0
(I1903
I1897
I-48
I242
tp2180
sI1
(I1906
I1895
I-47
I242
tp2181
sI2
(I1902
I1886
I-47
I242
tp2182
sI3
(I1907
I1874
I-49
I239
tp2183
sI4
(I1906
I1892
I-48
I241
tp2184
sI5
(I1907
I1891
I-48
I238
tp2185
sI6
(I1906
I1893
I-50
I242
tp2186
sI7
(I1906
I1892
I-50
I242
tp2187
ssba(iSample
Sample
p2188
(dp2189
g3
S'85d2'
p2190
sg5
F1441197054.989607
sg6
(dp2191
I8
(I1909
I1877
I-53
I239
tp2192
sI9
(I1907
I1881
I-51
I242
tp2193
sI10
(I1909
I1833
I-54
I236
tp2194
sI11
(I1909
I1891
I-50
I235
tp2195
sI12
(I1909
I1898
I-49
I242
tp2196
sI13
(I1910
I1907
I-49
I236
tp2197
sI14
(I1910
I1908
I-47
I242
tp2198
sI15
(I1908
I1904
I-47
I240
tp2199
ssba(iSample
Sample
p2200
(dp2201
g3
S'85d2'
p2202
sg5
F1441197057.015303
sg6
(dp2203
I0
(I1911
I1905
I-50
I239
tp2204
sI1
(I1913
I1902
I-48
I242
tp2205
sI2
(I1910
I1894
I-48
I242
tp2206
sI3
(I1914
I1881
I-48
I242
tp2207
sI4
(I1913
I1899
I-48
I242
tp2208
sI5
(I1916
I1900
I-49
I242
tp2209
sI6
(I1914
I1901
I-53
I242
tp2210
sI7
(I1913
I1899
I-53
I240
tp2211
ssba(iSample
Sample
p2212
(dp2213
g3
S'85d2'
p2214
sg5
F1441197059.041843
sg6
(dp2215
I8
(I1917
I1885
I-53
I242
tp2216
sI9
(I1914
I1888
I-52
I241
tp2217
sI10
(I1917
I1841
I-54
I239
tp2218
sI11
(I1918
I1900
I-53
I242
tp2219
sI12
(I1917
I1906
I-50
I235
tp2220
sI13
(I1916
I1913
I-49
I242
tp2221
sI14
(I1918
I1916
I-48
I242
tp2222
sI15
(I1915
I1911
I-48
I242
tp2223
ssba(iSample
Sample
p2224
(dp2225
g3
S'85d2'
p2226
sg5
F1441197061.021449
sg6
(dp2227
I0
(I1919
I1913
I-50
I242
tp2228
sI1
(I1920
I1909
I-48
I242
tp2229
sI2
(I1917
I1901
I-49
I236
tp2230
sI3
(I1922
I1889
I-49
I236
tp2231
sI4
(I1920
I1906
I-48
I241
tp2232
sI5
(I1924
I1908
I-50
I236
tp2233
sI6
(I1921
I1908
I-53
I241
tp2234
sI7
(I1919
I1905
I-53
I242
tp2235
ssba(iSample
Sample
p2236
(dp2237
g3
S'85d2'
p2238
sg5
F1441197063.048193
sg6
(dp2239
I8
(I1924
I1891
I-50
I242
tp2240
sI9
(I1923
I1897
I-50
I242
tp2241
sI10
(I1924
I1848
I-51
I240
tp2242
sI11
(I1926
I1908
I-51
I239
tp2243
sI12
(I1924
I1913
I-48
I242
tp2244
sI13
(I1924
I1921
I-47
I242
tp2245
sI14
(I1926
I1924
I-46
I242
tp2246
sI15
(I1923
I1919
I-46
I242
tp2247
ssba(iSample
Sample
p2248
(dp2249
g3
S'85d2'
p2250
sg5
F1441197065.073807
sg6
(dp2251
I0
(I1926
I1920
I-49
I242
tp2252
sI1
(I1927
I1916
I-45
I242
tp2253
sI2
(I1925
I1909
I-46
I233
tp2254
sI3
(I1930
I1897
I-48
I236
tp2255
sI4
(I1928
I1914
I-45
I242
tp2256
sI5
(I1931
I1915
I-46
I242
tp2257
sI6
(I1927
I1914
I-46
I242
tp2258
sI7
(I1927
I1913
I-49
I241
tp2259
ssba(iSample
Sample
p2260
(dp2261
g3
S'85d2'
p2262
sg5
F1441197067.099415
sg6
(dp2263
I8
(I1930
I1898
I-52
I241
tp2264
sI9
(I1931
I1905
I-52
I240
tp2265
sI10
(I1931
I1855
I-54
I237
tp2266
sI11
(I1933
I1915
I-51
I242
tp2267
sI12
(I1932
I1921
I-49
I241
tp2268
sI13
(I1932
I1929
I-48
I242
tp2269
sI14
(I1932
I1930
I-47
I242
tp2270
sI15
(I1931
I1927
I-47
I242
tp2271
ssba(iSample
Sample
p2272
(dp2273
g3
S'85d2'
p2274
sg5
F1441197069.125375
sg6
(dp2275
I0
(I1934
I1928
I-56
I236
tp2276
sI1
(I1935
I1924
I-53
I233
tp2277
sI2
(I1932
I1916
I-52
I233
tp2278
sI3
(I1936
I1903
I-53
I241
tp2279
sI4
(I1936
I1922
I-51
I236
tp2280
sI5
(I1939
I1923
I-53
I233
tp2281
sI6
(I1935
I1921
I-53
I234
tp2282
sI7
(I1935
I1921
I-61
I235
tp2283
ssba(iSample
Sample
p2284
(dp2285
g3
S'85d2'
p2286
sg5
F1441197071.090602
sg6
(dp2287
I8
(I1938
I1906
I-57
I238
tp2288
sI9
(I1938
I1912
I-57
I241
tp2289
sI10
(I1938
I1862
I-56
I240
tp2290
sI11
(I1941
I1923
I-52
I236
tp2291
sI12
(I1939
I1928
I-49
I239
tp2292
sI13
(I1940
I1937
I-48
I242
tp2293
sI14
(I1939
I1937
I-48
I242
tp2294
sI15
(I1937
I1933
I-47
I242
tp2295
ssba(iSample
Sample
p2296
(dp2297
g3
S'85d2'
p2298
sg5
F1441197073.116364
sg6
(dp2299
I0
(I1941
I1935
I-51
I242
tp2300
sI1
(I1943
I1932
I-49
I239
tp2301
sI2
(I1939
I1923
I-49
I242
tp2302
sI3
(I1943
I1909
I-51
I242
tp2303
sI4
(I1943
I1929
I-53
I232
tp2304
sI5
(I1947
I1931
I-51
I242
tp2305
sI6
(I1943
I1929
I-55
I236
tp2306
sI7
(I1943
I1929
I-68
I242
tp2307
ssba(iSample
Sample
p2308
(dp2309
g3
S'85d2'
p2310
sg5
F1441197075.142077
sg6
(dp2311
I8
(I1946
I1913
I-67
I241
tp2312
sI9
(I1946
I1919
I-58
I237
tp2313
sI10
(I1946
I1870
I-60
I242
tp2314
sI11
(I1949
I1931
I-53
I242
tp2315
sI12
(I1946
I1935
I-51
I234
tp2316
sI13
(I1947
I1944
I-51
I242
tp2317
sI14
(I1947
I1945
I-49
I242
tp2318
sI15
(I1944
I1940
I-49
I242
tp2319
ssba(iSample
Sample
p2320
(dp2321
g3
S'85d2'
p2322
sg5
F1441197077.168615
sg6
(dp2323
I0
(I1948
I1942
I-51
I242
tp2324
sI1
(I1950
I1939
I-49
I242
tp2325
sI2
(I1946
I1930
I-49
I242
tp2326
sI3
(I1951
I1917
I-49
I239
tp2327
sI4
(I1951
I1937
I-48
I242
tp2328
sI5
(I1954
I1938
I-50
I236
tp2329
sI6
(I1951
I1937
I-54
I233
tp2330
sI7
(I1950
I1936
I-55
I236
tp2331
ssba(iSample
Sample
p2332
(dp2333
g3
S'85d2'
p2334
sg5
F1441197079.164523
sg6
(dp2335
I8
(I1954
I1921
I-55
I235
tp2336
sI9
(I1953
I1926
I-53
I241
tp2337
sI10
(I1954
I1878
I-53
I242
tp2338
sI11
(I1956
I1938
I-53
I232
tp2339
sI12
(I1953
I1942
I-48
I239
tp2340
sI13
(I1955
I1952
I-49
I241
tp2341
sI14
(I1955
I1953
I-47
I242
tp2342
sI15
(I1952
I1948
I-47
I239
tp2343
ssba(iSample
Sample
p2344
(dp2345
g3
S'85d2'
p2346
sg5
F1441197081.190514
sg6
(dp2347
I0
(I1955
I1949
I-59
I185
tp2348
sI1
(I1958
I1947
I-67
I242
tp2349
sI2
(I1955
I1939
I-60
I239
tp2350
sI3
(I1959
I1925
I-65
I239
tp2351
sI4
(I1958
I1944
I-60
I239
tp2352
sI5
(I1961
I1944
I-58
I242
tp2353
sI6
(I1958
I1944
I-56
I232
tp2354
sI7
(I1958
I1944
I-60
I239
tp2355
ssba(iSample
Sample
p2356
(dp2357
g3
S'85d2'
p2358
sg5
F1441197083.21574
sg6
(dp2359
I8
(I1961
I1928
I-54
I237
tp2360
sI9
(I1960
I1933
I-54
I242
tp2361
sI10
(I1961
I1885
I-53
I239
tp2362
sI11
(I1962
I1944
I-56
I234
tp2363
sI12
(I1962
I1951
I-53
I241
tp2364
sI13
(I1962
I1959
I-52
I241
tp2365
sI14
(I1963
I1961
I-50
I242
tp2366
sI15
(I1960
I1956
I-51
I236
tp2367
ssba(iSample
Sample
p2368
(dp2369
g3
S'85d2'
p2370
sg5
F1441197085.196596
sg6
(dp2371
I0
(I1964
I1958
I-52
I237
tp2372
sI1
(I1966
I1954
I-54
I230
tp2373
sI2
(I1963
I1947
I-55
I239
tp2374
sI3
(I1966
I1932
I-55
I237
tp2375
sI4
(I1965
I1951
I-56
I242
tp2376
sI5
(I1968
I1952
I-62
I242
tp2377
sI6
(I1966
I1952
I-60
I242
tp2378
sI7
(I1965
I1951
I-54
I232
tp2379
ssba(iSample
Sample
p2380
(dp2381
g3
S'85d2'
p2382
sg5
F1441197087.222042
sg6
(dp2383
I8
(I1969
I1936
I-58
I239
tp2384
sI9
(I1967
I1938
I-55
I242
tp2385
sI10
(I1969
I1891
I-55
I242
tp2386
sI11
(I1970
I1952
I-54
I242
tp2387
sI12
(I1970
I1959
I-54
I242
tp2388
sI13
(I1969
I1966
I-54
I239
tp2389
sI14
(I1970
I1968
I-54
I231
tp2390
sI15
(I1967
I1963
I-52
I241
tp2391
ssba(iSample
Sample
p2392
(dp2393
g3
S'85d2'
p2394
sg5
F1441197089.247772
sg6
(dp2395
I0
(I1972
I1966
I-60
I242
tp2396
sI1
(I1972
I1960
I-60
I237
tp2397
sI2
(I1970
I1952
I-56
I239
tp2398
sI3
(I1974
I1939
I-57
I232
tp2399
sI4
(I1972
I1958
I-55
I242
tp2400
sI5
(I1976
I1959
I-54
I234
tp2401
sI6
(I1973
I1959
I-54
I231
tp2402
sI7
(I1972
I1958
I-57
I242
tp2403
ssba(iSample
Sample
p2404
(dp2405
g3
S'85d2'
p2406
sg5
F1441197091.274281
sg6
(dp2407
I8
(I1976
I1943
I-61
I241
tp2408
sI9
(I1975
I1945
I-62
I236
tp2409
sI10
(I1977
I1899
I-59
I240
tp2410
sI11
(I1978
I1959
I-56
I236
tp2411
sI12
(I1977
I1966
I-56
I235
tp2412
sI13
(I1976
I1973
I-56
I240
tp2413
sI14
(I1978
I1976
I-55
I239
tp2414
sI15
(I1975
I1971
I-53
I241
tp2415
ssba(iSample
Sample
p2416
(dp2417
g3
S'85d2'
p2418
sg5
F1441197093.29995
sg6
(dp2419
I0
(I1979
I1973
I-61
I240
tp2420
sI1
(I1979
I1967
I-58
I231
tp2421
sI2
(I1978
I1960
I-55
I238
tp2422
sI3
(I1982
I1947
I-55
I239
tp2423
sI4
(I1980
I1966
I-54
I234
tp2424
sI5
(I1984
I1967
I-54
I242
tp2425
sI6
(I1980
I1966
I-53
I234
tp2426
sI7
(I1979
I1965
I-57
I241
tp2427
ssba(iSample
Sample
p2428
(dp2429
g3
S'85d2'
p2430
sg5
F1441197095.265522
sg6
(dp2431
I8
(I1983
I1950
I-55
I242
tp2432
sI9
(I1983
I1953
I-54
I233
tp2433
sI10
(I1983
I1905
I-52
I234
tp2434
sI11
(I1986
I1967
I-50
I242
tp2435
sI12
(I1985
I1974
I-49
I242
tp2436
sI13
(I1984
I1981
I-50
I242
tp2437
sI14
(I1985
I1983
I-49
I242
tp2438
sI15
(I1983
I1979
I-48
I242
tp2439
ssba(iSample
Sample
p2440
(dp2441
g3
S'85d2'
p2442
sg5
F1441197097.291126
sg6
(dp2443
I0
(I1987
I1980
I-53
I230
tp2444
sI1
(I1987
I1975
I-53
I236
tp2445
sI2
(I1986
I1968
I-56
I241
tp2446
sI3
(I1989
I1954
I-56
I222
tp2447
sI4
(I1988
I1972
I-59
I242
tp2448
sI5
(I1991
I1974
I-76
I241
tp2449
sI6
(I1987
I1973
I-63
I239
tp2450
sI7
(I1987
I1973
I-56
I235
tp2451
ssba(iSample
Sample
p2452
(dp2453
g3
S'85d2'
p2454
sg5
F1441197099.317259
sg6
(dp2455
I8
(I1990
I1957
I-53
I232
tp2456
sI9
(I1990
I1959
I-52
I241
tp2457
sI10
(I1990
I1912
I-50
I241
tp2458
sI11
(I1993
I1974
I-49
I242
tp2459
sI12
(I1993
I1982
I-49
I242
tp2460
sI13
(I1992
I1989
I-49
I239
tp2461
sI14
(I1992
I1990
I-48
I235
tp2462
sI15
(I1990
I1986
I-49
I242
tp2463
ssba(iSample
Sample
p2464
(dp2465
g3
S'85d2'
p2466
sg5
F1441197101.343564
sg6
(dp2467
I0
(I1995
I1988
I-53
I234
tp2468
sI1
(I1995
I1983
I-53
I232
tp2469
sI2
(I1993
I1975
I-56
I230
tp2470
sI3
(I1996
I1960
I-55
I228
tp2471
sI4
(I1995
I1979
I-58
I231
tp2472
sI5
(I1999
I1982
I-68
I238
tp2473
sI6
(I1995
I1981
I-59
I242
tp2474
sI7
(I1995
I1981
I-54
I240
tp2475
ssba(iSample
Sample
p2476
(dp2477
g3
S'85d2'
p2478
sg5
F1441197103.338024
sg6
(dp2479
I8
(I1998
I1964
I-54
I239
tp2480
sI9
(I1998
I1967
I-54
I232
tp2481
sI10
(I1998
I1920
I-54
I238
tp2482
sI11
(I2001
I1982
I-57
I239
tp2483
sI12
(I2000
I1989
I-59
I239
tp2484
sI13
(I1999
I1996
I-57
I242
tp2485
sI14
(I1999
I1997
I-53
I236
tp2486
sI15
(I1997
I1993
I-53
I235
tp2487
ssba(iSample
Sample
p2488
(dp2489
g3
S'85d2'
p2490
sg5
F1441197105.363639
sg6
(dp2491
I0
(I2002
I1995
I-47
I242
tp2492
sI1
(I2003
I1991
I-48
I242
tp2493
sI2
(I2000
I1981
I-47
I242
tp2494
sI3
(I2003
I1967
I-52
I242
tp2495
sI4
(I2003
I1987
I-53
I242
tp2496
sI5
(I2006
I1989
I-50
I239
tp2497
sI6
(I2003
I1989
I-48
I242
tp2498
sI7
(I2002
I1988
I-56
I241
tp2499
ssba(iSample
Sample
p2500
(dp2501
g3
S'85d2'
p2502
sg5
F1441197107.390275
sg6
(dp2503
I8
(I2006
I1972
I-51
I242
tp2504
sI9
(I2006
I1975
I-52
I236
tp2505
sI10
(I2006
I1927
I-52
I229
tp2506
sI11
(I2008
I1989
I-53
I242
tp2507
sI12
(I2006
I1995
I-54
I236
tp2508
sI13
(I2007
I2004
I-54
I234
tp2509
sI14
(I2008
I2006
I-53
I230
tp2510
sI15
(I2004
I2000
I-54
I228
tp2511
ssba(iSample
Sample
p2512
(dp2513
g3
S'85d2'
p2514
sg5
F1441197109.370893
sg6
(dp2515
I0
(I2008
I2001
I-45
I242
tp2516
sI1
(I2010
I1998
I-45
I242
tp2517
sI2
(I2007
I1989
I-45
I242
tp2518
sI3
(I2012
I1976
I-47
I242
tp2519
sI4
(I2011
I1995
I-48
I242
tp2520
sI5
(I2013
I1996
I-48
I242
tp2521
sI6
(I2010
I1995
I-49
I242
tp2522
sI7
(I2010
I1996
I-51
I242
tp2523
ssba(iSample
Sample
p2524
(dp2525
g3
S'85d2'
p2526
sg5
F1441197111.396355
sg6
(dp2527
I8
(I2013
I1979
I-50
I239
tp2528
sI9
(I2013
I1981
I-55
I242
tp2529
sI10
(I2013
I1934
I-51
I234
tp2530
sI11
(I2015
I1996
I-54
I240
tp2531
sI12
(I2014
I2003
I-52
I235
tp2532
sI13
(I2015
I2012
I-52
I242
tp2533
sI14
(I2016
I2014
I-50
I237
tp2534
sI15
(I2013
I2009
I-53
I236
tp2535
ssba(iSample
Sample
p2536
(dp2537
g3
S'85d2'
p2538
sg5
F1441197113.421971
sg6
(dp2539
I0
(I2016
I2009
I-44
I242
tp2540
sI1
(I2018
I2006
I-45
I242
tp2541
sI2
(I2015
I1997
I-47
I242
tp2542
sI3
(I2020
I1984
I-50
I242
tp2543
sI4
(I2017
I2001
I-54
I236
tp2544
sI5
(I2020
I2003
I-49
I242
tp2545
sI6
(I2018
I2003
I-51
I234
tp2546
sI7
(I2018
I2004
I-53
I237
tp2547
ssba(iSample
Sample
p2548
(dp2549
g3
S'85d2'
p2550
sg5
F1441197115.447489
sg6
(dp2551
I8
(I2021
I1987
I-55
I242
tp2552
sI9
(I2019
I1988
I-57
I238
tp2553
sI10
(I2021
I1940
I-53
I242
tp2554
sI11
(I2022
I2003
I-52
I237
tp2555
sI12
(I2022
I2011
I-49
I242
tp2556
sI13
(I2021
I2018
I-49
I240
tp2557
sI14
(I2023
I2021
I-46
I242
tp2558
sI15
(I2021
I2017
I-47
I242
tp2559
ssba(iSample
Sample
p2560
(dp2561
g3
S'85d2'
p2562
sg5
F1441197117.474274
sg6
(dp2563
I0
(I2024
I2017
I-42
I242
tp2564
sI1
(I2025
I2013
I-42
I241
tp2565
sI2
(I2023
I2005
I-44
I242
tp2566
sI3
(I2027
I1991
I-46
I242
tp2567
sI4
(I2024
I2008
I-47
I242
tp2568
sI5
(I2028
I2010
I-47
I242
tp2569
sI6
(I2025
I2010
I-48
I242
tp2570
sI7
(I2024
I2010
I-52
I242
tp2571
ssba(iSample
Sample
p2572
(dp2573
g3
S'85d2'
p2574
sg5
F1441197119.440407
sg6
(dp2575
I8
(I2028
I1994
I-54
I225
tp2576
sI9
(I2027
I1995
I-58
I232
tp2577
sI10
(I2029
I1948
I-59
I236
tp2578
sI11
(I2030
I2011
I-53
I236
tp2579
sI12
(I2030
I2019
I-50
I240
tp2580
sI13
(I2028
I2025
I-49
I242
tp2581
sI14
(I2031
I2029
I-47
I242
tp2582
sI15
(I2028
I2024
I-47
I242
tp2583
ssba(iSample
Sample
p2584
(dp2585
g3
S'85d2'
p2586
sg5
F1441197121.46549
sg6
(dp2587
I0
(I2032
I2025
I-42
I242
tp2588
sI1
(I2032
I2020
I-42
I242
tp2589
sI2
(I2030
I2012
I-44
I242
tp2590
sI3
(I2035
I1999
I-47
I241
tp2591
sI4
(I2032
I2016
I-47
I242
tp2592
sI5
(I2036
I2018
I-48
I234
tp2593
sI6
(I2032
I2017
I-49
I242
tp2594
sI7
(I2031
I2017
I-52
I239
tp2595
ssba(iSample
Sample
p2596
(dp2597
g3
S'85d2'
p2598
sg5
F1441197123.491164
sg6
(dp2599
I8
(I2035
I2001
I-58
I237
tp2600
sI9
(I2035
I2003
I-59
I242
tp2601
sI10
(I2036
I1955
I-56
I227
tp2602
sI11
(I2038
I2019
I-53
I242
tp2603
sI12
(I2037
I2026
I-49
I242
tp2604
sI13
(I2036
I2033
I-48
I242
tp2605
sI14
(I2038
I2036
I-47
I242
tp2606
sI15
(I2036
I2032
I-47
I242
tp2607
ssba(iSample
Sample
p2608
(dp2609
g3
S'85d2'
p2610
sg5
F1441197125.517697
sg6
(dp2611
I0
(I2039
I2032
I-43
I242
tp2612
sI1
(I2039
I2027
I-43
I242
tp2613
sI2
(I2038
I2020
I-44
I242
tp2614
sI3
(I2043
I2007
I-48
I242
tp2615
sI4
(I2040
I2024
I-50
I242
tp2616
sI5
(I2043
I2025
I-50
I242
tp2617
sI6
(I2039
I2024
I-50
I232
tp2618
sI7
(I2039
I2025
I-54
I235
tp2619
ssba(iSample
Sample
p2620
(dp2621
g3
S'85d2'
p2622
sg5
F1441197127.543181
sg6
(dp2623
I8
(I2042
I2008
I-59
I241
tp2624
sI9
(I2043
I2011
I-60
I242
tp2625
sI10
(I2043
I1962
I-55
I236
tp2626
sI11
(I2045
I2026
I-53
I237
tp2627
sI12
(I2045
I2034
I-50
I242
tp2628
sI13
(I2044
I2041
I-49
I242
tp2629
sI14
(I2045
I2043
I-48
I242
tp2630
sI15
(I2043
I2039
I-48
I242
tp2631
ssba(iSample
Sample
p2632
(dp2633
g3
S'85d2'
p2634
sg5
F1441197129.539264
sg6
(dp2635
I0
(I2047
I2040
I-44
I242
tp2636
sI1
(I2047
I2035
I-44
I242
tp2637
sI2
(I2045
I2027
I-46
I242
tp2638
sI3
(I2050
I2014
I-49
I242
tp2639
sI4
(I2048
I2032
I-54
I242
tp2640
sI5
(I2051
I2033
I-53
I236
tp2641
sI6
(I2047
I2032
I-53
I234
tp2642
sI7
(I2047
I2033
I-56
I233
tp2643
ssba(iSample
Sample
p2644
(dp2645
g3
S'85d2'
p2646
sg5
F1441197131.564853
sg6
(dp2647
I8
(I2051
I2017
I-59
I242
tp2648
sI9
(I2050
I2018
I-66
I242
tp2649
sI10
(I2050
I1969
I-56
I241
tp2650
sI11
(I2053
I2034
I-53
I242
tp2651
sI12
(I2052
I2041
I-50
I242
tp2652
sI13
(I2052
I2049
I-49
I242
tp2653
sI14
(I2052
I2050
I-48
I242
tp2654
sI15
(I2050
I2046
I-48
I242
tp2655
ssba(iSample
Sample
p2656
(dp2657
g3
S'85d2'
p2658
sg5
F1441197133.545546
sg6
(dp2659
I0
(I2054
I2047
I-44
I239
tp2660
sI1
(I2055
I2043
I-45
I242
tp2661
sI2
(I2052
I2034
I-47
I242
tp2662
sI3
(I2057
I2021
I-49
I242
tp2663
sI4
(I2055
I2039
I-53
I241
tp2664
sI5
(I2059
I2041
I-59
I242
tp2665
sI6
(I2055
I2040
I-56
I232
tp2666
sI7
(I2054
I2040
I-60
I238
tp2667
ssba(iSample
Sample
p2668
(dp2669
g3
S'85d2'
p2670
sg5
F1441197135.570969
sg6
(dp2671
I8
(I2059
I2025
I-57
I239
tp2672
sI9
(I2058
I2026
I-56
I242
tp2673
sI10
(I2059
I1978
I-54
I233
tp2674
sI11
(I2061
I2042
I-50
I239
tp2675
sI12
(I2059
I2048
I-48
I242
tp2676
sI13
(I2059
I2056
I-47
I242
tp2677
sI14
(I2060
I2058
I-46
I242
tp2678
sI15
(I2057
I2053
I-47
I236
tp2679
ssba(iSample
Sample
p2680
(dp2681
g3
S'85d2'
p2682
sg5
F1441197137.596486
sg6
(dp2683
I0
(I2061
I2054
I-45
I242
tp2684
sI1
(I2062
I2050
I-46
I242
tp2685
sI2
(I2059
I2041
I-46
I242
tp2686
sI3
(I2065
I2029
I-50
I239
tp2687
sI4
(I2063
I2047
I-55
I241
tp2688
sI5
(I2065
I2047
I-56
I240
tp2689
sI6
(I2062
I2047
I-58
I241
tp2690
sI7
(I2062
I2048
I-71
I236
tp2691
ssba(iSample
Sample
p2692
(dp2693
g3
S'85d2'
p2694
sg5
F1441197139.622101
sg6
(dp2695
I8
(I2066
I2032
I-66
I236
tp2696
sI9
(I2065
I2033
I-61
I241
tp2697
sI10
(I2067
I1986
I-55
I237
tp2698
sI11
(I2067
I2048
I-49
I239
tp2699
sI12
(I2066
I2055
I-48
I241
tp2700
sI13
(I2067
I2064
I-47
I239
tp2701
sI14
(I2068
I2066
I-46
I242
tp2702
sI15
(I2065
I2061
I-46
I242
tp2703
ssba(iSample
Sample
p2704
(dp2705
g3
S'85d2'
p2706
sg5
F1441197141.648756
sg6
(dp2707
I0
(I2068
I2061
I-45
I242
tp2708
sI1
(I2070
I2058
I-46
I242
tp2709
sI2
(I2067
I2049
I-47
I242
tp2710
sI3
(I2073
I2037
I-51
I240
tp2711
sI4
(I2070
I2053
I-53
I242
tp2712
sI5
(I2072
I2054
I-56
I242
tp2713
sI6
(I2070
I2055
I-56
I230
tp2714
sI7
(I2070
I2055
I-61
I242
tp2715
ssba(iSample
Sample
p2716
(dp2717
g3
S'85d2'
p2718
sg5
F1441197143.614435
sg6
(dp2719
I8
(I2074
I2040
I-66
I242
tp2720
sI9
(I2072
I2040
I-64
I237
tp2721
sI10
(I2074
I1993
I-56
I242
tp2722
sI11
(I2074
I2055
I-51
I239
tp2723
sI12
(I2074
I2063
I-49
I242
tp2724
sI13
(I2074
I2071
I-48
I242
tp2725
sI14
(I2075
I2073
I-46
I242
tp2726
sI15
(I2073
I2069
I-47
I242
tp2727
ssba(iSample
Sample
p2728
(dp2729
g3
S'85d2'
p2730
sg5
F1441197145.639985
sg6
(dp2731
I0
(I2076
I2069
I-44
I242
tp2732
sI1
(I2077
I2065
I-44
I236
tp2733
sI2
(I2075
I2057
I-46
I242
tp2734
sI3
(I2080
I2044
I-49
I240
tp2735
sI4
(I2077
I2059
I-51
I242
tp2736
sI5
(I2080
I2062
I-55
I242
tp2737
sI6
(I2078
I2063
I-55
I236
tp2738
sI7
(I2077
I2062
I-65
I233
tp2739
ssba(iSample
Sample
p2740
(dp2741
g3
S'85d2'
p2742
sg5
F1441197147.665527
sg6
(dp2743
I8
(I2082
I2048
I-61
I242
tp2744
sI9
(I2079
I2046
I-61
I242
tp2745
sI10
(I2082
I2001
I-56
I234
tp2746
sI11
(I2082
I2063
I-51
I242
tp2747
sI12
(I2082
I2071
I-48
I242
tp2748
sI13
(I2081
I2078
I-47
I242
tp2749
sI14
(I2083
I2081
I-46
I242
tp2750
sI15
(I2080
I2076
I-46
I241
tp2751
ssba(iSample
Sample
p2752
(dp2753
g3
S'85d2'
p2754
sg5
F1441197149.691206
sg6
(dp2755
I0
(I2084
I2077
I-45
I236
tp2756
sI1
(I2084
I2072
I-46
I242
tp2757
sI2
(I2082
I2064
I-47
I242
tp2758
sI3
(I2088
I2052
I-48
I236
tp2759
sI4
(I2084
I2066
I-51
I242
tp2760
sI5
(I2088
I2070
I-53
I242
tp2761
sI6
(I2085
I2070
I-53
I229
tp2762
sI7
(I2084
I2069
I-56
I242
tp2763
ssba(iSample
Sample
p2764
(dp2765
g3
S'85d2'
p2766
sg5
F1441197151.687834
sg6
(dp2767
I8
(I2089
I2055
I-52
I236
tp2768
sI9
(I2087
I2054
I-48
I242
tp2769
sI10
(I2089
I2008
I-48
I242
tp2770
sI11
(I2090
I2071
I-47
I242
tp2771
sI12
(I2089
I2078
I-45
I242
tp2772
sI13
(I2088
I2085
I-44
I242
tp2773
sI14
(I2091
I2089
I-44
I242
tp2774
sI15
(I2088
I2084
I-45
I242
tp2775
ssba(iSample
Sample
p2776
(dp2777
g3
S'85d2'
p2778
sg5
F1441197153.713862
sg6
(dp2779
I0
(I2091
I2084
I-43
I242
tp2780
sI1
(I2091
I2079
I-44
I234
tp2781
sI2
(I2090
I2072
I-46
I242
tp2782
sI3
(I2096
I2059
I-51
I242
tp2783
sI4
(I2092
I2074
I-57
I231
tp2784
sI5
(I2096
I2078
I-62
I236
tp2785
sI6
(I2092
I2076
I-59
I241
tp2786
sI7
(I2091
I2076
I-56
I235
tp2787
ssba(iSample
Sample
p2788
(dp2789
g3
S'85d2'
p2790
sg5
F1441197155.693945
sg6
(dp2791
I8
(I2095
I2061
I-51
I241
tp2792
sI9
(I2095
I2062
I-49
I242
tp2793
sI10
(I2096
I2015
I-48
I242
tp2794
sI11
(I2098
I2079
I-47
I242
tp2795
sI12
(I2097
I2086
I-45
I242
tp2796
sI13
(I2097
I2094
I-44
I241
tp2797
sI14
(I2098
I2096
I-44
I242
tp2798
sI15
(I2096
I2092
I-45
I241
tp2799
ssba(iSample
Sample
p2800
(dp2801
g3
S'85d2'
p2802
sg5
F1441197157.719903
sg6
(dp2803
I0
(I2099
I2092
I-46
I239
tp2804
sI1
(I2099
I2087
I-47
I242
tp2805
sI2
(I2098
I2080
I-52
I236
tp2806
sI3
(I2103
I2066
I-67
I188
tp2807
sI4
(I2100
I2081
I-60
I230
tp2808
sI5
(I2103
I2085
I-56
I241
tp2809
sI6
(I2099
I2084
I-57
I242
tp2810
sI7
(I2100
I2085
I-53
I235
tp2811
ssba(iSample
Sample
p2812
(dp2813
g3
S'85d2'
p2814
sg5
F1441197159.745163
sg6
(dp2815
I8
(I2103
I2069
I-47
I236
tp2816
sI9
(I2102
I2069
I-48
I242
tp2817
sI10
(I2103
I2022
I-44
I242
tp2818
sI11
(I2105
I2086
I-46
I242
tp2819
sI12
(I2105
I2094
I-44
I242
tp2820
sI13
(I2105
I2102
I-43
I242
tp2821
sI14
(I2104
I2102
I-42
I242
tp2822
sI15
(I2102
I2098
I-43
I242
tp2823
ssba(iSample
Sample
p2824
(dp2825
g3
S'85d2'
p2826
sg5
F1441197161.77207
sg6
(dp2827
I0
(I2107
I2100
I-48
I242
tp2828
sI1
(I2107
I2095
I-45
I239
tp2829
sI2
(I2104
I2086
I-45
I242
tp2830
sI3
(I2109
I2072
I-46
I241
tp2831
sI4
(I2107
I2088
I-45
I242
tp2832
sI5
(I2111
I2093
I-49
I239
tp2833
sI6
(I2107
I2092
I-54
I236
tp2834
sI7
(I2108
I2093
I-46
I242
tp2835
ssba(iSample
Sample
p2836
(dp2837
g3
S'85d2'
p2838
sg5
F1441197163.800985
sg6
(dp2839
I8
(I2111
I2077
I-48
I242
tp2840
sI9
(I2110
I2077
I-47
I242
tp2841
sI10
(I2111
I2030
I-46
I242
tp2842
sI11
(I2113
I2094
I-45
I242
tp2843
sI12
(I2111
I2100
I-46
I242
tp2844
sI13
(I2112
I2109
I-47
I242
tp2845
sI14
(I2112
I2110
I-46
I242
tp2846
sI15
(I2109
I2105
I-48
I242
tp2847
ssba(iSample
Sample
p2848
(dp2849
g3
S'85d2'
p2850
sg5
F1441197165.823085
sg6
(dp2851
I0
(I2113
I2106
I-53
I242
tp2852
sI1
(I2114
I2101
I-56
I237
tp2853
sI2
(I2111
I2093
I-51
I242
tp2854
sI3
(I2117
I2080
I-52
I233
tp2855
sI4
(I2115
I2096
I-53
I238
tp2856
sI5
(I2118
I2100
I-52
I239
tp2857
sI6
(I2115
I2100
I-50
I242
tp2858
sI7
(I2115
I2100
I-50
I242
tp2859
ssba(iSample
Sample
p2860
(dp2861
g3
S'85d2'
p2862
sg5
F1441197167.790786
sg6
(dp2863
I8
(I2119
I2085
I-61
I241
tp2864
sI9
(I2117
I2084
I-53
I241
tp2865
sI10
(I2119
I2038
I-51
I234
tp2866
sI11
(I2120
I2101
I-50
I241
tp2867
sI12
(I2118
I2107
I-48
I242
tp2868
sI13
(I2120
I2117
I-50
I239
tp2869
sI14
(I2120
I2118
I-49
I238
tp2870
sI15
(I2117
I2113
I-50
I242
tp2871
ssba(iSample
Sample
p2872
(dp2873
g3
S'85d2'
p2874
sg5
F1441197169.81406
sg6
(dp2875
I0
(I2120
I2113
I-53
I238
tp2876
sI1
(I2122
I2109
I-51
I242
tp2877
sI2
(I2119
I2101
I-50
I238
tp2878
sI3
(I2125
I2086
I-53
I239
tp2879
sI4
(I2122
I2103
I-53
I237
tp2880
sI5
(I2125
I2107
I-56
I238
tp2881
sI6
(I2122
I2107
I-49
I242
tp2882
sI7
(I2123
I2108
I-51
I242
tp2883
ssba(iSample
Sample
p2884
(dp2885
g3
S'85d2'
p2886
sg5
F1441197171.839743
sg6
(dp2887
I8
(I2126
I2092
I-54
I237
tp2888
sI9
(I2124
I2091
I-51
I239
tp2889
sI10
(I2126
I2045
I-50
I240
tp2890
sI11
(I2127
I2108
I-50
I236
tp2891
sI12
(I2126
I2115
I-50
I242
tp2892
sI13
(I2127
I2124
I-53
I240
tp2893
sI14
(I2128
I2126
I-54
I236
tp2894
sI15
(I2125
I2121
I-57
I234
tp2895
ssba(iSample
Sample
p2896
(dp2897
g3
S'85d2'
p2898
sg5
F1441197173.865456
sg6
(dp2899
I0
(I2128
I2119
I-59
I241
tp2900
sI1
(I2130
I2116
I-50
I239
tp2901
sI2
(I2127
I2108
I-54
I233
tp2902
sI3
(I2133
I2092
I-47
I239
tp2903
sI4
(I2129
I2110
I-52
I242
tp2904
sI5
(I2132
I2114
I-56
I234
tp2905
sI6
(I2130
I2115
I-47
I242
tp2906
sI7
(I2130
I2115
I-48
I240
tp2907
ssba(iSample
Sample
p2908
(dp2909
g3
S'85d2'
p2910
sg5
F1441197175.861119
sg6
(dp2911
I8
(I2134
I2099
I-48
I236
tp2912
sI9
(I2131
I2098
I-48
I241
tp2913
sI10
(I2134
I2053
I-45
I241
tp2914
sI11
(I2134
I2115
I-46
I242
tp2915
sI12
(I2134
I2123
I-48
I242
tp2916
sI13
(I2134
I2131
I-52
I242
tp2917
sI14
(I2135
I2133
I-50
I236
tp2918
sI15
(I2133
I2129
I-52
I239
tp2919
ssba(iSample
Sample
p2920
(dp2921
g3
S'85d2'
p2922
sg5
F1441197177.888298
sg6
(dp2923
I0
(I2136
I2127
I-44
I241
tp2924
sI1
(I2137
I2123
I-44
I242
tp2925
sI2
(I2135
I2115
I-43
I242
tp2926
sI3
(I2140
I2099
I-42
I242
tp2927
sI4
(I2136
I2117
I-43
I242
tp2928
sI5
(I2140
I2122
I-42
I242
tp2929
sI6
(I2137
I2122
I-42
I242
tp2930
sI7
(I2137
I2122
I-42
I242
tp2931
ssba(iSample
Sample
p2932
(dp2933
g3
S'85d2'
p2934
sg5
F1441197179.868502
sg6
(dp2935
I8
(I2141
I2106
I-42
I242
tp2936
sI9
(I2140
I2107
I-42
I242
tp2937
sI10
(I2142
I2061
I-42
I242
tp2938
sI11
(I2143
I2124
I-44
I242
tp2939
sI12
(I2142
I2130
I-45
I242
tp2940
sI13
(I2141
I2138
I-47
I242
tp2941
sI14
(I2143
I2141
I-48
I242
tp2942
sI15
(I2140
I2136
I-51
I242
tp2943
ssba(iSample
Sample
p2944
(dp2945
g3
S'85d2'
p2946
sg5
F1441197181.89412
sg6
(dp2947
I0
(I2143
I2134
I-44
I242
tp2948
sI1
(I2143
I2129
I-44
I242
tp2949
sI2
(I2142
I2122
I-42
I242
tp2950
sI3
(I2148
I2107
I-42
I242
tp2951
sI4
(I2144
I2125
I-42
I242
tp2952
sI5
(I2148
I2130
I-42
I242
tp2953
sI6
(I2144
I2129
I-42
I241
tp2954
sI7
(I2144
I2129
I-42
I242
tp2955
ssba(iSample
Sample
p2956
(dp2957
g3
S'85d2'
p2958
sg5
F1441197183.919809
sg6
(dp2959
I8
(I2148
I2112
I-42
I241
tp2960
sI9
(I2148
I2115
I-43
I242
tp2961
sI10
(I2148
I2067
I-44
I242
tp2962
sI11
(I2151
I2132
I-44
I242
tp2963
sI12
(I2149
I2138
I-45
I242
tp2964
sI13
(I2149
I2146
I-47
I242
tp2965
sI14
(I2150
I2148
I-49
I242
tp2966
sI15
(I2148
I2144
I-53
I236
tp2967
ssba(iSample
Sample
p2968
(dp2969
g3
S'85d2'
p2970
sg5
F1441197185.945527
sg6
(dp2971
I0
(I2151
I2142
I-44
I242
tp2972
sI1
(I2151
I2137
I-44
I242
tp2973
sI2
(I2150
I2130
I-43
I242
tp2974
sI3
(I2155
I2114
I-42
I242
tp2975
sI4
(I2152
I2133
I-42
I242
tp2976
sI5
(I2155
I2137
I-41
I242
tp2977
sI6
(I2151
I2136
I-42
I242
tp2978
sI7
(I2152
I2137
I-42
I242
tp2979
ssba(iSample
Sample
p2980
(dp2981
g3
S'85d2'
p2982
sg5
F1441197187.97096
sg6
(dp2983
I8
(I2155
I2119
I-42
I242
tp2984
sI9
(I2155
I2122
I-42
I242
tp2985
sI10
(I2155
I2074
I-43
I236
tp2986
sI11
(I2158
I2139
I-44
I242
tp2987
sI12
(I2157
I2146
I-45
I242
tp2988
sI13
(I2157
I2154
I-47
I242
tp2989
sI14
(I2157
I2155
I-48
I242
tp2990
sI15
(I2155
I2151
I-51
I242
tp2991
ssba(iSample
Sample
p2992
(dp2993
g3
S'85d2'
p2994
sg5
F1441197189.99653
sg6
(dp2995
I0
(I2159
I2150
I-44
I242
tp2996
sI1
(I2159
I2145
I-44
I241
tp2997
sI2
(I2157
I2137
I-43
I242
tp2998
sI3
(I2162
I2121
I-42
I242
tp2999
sI4
(I2159
I2140
I-42
I242
tp3000
sI5
(I2163
I2145
I-42
I242
tp3001
sI6
(I2159
I2144
I-42
I242
tp3002
sI7
(I2160
I2145
I-42
I242
tp3003
ssba(iSample
Sample
p3004
(dp3005
g3
S'85d2'
p3006
sg5
F1441197191.96326
sg6
(dp3007
I8
(I2163
I2127
I-42
I239
tp3008
sI9
(I2163
I2130
I-42
I242
tp3009
sI10
(I2163
I2082
I-43
I239
tp3010
sI11
(I2166
I2147
I-44
I242
tp3011
sI12
(I2164
I2153
I-45
I242
tp3012
sI13
(I2164
I2161
I-47
I242
tp3013
sI14
(I2164
I2162
I-48
I242
tp3014
sI15
(I2162
I2158
I-51
I242
tp3015
ssba(iSample
Sample
p3016
(dp3017
g3
S'85d2'
p3018
sg5
F1441197193.988878
sg6
(dp3019
I0
(I2166
I2157
I-45
I242
tp3020
sI1
(I2167
I2153
I-47
I241
tp3021
sI2
(I2164
I2144
I-45
I242
tp3022
sI3
(I2169
I2128
I-42
I242
tp3023
sI4
(I2167
I2148
I-42
I242
tp3024
sI5
(I2170
I2152
I-43
I242
tp3025
sI6
(I2167
I2152
I-43
I242
tp3026
sI7
(I2167
I2152
I-42
I242
tp3027
ssba(iSample
Sample
p3028
(dp3029
g3
S'85d2'
p3030
sg5
F1441197196.014404
sg6
(dp3031
I8
(I2171
I2135
I-51
I242
tp3032
sI9
(I2171
I2138
I-55
I242
tp3033
sI10
(I2171
I2090
I-54
I233
tp3034
sI11
(I2173
I2154
I-52
I229
tp3035
sI12
(I2171
I2160
I-51
I242
tp3036
sI13
(I2172
I2169
I-50
I242
tp3037
sI14
(I2172
I2170
I-53
I236
tp3038
sI15
(I2169
I2165
I-48
I242
tp3039
ssba(iSample
Sample
p3040
(dp3041
g3
S'85d2'
p3042
sg5
F1441197198.040459
sg6
(dp3043
I0
(I2173
I2164
I-52
I242
tp3044
sI1
(I2174
I2160
I-57
I236
tp3045
sI2
(I2171
I2151
I-54
I234
tp3046
sI3
(I2177
I2136
I-54
I242
tp3047
sI4
(I2175
I2156
I-55
I240
tp3048
sI5
(I2177
I2159
I-58
I235
tp3049
sI6
(I2174
I2159
I-55
I238
tp3050
sI7
(I2175
I2160
I-56
I241
tp3051
ssba(iSample
Sample
p3052
(dp3053
g3
S'85d2'
p3054
sg5
F1441197200.037472
sg6
(dp3055
I8
(I2178
I2142
I-62
I241
tp3056
sI9
(I2178
I2145
I-66
I240
tp3057
sI10
(I2179
I2095
I-67
I239
tp3058
sI11
(I2180
I2161
I-65
I237
tp3059
sI12
(I2178
I2167
I-67
I238
tp3060
sI13
(I2180
I2177
I-65
I242
tp3061
sI14
(I2180
I2178
I-58
I240
tp3062
sI15
(I2177
I2173
I-57
I239
tp3063
ssba(iSample
Sample
p3064
(dp3065
g3
S'85d2'
p3066
sg5
F1441197202.061507
sg6
(dp3067
I0
(I2180
I2171
I-50
I237
tp3068
sI1
(I2182
I2168
I-51
I234
tp3069
sI2
(I2179
I2159
I-51
I242
tp3070
sI3
(I2185
I2144
I-51
I242
tp3071
sI4
(I2182
I2163
I-52
I235
tp3072
sI5
(I2184
I2166
I-53
I242
tp3073
sI6
(I2182
I2167
I-52
I235
tp3074
sI7
(I2183
I2168
I-53
I242
tp3075
ssba(iSample
Sample
p3076
(dp3077
g3
S'85d2'
p3078
sg5
F1441197204.0423
sg6
(dp3079
I8
(I2186
I2150
I-57
I239
tp3080
sI9
(I2184
I2151
I-58
I236
tp3081
sI10
(I2186
I2102
I-63
I241
tp3082
sI11
(I2187
I2168
I-67
I238
tp3083
sI12
(I2187
I2176
I-64
I240
tp3084
sI13
(I2187
I2184
I-67
I242
tp3085
sI14
(I2187
I2185
I-60
I239
tp3086
sI15
(I2185
I2181
I-58
I240
tp3087
ssba(iSample
Sample
p3088
(dp3089
g3
S'85d2'
p3090
sg5
F1441197206.069759
sg6
(dp3091
I0
(I2189
I2180
I-51
I241
tp3092
sI1
(I2189
I2175
I-53
I235
tp3093
sI2
(I2187
I2167
I-51
I241
tp3094
sI3
(I2192
I2151
I-52
I239
tp3095
sI4
(I2188
I2169
I-54
I241
tp3096
sI5
(I2192
I2174
I-55
I239
tp3097
sI6
(I2190
I2175
I-53
I231
tp3098
sI7
(I2190
I2175
I-55
I232
tp3099
ssba(iSample
Sample
p3100
(dp3101
g3
S'85d2'
p3102
sg5
F1441197208.095091
sg6
(dp3103
I8
(I2194
I2158
I-58
I242
tp3104
sI9
(I2192
I2159
I-62
I236
tp3105
sI10
(I2194
I2110
I-64
I236
tp3106
sI11
(I2195
I2176
I-66
I239
tp3107
sI12
(I2195
I2184
I-59
I242
tp3108
sI13
(I2193
I2189
I-67
I236
tp3109
sI14
(I2195
I2193
I-60
I230
tp3110
sI15
(I2192
I2188
I-57
I232
tp3111
ssba(iSample
Sample
p3112
(dp3113
g3
S'85d2'
p3114
sg5
F1441197210.121243
sg6
(dp3115
I0
(I2197
I2188
I-48
I236
tp3116
sI1
(I2196
I2182
I-48
I242
tp3117
sI2
(I2194
I2174
I-49
I235
tp3118
sI3
(I2200
I2159
I-50
I242
tp3119
sI4
(I2196
I2177
I-51
I241
tp3120
sI5
(I2200
I2182
I-51
I241
tp3121
sI6
(I2196
I2181
I-51
I235
tp3122
sI7
(I2196
I2181
I-57
I236
tp3123
ssba(iSample
Sample
p3124
(dp3125
g3
S'85d2'
p3126
sg5
F1441197212.145593
sg6
(dp3127
I8
(I2200
I2164
I-61
I237
tp3128
sI9
(I2200
I2166
I-60
I235
tp3129
sI10
(I2201
I2117
I-60
I242
tp3130
sI11
(I2203
I2184
I-56
I234
tp3131
sI12
(I2202
I2191
I-54
I240
tp3132
sI13
(I2201
I2197
I-53
I242
tp3133
sI14
(I2203
I2200
I-53
I242
tp3134
sI15
(I2200
I2196
I-51
I242
tp3135
ssba(iSample
Sample
p3136
(dp3137
g3
S'85d2'
p3138
sg5
F1441197214.171245
sg6
(dp3139
I0
(I2204
I2195
I-49
I242
tp3140
sI1
(I2203
I2189
I-49
I239
tp3141
sI2
(I2202
I2182
I-49
I242
tp3142
sI3
(I2207
I2166
I-50
I242
tp3143
sI4
(I2204
I2185
I-51
I239
tp3144
sI5
(I2207
I2189
I-52
I232
tp3145
sI6
(I2203
I2188
I-53
I242
tp3146
sI7
(I2204
I2189
I-56
I241
tp3147
ssba(iSample
Sample
p3148
(dp3149
g3
S'85d2'
p3150
sg5
F1441197216.138518
sg6
(dp3151
I8
(I2207
I2171
I-66
I236
tp3152
sI9
(I2208
I2174
I-64
I241
tp3153
sI10
(I2208
I2123
I-59
I235
tp3154
sI11
(I2210
I2190
I-58
I232
tp3155
sI12
(I2210
I2199
I-56
I238
tp3156
sI13
(I2209
I2205
I-55
I242
tp3157
sI14
(I2209
I2207
I-53
I236
tp3158
sI15
(I2207
I2203
I-53
I242
tp3159
ssba(iSample
Sample
p3160
(dp3161
g3
S'85d2'
p3162
sg5
F1441197218.16442
sg6
(dp3163
I0
(I2212
I2203
I-48
I242
tp3164
sI1
(I2211
I2197
I-50
I242
tp3165
sI2
(I2209
I2189
I-48
I241
tp3166
sI3
(I2214
I2173
I-49
I242
tp3167
sI4
(I2212
I2193
I-50
I242
tp3168
sI5
(I2215
I2197
I-53
I240
tp3169
sI6
(I2211
I2196
I-53
I239
tp3170
sI7
(I2212
I2197
I-57
I237
tp3171
ssba(iSample
Sample
p3172
(dp3173
g3
S'85d2'
p3174
sg5
F1441197220.190869
sg6
(dp3175
I8
(I2215
I2179
I-71
I242
tp3176
sI9
(I2215
I2180
I-68
I241
tp3177
sI10
(I2216
I2130
I-62
I239
tp3178
sI11
(I2218
I2198
I-59
I242
tp3179
sI12
(I2217
I2206
I-55
I231
tp3180
sI13
(I2217
I2213
I-55
I240
tp3181
sI14
(I2216
I2214
I-54
I234
tp3182
sI15
(I2214
I2210
I-53
I241
tp3183
ssba(iSample
Sample
p3184
(dp3185
g3
S'85d2'
p3186
sg5
F1441197222.214793
sg6
(dp3187
I0
(I2219
I2210
I-50
I241
tp3188
sI1
(I2219
I2205
I-50
I238
tp3189
sI2
(I2216
I2196
I-50
I242
tp3190
sI3
(I2221
I2180
I-51
I242
tp3191
sI4
(I2219
I2200
I-53
I237
tp3192
sI5
(I2223
I2205
I-55
I241
tp3193
sI6
(I2219
I2204
I-54
I234
tp3194
sI7
(I2220
I2205
I-63
I242
tp3195
ssba(iSample
Sample
p3196
(dp3197
g3
S'85d2'
p3198
sg5
F1441197224.211798
sg6
(dp3199
I8
(I2223
I2187
I-70
I235
tp3200
sI9
(I2223
I2188
I-66
I235
tp3201
sI10
(I2224
I2138
I-67
I242
tp3202
sI11
(I2226
I2206
I-65
I240
tp3203
sI12
(I2224
I2213
I-59
I235
tp3204
sI13
(I2224
I2220
I-59
I240
tp3205
sI14
(I2224
I2222
I-57
I242
tp3206
sI15
(I2221
I2217
I-54
I239
tp3207
ssba(iSample
Sample
p3208
(dp3209
g3
S'85d2'
p3210
sg5
F1441197226.236076
sg6
(dp3211
I0
(I2226
I2217
I-53
I242
tp3212
sI1
(I2226
I2212
I-55
I235
tp3213
sI2
(I2223
I2203
I-51
I233
tp3214
sI3
(I2230
I2189
I-54
I242
tp3215
sI4
(I2227
I2208
I-54
I239
tp3216
sI5
(I2230
I2212
I-56
I233
tp3217
sI6
(I2227
I2212
I-55
I234
tp3218
sI7
(I2227
I2212
I-64
I242
tp3219
ssba(iSample
Sample
p3220
(dp3221
g3
S'85d2'
p3222
sg5
F1441197228.217545
sg6
(dp3223
I8
(I2231
I2194
I-61
I231
tp3224
sI9
(I2230
I2195
I-57
I240
tp3225
sI10
(I2232
I2145
I-55
I239
tp3226
sI11
(I2233
I2213
I-53
I242
tp3227
sI12
(I2231
I2220
I-52
I242
tp3228
sI13
(I2232
I2228
I-50
I242
tp3229
sI14
(I2232
I2230
I-49
I242
tp3230
sI15
(I2230
I2226
I-49
I241
tp3231
ssba(iSample
Sample
p3232
(dp3233
g3
S'85d2'
p3234
sg5
F1441197230.243567
sg6
(dp3235
I0
(I2233
I2224
I-54
I242
tp3236
sI1
(I2234
I2220
I-52
I236
tp3237
sI2
(I2231
I2211
I-51
I242
tp3238
sI3
(I2238
I2197
I-53
I241
tp3239
sI4
(I2234
I2215
I-55
I235
tp3240
sI5
(I2236
I2218
I-57
I242
tp3241
sI6
(I2234
I2219
I-59
I242
tp3242
sI7
(I2235
I2220
I-62
I236
tp3243
ssba(iSample
Sample
p3244
(dp3245
g3
S'85d2'
p3246
sg5
F1441197232.268646
sg6
(dp3247
I8
(I2238
I2202
I-59
I237
tp3248
sI9
(I2237
I2201
I-59
I242
tp3249
sI10
(I2239
I2151
I-55
I240
tp3250
sI11
(I2239
I2219
I-52
I232
tp3251
sI12
(I2239
I2228
I-52
I242
tp3252
sI13
(I2239
I2235
I-55
I242
tp3253
sI14
(I2239
I2237
I-48
I236
tp3254
sI15
(I2238
I2234
I-51
I239
tp3255
ssba(iSample
Sample
p3256
(dp3257
g3
S'85d2'
p3258
sg5
F1441197234.294358
sg6
(dp3259
I0
(I2241
I2232
I-52
I242
tp3260
sI1
(I2242
I2227
I-52
I234
tp3261
sI2
(I2239
I2219
I-55
I236
tp3262
sI3
(I2245
I2204
I-58
I230
tp3263
sI4
(I2241
I2221
I-57
I242
tp3264
sI5
(I2244
I2226
I-63
I242
tp3265
sI6
(I2242
I2227
I-62
I242
tp3266
sI7
(I2242
I2227
I-63
I242
tp3267
ssba(iSample
Sample
p3268
(dp3269
g3
S'85d2'
p3270
sg5
F1441197236.320885
sg6
(dp3271
I8
(I2246
I2210
I-55
I236
tp3272
sI9
(I2244
I2208
I-59
I240
tp3273
sI10
(I2247
I2159
I-56
I241
tp3274
sI11
(I2247
I2227
I-56
I236
tp3275
sI12
(I2247
I2236
I-55
I242
tp3276
sI13
(I2246
I2242
I-55
I242
tp3277
sI14
(I2247
I2245
I-52
I233
tp3278
sI15
(I2245
I2241
I-53
I241
tp3279
ssba(iSample
Sample
p3280
(dp3281
g3
S'85d2'
p3282
sg5
F1441197238.286733
sg6
(dp3283
I0
(I2249
I2240
I-48
I242
tp3284
sI1
(I2248
I2233
I-50
I239
tp3285
sI2
(I2246
I2226
I-47
I242
tp3286
sI3
(I2253
I2212
I-49
I242
tp3287
sI4
(I2248
I2228
I-52
I242
tp3288
sI5
(I2252
I2234
I-53
I242
tp3289
sI6
(I2249
I2234
I-53
I240
tp3290
sI7
(I2249
I2234
I-55
I242
tp3291
ssba(iSample
Sample
p3292
(dp3293
g3
S'85d2'
p3294
sg5
F1441197240.312258
sg6
(dp3295
I8
(I2253
I2217
I-68
I239
tp3296
sI9
(I2252
I2215
I-67
I242
tp3297
sI10
(I2254
I2165
I-62
I242
tp3298
sI11
(I2255
I2235
I-58
I241
tp3299
sI12
(I2254
I2243
I-54
I234
tp3300
sI13
(I2253
I2249
I-56
I235
tp3301
sI14
(I2255
I2253
I-54
I239
tp3302
sI15
(I2253
I2249
I-53
I241
tp3303
ssba(iSample
Sample
p3304
(dp3305
g3
S'85d2'
p3306
sg5
F1441197242.337725
sg6
(dp3307
I0
(I2256
I2247
I-48
I242
tp3308
sI1
(I2255
I2240
I-50
I240
tp3309
sI2
(I2254
I2234
I-49
I239
tp3310
sI3
(I2261
I2220
I-51
I236
tp3311
sI4
(I2256
I2236
I-55
I232
tp3312
sI5
(I2260
I2242
I-63
I242
tp3313
sI6
(I2256
I2241
I-61
I236
tp3314
sI7
(I2256
I2241
I-70
I242
tp3315
ssba(iSample
Sample
p3316
(dp3317
g3
S'85d2'
p3318
sg5
F1441197244.36359
sg6
(dp3319
I8
(I2260
I2224
I-68
I242
tp3320
sI9
(I2260
I2223
I-62
I241
tp3321
sI10
(I2261
I2172
I-58
I240
tp3322
sI11
(I2263
I2243
I-57
I242
tp3323
sI12
(I2262
I2251
I-54
I237
tp3324
sI13
(I2261
I2257
I-55
I241
tp3325
sI14
(I2262
I2260
I-55
I240
tp3326
sI15
(I2261
I2257
I-53
I239
tp3327
ssba(iSample
Sample
p3328
(dp3329
g3
S'85d2'
p3330
sg5
F1441197246.360874
sg6
(dp3331
I0
(I2264
I2255
I-48
I242
tp3332
sI1
(I2263
I2248
I-49
I242
tp3333
sI2
(I2262
I2242
I-49
I242
tp3334
sI3
(I2268
I2227
I-50
I242
tp3335
sI4
(I2264
I2244
I-54
I242
tp3336
sI5
(I2267
I2249
I-59
I241
tp3337
sI6
(I2263
I2248
I-60
I242
tp3338
sI7
(I2264
I2248
I-67
I242
tp3339
ssba(iSample
Sample
p3340
(dp3341
g3
S'85d2'
p3342
sg5
F1441197248.385071
sg6
(dp3343
I8
(I2267
I2231
I-66
I242
tp3344
sI9
(I2267
I2229
I-61
I239
tp3345
sI10
(I2268
I2179
I-59
I241
tp3346
sI11
(I2270
I2250
I-57
I241
tp3347
sI12
(I2270
I2259
I-53
I236
tp3348
sI13
(I2269
I2265
I-55
I238
tp3349
sI14
(I2269
I2267
I-54
I241
tp3350
sI15
(I2269
I2265
I-53
I242
tp3351
ssba(iSample
Sample
p3352
(dp3353
g3
S'85d2'
p3354
sg5
F1441197250.410476
sg6
(dp3355
I0
(I2272
I2263
I-50
I242
tp3356
sI1
(I2271
I2256
I-51
I241
tp3357
sI2
(I2269
I2249
I-51
I242
tp3358
sI3
(I2274
I2233
I-52
I242
tp3359
sI4
(I2271
I2251
I-57
I230
tp3360
sI5
(I2275
I2257
I-64
I242
tp3361
sI6
(I2272
I2257
I-62
I239
tp3362
sI7
(I2272
I2254
I-78
I177
tp3363
ssba(iSample
Sample
p3364
(dp3365
g3
S'85d2'
p3366
sg5
F1441197252.390927
sg6
(dp3367
I8
(I2276
I2240
I-61
I242
tp3368
sI9
(I2275
I2237
I-57
I239
tp3369
sI10
(I2277
I2188
I-57
I241
tp3370
sI11
(I2278
I2258
I-57
I239
tp3371
sI12
(I2277
I2266
I-54
I235
tp3372
sI13
(I2276
I2272
I-55
I238
tp3373
sI14
(I2276
I2274
I-54
I228
tp3374
sI15
(I2275
I2271
I-53
I234
tp3375
ssba(iSample
Sample
p3376
(dp3377
g3
S'85d2'
p3378
sg5
F1441197254.417427
sg6
(dp3379
I0
(I2279
I2269
I-50
I242
tp3380
sI1
(I2278
I2263
I-51
I232
tp3381
sI2
(I2275
I2255
I-51
I240
tp3382
sI3
(I2282
I2241
I-53
I240
tp3383
sI4
(I2279
I2259
I-60
I242
tp3384
sI5
(I2282
I2264
I-65
I242
tp3385
sI6
(I2280
I2264
I-64
I241
tp3386
sI7
(I2279
I2261
I-76
I231
tp3387
ssba(iSample
Sample
p3388
(dp3389
g3
S'85d2'
p3390
sg5
F1441197256.443648
sg6
(dp3391
I8
(I2284
I2247
I-68
I235
tp3392
sI9
(I2283
I2245
I-61
I242
tp3393
sI10
(I2285
I2196
I-60
I241
tp3394
sI11
(I2285
I2265
I-58
I238
tp3395
sI12
(I2283
I2272
I-54
I242
tp3396
sI13
(I2284
I2280
I-55
I236
tp3397
sI14
(I2284
I2282
I-55
I227
tp3398
sI15
(I2283
I2279
I-54
I238
tp3399
ssba(iSample
Sample
p3400
(dp3401
g3
S'85d2'
p3402
sg5
F1441197258.468657
sg6
(dp3403
I0
(I2285
I2276
I-47
I242
tp3404
sI1
(I2286
I2271
I-55
I242
tp3405
sI2
(I2283
I2263
I-49
I242
tp3406
sI3
(I2290
I2249
I-53
I235
tp3407
sI4
(I2287
I2267
I-62
I242
tp3408
sI5
(I2289
I2271
I-59
I234
tp3409
sI6
(I2287
I2271
I-51
I242
tp3410
sI7
(I2287
I2269
I-58
I242
tp3411
ssba(iSample
Sample
p3412
(dp3413
g3
S'85d2'
p3414
sg5
F1441197260.494486
sg6
(dp3415
I8
(I2291
I2254
I-52
I242
tp3416
sI9
(I2289
I2251
I-59
I242
tp3417
sI10
(I2292
I2202
I-54
I242
tp3418
sI11
(I2292
I2272
I-55
I242
tp3419
sI12
(I2291
I2280
I-51
I242
tp3420
sI13
(I2292
I2287
I-64
I242
tp3421
sI14
(I2292
I2290
I-58
I240
tp3422
sI15
(I2291
I2287
I-65
I239
tp3423
ssba(iSample
Sample
p3424
(dp3425
g3
S'85d2'
p3426
sg5
F1441197262.460601
sg6
(dp3427
I0
(I2293
I2283
I-69
I210
tp3428
sI1
(I2294
I2279
I-56
I236
tp3429
sI2
(I2291
I2271
I-55
I226
tp3430
sI3
(I2298
I2256
I-60
I240
tp3431
sI4
(I2293
I2273
I-62
I242
tp3432
sI5
(I2296
I2278
I-65
I233
tp3433
sI6
(I2295
I2279
I-68
I242
tp3434
sI7
(I2294
I2276
I-58
I238
tp3435
ssba(iSample
Sample
p3436
(dp3437
g3
S'85d2'
p3438
sg5
F1441197264.486254
sg6
(dp3439
I8
(I2299
I2261
I-60
I240
tp3440
sI9
(I2296
I2258
I-60
I236
tp3441
sI10
(I2300
I2210
I-65
I211
tp3442
sI11
(I2299
I2279
I-55
I238
tp3443
sI12
(I2299
I2288
I-56
I234
tp3444
sI13
(I2298
I2294
I-59
I237
tp3445
sI14
(I2299
I2297
I-62
I238
tp3446
sI15
(I2299
I2295
I-63
I237
tp3447
ssba(iSample
Sample
p3448
(dp3449
g3
S'85d2'
p3450
sg5
F1441197266.511662
sg6
(dp3451
I0
(I2301
I2290
I-51
I239
tp3452
sI1
(I2301
I2286
I-56
I238
tp3453
sI2
(I2299
I2278
I-58
I234
tp3454
sI3
(I2305
I2263
I-59
I226
tp3455
sI4
(I2300
I2280
I-63
I242
tp3456
sI5
(I2304
I2286
I-62
I242
tp3457
sI6
(I2302
I2286
I-60
I242
tp3458
sI7
(I2301
I2283
I-60
I235
tp3459
ssba(iSample
Sample
p3460
(dp3461
g3
S'85d2'
p3462
sg5
F1441197268.538126
sg6
(dp3463
I8
(I2306
I2268
I-55
I231
tp3464
sI9
(I2304
I2265
I-55
I233
tp3465
sI10
(I2308
I2217
I-54
I238
tp3466
sI11
(I2307
I2287
I-51
I242
tp3467
sI12
(I2307
I2296
I-50
I239
tp3468
sI13
(I2305
I2301
I-52
I242
tp3469
sI14
(I2307
I2305
I-50
I242
tp3470
sI15
(I2306
I2302
I-52
I237
tp3471
ssba(iSample
Sample
p3472
(dp3473
g3
S'85d2'
p3474
sg5
F1441197270.533813
sg6
(dp3475
I0
(I2309
I2298
I-61
I236
tp3476
sI1
(I2308
I2293
I-54
I231
tp3477
sI2
(I2306
I2285
I-56
I241
tp3478
sI3
(I2313
I2270
I-59
I242
tp3479
sI4
(I2308
I2288
I-58
I231
tp3480
sI5
(I2312
I2294
I-57
I232
tp3481
sI6
(I2309
I2293
I-58
I242
tp3482
sI7
(I2308
I2290
I-55
I238
tp3483
ssba(iSample
Sample
p3484
(dp3485
g3
S'85d2'
p3486
sg5
F1441197272.559226
sg6
(dp3487
I8
(I2313
I2275
I-59
I241
tp3488
sI9
(I2312
I2273
I-64
I242
tp3489
sI10
(I2315
I2223
I-63
I236
tp3490
sI11
(I2315
I2295
I-60
I239
tp3491
sI12
(I2314
I2303
I-58
I242
tp3492
sI13
(I2314
I2310
I-61
I239
tp3493
sI14
(I2314
I2312
I-57
I242
tp3494
sI15
(I2314
I2310
I-60
I234
tp3495
ssba(iSample
Sample
p3496
(dp3497
g3
S'85d2'
p3498
sg5
F1441197274.584953
sg6
(dp3499
I0
(I2316
I2305
I-51
I236
tp3500
sI1
(I2315
I2300
I-56
I239
tp3501
sI2
(I2314
I2291
I-60
I236
tp3502
sI3
(I2320
I2275
I-64
I242
tp3503
sI4
(I2316
I2296
I-73
I242
tp3504
sI5
(I2319
I2301
I-66
I242
tp3505
sI6
(I2316
I2300
I-66
I235
tp3506
sI7
(I2317
I2299
I-63
I242
tp3507
ssba(iSample
Sample
p3508
(dp3509
g3
S'85d2'
p3510
sg5
F1441197276.566161
sg6
(dp3511
I8
(I2320
I2282
I-58
I231
tp3512
sI9
(I2320
I2280
I-60
I242
tp3513
sI10
(I2321
I2229
I-60
I242
tp3514
sI11
(I2322
I2302
I-56
I242
tp3515
sI12
(I2322
I2311
I-55
I241
tp3516
sI13
(I2322
I2318
I-56
I235
tp3517
sI14
(I2321
I2319
I-56
I242
tp3518
sI15
(I2321
I2317
I-56
I237
tp3519
ssba(iSample
Sample
p3520
(dp3521
g3
S'85d2'
p3522
sg5
F1441197278.591277
sg6
(dp3523
I0
(I2324
I2313
I-53
I239
tp3524
sI1
(I2324
I2309
I-62
I242
tp3525
sI2
(I2321
I2295
I-62
I236
tp3526
sI3
(I2327
I2281
I-63
I226
tp3527
sI4
(I2323
I2301
I-76
I242
tp3528
sI5
(I2327
I2309
I-80
I242
tp3529
sI6
(I2324
I2308
I-70
I241
tp3530
sI7
(I2325
I2307
I-62
I240
tp3531
ssba(iSample
Sample
p3532
(dp3533
g3
S'85d2'
p3534
sg5
F1441197280.616994
sg6
(dp3535
I8
(I2328
I2290
I-57
I235
tp3536
sI9
(I2327
I2288
I-60
I238
tp3537
sI10
(I2329
I2237
I-60
I242
tp3538
sI11
(I2330
I2310
I-56
I242
tp3539
sI12
(I2329
I2318
I-54
I234
tp3540
sI13
(I2329
I2325
I-58
I242
tp3541
sI14
(I2328
I2326
I-56
I242
tp3542
sI15
(I2328
I2324
I-55
I231
tp3543
ssba(iSample
Sample
p3544
(dp3545
g3
S'85d2'
p3546
sg5
F1441197282.644146
sg6
(dp3547
I0
(I2331
I2320
I-55
I242
tp3548
sI1
(I2332
I2317
I-60
I230
tp3549
sI2
(I2328
I2301
I-59
I239
tp3550
sI3
(I2334
I2286
I-60
I240
tp3551
sI4
(I2331
I2309
I-72
I232
tp3552
sI5
(I2335
I2317
I-68
I234
tp3553
sI6
(I2332
I2315
I-69
I232
tp3554
sI7
(I2332
I2314
I-60
I233
tp3555
ssba(iSample
Sample
p3556
(dp3557
g3
S'85d2'
p3558
sg5
F1441197284.669084
sg6
(dp3559
I8
(I2336
I2298
I-56
I239
tp3560
sI9
(I2335
I2296
I-56
I237
tp3561
sI10
(I2337
I2245
I-56
I238
tp3562
sI11
(I2338
I2317
I-55
I236
tp3563
sI12
(I2336
I2325
I-54
I239
tp3564
sI13
(I2337
I2333
I-55
I230
tp3565
sI14
(I2336
I2334
I-55
I239
tp3566
sI15
(I2335
I2331
I-55
I239
tp3567
ssba(iSample
Sample
p3568
(dp3569
g3
S'85d2'
p3570
sg5
F1441197286.634808
sg6
(dp3571
I0
(I2338
I2327
I-55
I237
tp3572
sI1
(I2339
I2324
I-57
I236
tp3573
sI2
(I2335
I2308
I-57
I241
tp3574
sI3
(I2342
I2292
I-59
I236
tp3575
sI4
(I2339
I2317
I-63
I242
tp3576
sI5
(I2341
I2323
I-64
I236
tp3577
sI6
(I2339
I2322
I-72
I242
tp3578
sI7
(I2340
I2322
I-64
I241
tp3579
ssba(iSample
Sample
p3580
(dp3581
g3
S'85d2'
p3582
sg5
F1441197288.660564
sg6
(dp3583
I8
(I2343
I2305
I-55
I230
tp3584
sI9
(I2342
I2303
I-60
I240
tp3585
sI10
(I2345
I2253
I-56
I235
tp3586
sI11
(I2344
I2324
I-53
I241
tp3587
sI12
(I2343
I2332
I-51
I242
tp3588
sI13
(I2345
I2341
I-54
I241
tp3589
sI14
(I2344
I2342
I-53
I231
tp3590
sI15
(I2343
I2339
I-54
I239
tp3591
ssba(iSample
Sample
p3592
(dp3593
g3
S'85d2'
p3594
sg5
F1441197290.686425
sg6
(dp3595
I0
(I2345
I2334
I-52
I231
tp3596
sI1
(I2347
I2332
I-53
I240
tp3597
sI2
(I2343
I2316
I-52
I242
tp3598
sI3
(I2350
I2300
I-54
I242
tp3599
sI4
(I2346
I2324
I-57
I227
tp3600
sI5
(I2348
I2330
I-63
I242
tp3601
sI6
(I2347
I2330
I-63
I242
tp3602
sI7
(I2348
I2330
I-60
I242
tp3603
ssba.