(lp0
(iSample
Sample
p1
(dp2
S'moteIp'
p3
S'bbbb::12:4b00:60d:f53b'
p4
sS'timeStamp'
p5
F1441370987.262328
sS'moteData'
p6
(dp7
I0
(I17
I17
I-33
I242
tp8
sI1
(I16
I16
I-33
I242
tp9
sI2
(I16
I16
I-33
I242
tp10
sI3
(I16
I16
I-34
I241
tp11
sI4
(I17
I17
I-35
I241
tp12
sI5
(I17
I17
I-35
I240
tp13
sI6
(I18
I18
I-36
I242
tp14
sI7
(I15
I15
I-36
I242
tp15
ssba(iSample
Sample
p16
(dp17
g3
S'bbbb::12:4b00:60d:f53b'
p18
sg5
F1441370989.288098
sg6
(dp19
I8
(I19
I19
I-36
I242
tp20
sI9
(I21
I21
I-36
I242
tp21
sI10
(I20
I20
I-36
I242
tp22
sI11
(I22
I22
I-36
I241
tp23
sI12
(I19
I19
I-37
I242
tp24
sI13
(I19
I19
I-37
I242
tp25
sI14
(I20
I20
I-38
I241
tp26
sI15
(I21
I21
I-38
I241
tp27
ssba(iSample
Sample
p28
(dp29
g3
S'bbbb::12:4b00:60d:f53b'
p30
sg5
F1441370991.313227
sg6
(dp31
I0
(I23
I23
I-33
I242
tp32
sI1
(I24
I24
I-33
I239
tp33
sI2
(I24
I24
I-33
I239
tp34
sI3
(I24
I24
I-33
I242
tp35
sI4
(I25
I25
I-34
I240
tp36
sI5
(I24
I24
I-35
I242
tp37
sI6
(I25
I25
I-35
I242
tp38
sI7
(I23
I23
I-35
I242
tp39
ssba(iSample
Sample
p40
(dp41
g3
S'bbbb::12:4b00:60d:f53b'
p42
sg5
F1441370993.346993
sg6
(dp43
I8
(I26
I26
I-35
I242
tp44
sI9
(I28
I28
I-36
I242
tp45
sI10
(I26
I26
I-36
I242
tp46
sI11
(I29
I29
I-36
I240
tp47
sI12
(I27
I27
I-37
I242
tp48
sI13
(I27
I27
I-37
I242
tp49
sI14
(I27
I27
I-37
I242
tp50
sI15
(I29
I29
I-38
I242
tp51
ssba(iSample
Sample
p52
(dp53
g3
S'bbbb::12:4b00:60d:f53b'
p54
sg5
F1441370995.365382
sg6
(dp55
I0
(I31
I31
I-33
I240
tp56
sI1
(I32
I32
I-33
I240
tp57
sI2
(I32
I32
I-33
I239
tp58
sI3
(I31
I31
I-33
I242
tp59
sI4
(I32
I32
I-34
I242
tp60
sI5
(I31
I31
I-35
I242
tp61
sI6
(I33
I33
I-35
I240
tp62
sI7
(I31
I31
I-35
I242
tp63
ssba(iSample
Sample
p64
(dp65
g3
S'bbbb::12:4b00:60d:f53b'
p66
sg5
F1441370997.392291
sg6
(dp67
I8
(I34
I34
I-35
I242
tp68
sI9
(I35
I35
I-36
I242
tp69
sI10
(I34
I34
I-36
I240
tp70
sI11
(I36
I36
I-36
I242
tp71
sI12
(I35
I35
I-37
I242
tp72
sI13
(I34
I34
I-37
I242
tp73
sI14
(I34
I34
I-37
I242
tp74
sI15
(I36
I36
I-38
I242
tp75
ssba(iSample
Sample
p76
(dp77
g3
S'bbbb::12:4b00:60d:f53b'
p78
sg5
F1441370999.41825
sg6
(dp79
I0
(I39
I39
I-32
I242
tp80
sI1
(I40
I40
I-33
I240
tp81
sI2
(I39
I39
I-33
I242
tp82
sI3
(I38
I38
I-33
I242
tp83
sI4
(I39
I39
I-34
I240
tp84
sI5
(I39
I39
I-35
I242
tp85
sI6
(I41
I41
I-35
I242
tp86
sI7
(I38
I38
I-35
I242
tp87
ssba(iSample
Sample
p88
(dp89
g3
S'bbbb::12:4b00:60d:f53b'
p90
sg5
F1441371001.443149
sg6
(dp91
I8
(I42
I42
I-36
I242
tp92
sI9
(I43
I43
I-36
I240
tp93
sI10
(I42
I42
I-36
I242
tp94
sI11
(I44
I44
I-36
I242
tp95
sI12
(I42
I42
I-37
I240
tp96
sI13
(I41
I41
I-37
I242
tp97
sI14
(I42
I42
I-37
I242
tp98
sI15
(I43
I43
I-38
I242
tp99
ssba(iSample
Sample
p100
(dp101
g3
S'bbbb::12:4b00:60d:f53b'
p102
sg5
F1441371003.468831
sg6
(dp103
I0
(I46
I46
I-33
I242
tp104
sI1
(I47
I47
I-33
I240
tp105
sI2
(I46
I46
I-33
I242
tp106
sI3
(I46
I46
I-33
I240
tp107
sI4
(I47
I47
I-34
I242
tp108
sI5
(I46
I46
I-35
I242
tp109
sI6
(I48
I48
I-35
I242
tp110
sI7
(I45
I45
I-35
I240
tp111
ssba(iSample
Sample
p112
(dp113
g3
S'bbbb::12:4b00:60d:f53b'
p114
sg5
F1441371005.495132
sg6
(dp115
I8
(I49
I49
I-36
I240
tp116
sI9
(I51
I51
I-36
I240
tp117
sI10
(I50
I50
I-36
I242
tp118
sI11
(I51
I51
I-36
I240
tp119
sI12
(I49
I49
I-37
I240
tp120
sI13
(I49
I49
I-37
I240
tp121
sI14
(I50
I50
I-38
I242
tp122
sI15
(I51
I51
I-38
I242
tp123
ssba(iSample
Sample
p124
(dp125
g3
S'bbbb::12:4b00:60d:f53b'
p126
sg5
F1441371007.386226
sg6
(dp127
I0
(I53
I53
I-33
I240
tp128
sI1
(I54
I54
I-33
I240
tp129
sI2
(I54
I54
I-33
I242
tp130
sI3
(I54
I54
I-33
I242
tp131
sI4
(I55
I55
I-34
I242
tp132
sI5
(I53
I53
I-35
I242
tp133
sI6
(I55
I55
I-36
I242
tp134
sI7
(I53
I53
I-35
I242
tp135
ssba(iSample
Sample
p136
(dp137
g3
S'bbbb::12:4b00:60d:f53b'
p138
sg5
F1441371009.411423
sg6
(dp139
I8
(I56
I56
I-36
I240
tp140
sI9
(I58
I58
I-36
I240
tp141
sI10
(I56
I56
I-36
I242
tp142
sI11
(I58
I58
I-36
I240
tp143
sI12
(I57
I57
I-37
I242
tp144
sI13
(I57
I57
I-37
I242
tp145
sI14
(I57
I57
I-38
I242
tp146
sI15
(I59
I59
I-38
I240
tp147
ssba(iSample
Sample
p148
(dp149
g3
S'bbbb::12:4b00:60d:f53b'
p150
sg5
F1441371011.437937
sg6
(dp151
I0
(I62
I62
I-32
I242
tp152
sI1
(I62
I62
I-33
I242
tp153
sI2
(I62
I62
I-33
I242
tp154
sI3
(I61
I61
I-33
I240
tp155
sI4
(I61
I61
I-34
I242
tp156
sI5
(I62
I62
I-35
I241
tp157
sI6
(I63
I63
I-35
I242
tp158
sI7
(I61
I61
I-35
I240
tp159
ssba(iSample
Sample
p160
(dp161
g3
S'bbbb::12:4b00:60d:f53b'
p162
sg5
F1441371013.461771
sg6
(dp163
I8
(I64
I64
I-36
I242
tp164
sI9
(I65
I65
I-36
I242
tp165
sI10
(I64
I64
I-36
I242
tp166
sI11
(I66
I66
I-36
I242
tp167
sI12
(I65
I65
I-37
I242
tp168
sI13
(I63
I63
I-37
I242
tp169
sI14
(I64
I64
I-38
I242
tp170
sI15
(I66
I66
I-38
I242
tp171
ssba(iSample
Sample
p172
(dp173
g3
S'bbbb::12:4b00:60d:f53b'
p174
sg5
F1441371015.48848
sg6
(dp175
I0
(I70
I70
I-33
I242
tp176
sI1
(I69
I69
I-33
I242
tp177
sI2
(I69
I69
I-33
I242
tp178
sI3
(I68
I68
I-33
I240
tp179
sI4
(I69
I69
I-34
I239
tp180
sI5
(I70
I70
I-35
I240
tp181
sI6
(I71
I71
I-36
I240
tp182
sI7
(I67
I67
I-35
I242
tp183
ssba(iSample
Sample
p184
(dp185
g3
S'bbbb::12:4b00:60d:f53b'
p186
sg5
F1441371017.514017
sg6
(dp187
I8
(I71
I71
I-35
I242
tp188
sI9
(I73
I73
I-36
I242
tp189
sI10
(I72
I72
I-36
I242
tp190
sI11
(I74
I74
I-36
I242
tp191
sI12
(I72
I72
I-37
I242
tp192
sI13
(I71
I71
I-37
I240
tp193
sI14
(I72
I72
I-37
I242
tp194
sI15
(I73
I73
I-38
I240
tp195
ssba(iSample
Sample
p196
(dp197
g3
S'bbbb::12:4b00:60d:f53b'
p198
sg5
F1441371019.540732
sg6
(dp199
I0
(I77
I77
I-33
I242
tp200
sI1
(I76
I76
I-33
I240
tp201
sI2
(I76
I76
I-33
I242
tp202
sI3
(I76
I76
I-34
I240
tp203
sI4
(I77
I77
I-34
I242
tp204
sI5
(I77
I77
I-35
I242
tp205
sI6
(I77
I77
I-36
I242
tp206
sI7
(I75
I75
I-35
I242
tp207
ssba(iSample
Sample
p208
(dp209
g3
S'bbbb::12:4b00:60d:f53b'
p210
sg5
F1441371021.566598
sg6
(dp211
I8
(I78
I78
I-35
I242
tp212
sI9
(I81
I81
I-36
I242
tp213
sI10
(I79
I79
I-36
I242
tp214
sI11
(I81
I81
I-36
I242
tp215
sI12
(I79
I79
I-37
I242
tp216
sI13
(I79
I79
I-37
I242
tp217
sI14
(I79
I79
I-37
I242
tp218
sI15
(I81
I81
I-38
I242
tp219
ssba(iSample
Sample
p220
(dp221
g3
S'bbbb::12:4b00:60d:f53b'
p222
sg5
F1441371023.59145
sg6
(dp223
I0
(I84
I84
I-33
I240
tp224
sI1
(I84
I84
I-33
I240
tp225
sI2
(I84
I84
I-33
I242
tp226
sI3
(I83
I83
I-34
I238
tp227
sI4
(I85
I85
I-34
I242
tp228
sI5
(I84
I84
I-35
I240
tp229
sI6
(I85
I85
I-36
I242
tp230
sI7
(I83
I83
I-35
I242
tp231
ssba(iSample
Sample
p232
(dp233
g3
S'bbbb::12:4b00:60d:f53b'
p234
sg5
F1441371025.61837
sg6
(dp235
I8
(I87
I87
I-35
I241
tp236
sI9
(I88
I88
I-36
I242
tp237
sI10
(I86
I86
I-36
I238
tp238
sI11
(I88
I88
I-36
I240
tp239
sI12
(I87
I87
I-37
I240
tp240
sI13
(I87
I87
I-37
I242
tp241
sI14
(I86
I86
I-37
I242
tp242
sI15
(I88
I88
I-38
I240
tp243
ssba(iSample
Sample
p244
(dp245
g3
S'bbbb::12:4b00:60d:f53b'
p246
sg5
F1441371027.643405
sg6
(dp247
I0
(I92
I92
I-33
I242
tp248
sI1
(I92
I92
I-33
I242
tp249
sI2
(I91
I91
I-33
I240
tp250
sI3
(I90
I90
I-33
I242
tp251
sI4
(I92
I92
I-34
I242
tp252
sI5
(I92
I92
I-35
I242
tp253
sI6
(I93
I93
I-36
I242
tp254
sI7
(I91
I91
I-35
I242
tp255
ssba(iSample
Sample
p256
(dp257
g3
S'bbbb::12:4b00:60d:f53b'
p258
sg5
F1441371029.669323
sg6
(dp259
I8
(I95
I95
I-35
I242
tp260
sI9
(I95
I95
I-36
I240
tp261
sI10
(I94
I94
I-36
I239
tp262
sI11
(I96
I96
I-36
I242
tp263
sI12
(I94
I94
I-37
I238
tp264
sI13
(I94
I94
I-37
I240
tp265
sI14
(I94
I94
I-37
I242
tp266
sI15
(I95
I95
I-37
I242
tp267
ssba(iSample
Sample
p268
(dp269
g3
S'bbbb::12:4b00:60d:f53b'
p270
sg5
F1441371031.560519
sg6
(dp271
I0
(I99
I99
I-32
I242
tp272
sI1
(I99
I99
I-33
I242
tp273
sI2
(I98
I98
I-33
I242
tp274
sI3
(I98
I98
I-33
I242
tp275
sI4
(I99
I99
I-34
I242
tp276
sI5
(I100
I100
I-35
I242
tp277
sI6
(I101
I101
I-35
I242
tp278
sI7
(I98
I97
I-35
I242
tp279
ssba(iSample
Sample
p280
(dp281
g3
S'bbbb::12:4b00:60d:f53b'
p282
sg5
F1441371033.585192
sg6
(dp283
I8
(I103
I103
I-35
I242
tp284
sI9
(I103
I103
I-36
I242
tp285
sI10
(I102
I102
I-36
I242
tp286
sI11
(I104
I104
I-36
I242
tp287
sI12
(I101
I101
I-37
I242
tp288
sI13
(I101
I101
I-37
I242
tp289
sI14
(I102
I102
I-37
I242
tp290
sI15
(I104
I104
I-37
I242
tp291
ssba(iSample
Sample
p292
(dp293
g3
S'bbbb::12:4b00:60d:f53b'
p294
sg5
F1441371035.612457
sg6
(dp295
I0
(I106
I106
I-32
I236
tp296
sI1
(I106
I106
I-33
I242
tp297
sI2
(I107
I107
I-33
I241
tp298
sI3
(I106
I106
I-33
I242
tp299
sI4
(I107
I107
I-34
I242
tp300
sI5
(I106
I106
I-35
I240
tp301
sI6
(I107
I107
I-35
I240
tp302
sI7
(I105
I105
I-35
I240
tp303
ssba(iSample
Sample
p304
(dp305
g3
S'bbbb::12:4b00:60d:f53b'
p306
sg5
F1441371037.638231
sg6
(dp307
I8
(I109
I109
I-35
I242
tp308
sI9
(I110
I110
I-36
I240
tp309
sI10
(I109
I109
I-36
I242
tp310
sI11
(I110
I110
I-36
I242
tp311
sI12
(I109
I109
I-37
I242
tp312
sI13
(I109
I109
I-37
I242
tp313
sI14
(I110
I109
I-37
I240
tp314
sI15
(I112
I112
I-37
I242
tp315
ssba(iSample
Sample
p316
(dp317
g3
S'bbbb::12:4b00:60d:f53b'
p318
sg5
F1441371039.662646
sg6
(dp319
I0
(I114
I114
I-32
I240
tp320
sI1
(I114
I114
I-33
I242
tp321
sI2
(I115
I115
I-33
I242
tp322
sI3
(I113
I113
I-33
I242
tp323
sI4
(I114
I114
I-34
I242
tp324
sI5
(I114
I114
I-35
I242
tp325
sI6
(I115
I115
I-35
I242
tp326
sI7
(I113
I113
I-35
I242
tp327
ssba(iSample
Sample
p328
(dp329
g3
S'bbbb::12:4b00:60d:f53b'
p330
sg5
F1441371041.688322
sg6
(dp331
I8
(I117
I117
I-35
I242
tp332
sI9
(I117
I117
I-36
I242
tp333
sI10
(I116
I116
I-36
I242
tp334
sI11
(I118
I118
I-36
I239
tp335
sI12
(I117
I117
I-37
I242
tp336
sI13
(I116
I116
I-37
I242
tp337
sI14
(I116
I116
I-37
I240
tp338
sI15
(I119
I119
I-38
I242
tp339
ssba(iSample
Sample
p340
(dp341
g3
S'bbbb::12:4b00:60d:f53b'
p342
sg5
F1441371043.715146
sg6
(dp343
I0
(I122
I122
I-32
I242
tp344
sI1
(I121
I121
I-33
I240
tp345
sI2
(I122
I122
I-33
I242
tp346
sI3
(I120
I120
I-33
I242
tp347
sI4
(I121
I121
I-34
I240
tp348
sI5
(I122
I122
I-35
I242
tp349
sI6
(I123
I123
I-35
I240
tp350
sI7
(I120
I120
I-35
I242
tp351
ssba(iSample
Sample
p352
(dp353
g3
S'bbbb::12:4b00:60d:f53b'
p354
sg5
F1441371045.741902
sg6
(dp355
I8
(I125
I125
I-35
I242
tp356
sI9
(I125
I125
I-35
I242
tp357
sI10
(I124
I124
I-36
I242
tp358
sI11
(I126
I126
I-36
I242
tp359
sI12
(I124
I124
I-37
I242
tp360
sI13
(I123
I123
I-37
I242
tp361
sI14
(I124
I124
I-37
I242
tp362
sI15
(I126
I126
I-38
I242
tp363
ssba(iSample
Sample
p364
(dp365
g3
S'bbbb::12:4b00:60d:f53b'
p366
sg5
F1441371047.766184
sg6
(dp367
I0
(I129
I129
I-32
I240
tp368
sI1
(I128
I128
I-33
I242
tp369
sI2
(I129
I129
I-33
I240
tp370
sI3
(I128
I128
I-33
I242
tp371
sI4
(I129
I129
I-34
I242
tp372
sI5
(I130
I130
I-35
I240
tp373
sI6
(I130
I130
I-35
I242
tp374
sI7
(I127
I127
I-35
I242
tp375
ssba(iSample
Sample
p376
(dp377
g3
S'bbbb::12:4b00:60d:f53b'
p378
sg5
F1441371049.792467
sg6
(dp379
I8
(I132
I132
I-35
I242
tp380
sI9
(I133
I133
I-36
I242
tp381
sI10
(I131
I131
I-36
I240
tp382
sI11
(I134
I134
I-36
I239
tp383
sI12
(I131
I131
I-37
I242
tp384
sI13
(I131
I131
I-37
I239
tp385
sI14
(I132
I132
I-37
I242
tp386
sI15
(I134
I134
I-38
I240
tp387
ssba(iSample
Sample
p388
(dp389
g3
S'bbbb::12:4b00:60d:f53b'
p390
sg5
F1441371051.818046
sg6
(dp391
I0
(I136
I136
I-32
I242
tp392
sI1
(I136
I136
I-33
I242
tp393
sI2
(I137
I137
I-33
I240
tp394
sI3
(I136
I136
I-33
I242
tp395
sI4
(I137
I137
I-34
I242
tp396
sI5
(I137
I137
I-35
I240
tp397
sI6
(I137
I137
I-35
I240
tp398
sI7
(I135
I135
I-35
I242
tp399
ssba(iSample
Sample
p400
(dp401
g3
S'bbbb::12:4b00:60d:f53b'
p402
sg5
F1441371053.844493
sg6
(dp403
I8
(I139
I139
I-35
I240
tp404
sI9
(I140
I140
I-36
I242
tp405
sI10
(I138
I138
I-36
I242
tp406
sI11
(I141
I141
I-36
I242
tp407
sI12
(I139
I139
I-37
I242
tp408
sI13
(I139
I139
I-37
I240
tp409
sI14
(I139
I139
I-37
I242
tp410
sI15
(I142
I142
I-38
I242
tp411
ssba(iSample
Sample
p412
(dp413
g3
S'bbbb::12:4b00:60d:f53b'
p414
sg5
F1441371055.733639
sg6
(dp415
I0
(I144
I144
I-32
I239
tp416
sI1
(I144
I144
I-33
I240
tp417
sI2
(I145
I145
I-33
I242
tp418
sI3
(I143
I143
I-33
I242
tp419
sI4
(I144
I144
I-34
I242
tp420
sI5
(I144
I144
I-35
I242
tp421
sI6
(I145
I145
I-35
I242
tp422
sI7
(I143
I143
I-35
I242
tp423
ssba(iSample
Sample
p424
(dp425
g3
S'bbbb::12:4b00:60d:f53b'
p426
sg5
F1441371057.760205
sg6
(dp427
I8
(I147
I147
I-35
I242
tp428
sI9
(I147
I147
I-36
I240
tp429
sI10
(I147
I147
I-36
I242
tp430
sI11
(I148
I148
I-36
I242
tp431
sI12
(I147
I147
I-37
I242
tp432
sI13
(I146
I146
I-37
I242
tp433
sI14
(I146
I146
I-37
I240
tp434
sI15
(I149
I149
I-38
I242
tp435
ssba(iSample
Sample
p436
(dp437
g3
S'bbbb::12:4b00:60d:f53b'
p438
sg5
F1441371059.785585
sg6
(dp439
I0
(I152
I152
I-32
I242
tp440
sI1
(I152
I152
I-33
I242
tp441
sI2
(I151
I151
I-33
I242
tp442
sI3
(I150
I150
I-33
I242
tp443
sI4
(I151
I151
I-34
I242
tp444
sI5
(I152
I152
I-34
I242
tp445
sI6
(I153
I153
I-35
I240
tp446
sI7
(I150
I150
I-35
I242
tp447
ssba(iSample
Sample
p448
(dp449
g3
S'bbbb::12:4b00:60d:f53b'
p450
sg5
F1441371061.812668
sg6
(dp451
I8
(I155
I155
I-35
I242
tp452
sI9
(I155
I155
I-35
I239
tp453
sI10
(I155
I155
I-36
I240
tp454
sI11
(I156
I156
I-36
I240
tp455
sI12
(I153
I153
I-37
I242
tp456
sI13
(I153
I153
I-37
I242
tp457
sI14
(I155
I155
I-37
I242
tp458
sI15
(I156
I156
I-38
I242
tp459
ssba(iSample
Sample
p460
(dp461
g3
S'bbbb::12:4b00:60d:f53b'
p462
sg5
F1441371063.837412
sg6
(dp463
I0
(I158
I158
I-32
I242
tp464
sI1
(I158
I158
I-33
I242
tp465
sI2
(I159
I159
I-33
I240
tp466
sI3
(I158
I158
I-33
I242
tp467
sI4
(I159
I159
I-34
I242
tp468
sI5
(I159
I159
I-34
I242
tp469
sI6
(I160
I160
I-35
I242
tp470
sI7
(I157
I157
I-35
I242
tp471
ssba(iSample
Sample
p472
(dp473
g3
S'bbbb::12:4b00:60d:f53b'
p474
sg5
F1441371065.862361
sg6
(dp475
I8
(I162
I162
I-35
I240
tp476
sI9
(I162
I162
I-35
I242
tp477
sI10
(I162
I162
I-36
I242
tp478
sI11
(I163
I163
I-36
I242
tp479
sI12
(I161
I161
I-37
I242
tp480
sI13
(I161
I161
I-37
I242
tp481
sI14
(I163
I163
I-37
I242
tp482
sI15
(I164
I164
I-38
I242
tp483
ssba(iSample
Sample
p484
(dp485
g3
S'bbbb::12:4b00:60d:f53b'
p486
sg5
F1441371067.889192
sg6
(dp487
I0
(I166
I166
I-32
I242
tp488
sI1
(I166
I166
I-33
I242
tp489
sI2
(I167
I167
I-33
I242
tp490
sI3
(I166
I166
I-33
I242
tp491
sI4
(I166
I166
I-34
I240
tp492
sI5
(I166
I166
I-34
I240
tp493
sI6
(I167
I167
I-35
I242
tp494
sI7
(I165
I165
I-35
I242
tp495
ssba(iSample
Sample
p496
(dp497
g3
S'bbbb::12:4b00:60d:f53b'
p498
sg5
F1441371069.915376
sg6
(dp499
I8
(I169
I169
I-35
I242
tp500
sI9
(I169
I169
I-35
I238
tp501
sI10
(I169
I169
I-36
I242
tp502
sI11
(I170
I170
I-36
I240
tp503
sI12
(I169
I169
I-37
I242
tp504
sI13
(I168
I168
I-37
I242
tp505
sI14
(I170
I170
I-37
I240
tp506
sI15
(I172
I172
I-38
I242
tp507
ssba(iSample
Sample
p508
(dp509
g3
S'bbbb::12:4b00:60d:f53b'
p510
sg5
F1441371071.941367
sg6
(dp511
I0
(I174
I174
I-32
I242
tp512
sI1
(I174
I174
I-33
I242
tp513
sI2
(I175
I175
I-33
I240
tp514
sI3
(I173
I173
I-33
I242
tp515
sI4
(I173
I173
I-34
I242
tp516
sI5
(I174
I174
I-34
I242
tp517
sI6
(I175
I175
I-35
I242
tp518
sI7
(I172
I172
I-35
I242
tp519
ssba(iSample
Sample
p520
(dp521
g3
S'bbbb::12:4b00:60d:f53b'
p522
sg5
F1441371073.966104
sg6
(dp523
I8
(I177
I177
I-35
I242
tp524
sI9
(I177
I177
I-35
I240
tp525
sI10
(I177
I177
I-36
I242
tp526
sI11
(I178
I178
I-36
I240
tp527
sI12
(I177
I177
I-37
I240
tp528
sI13
(I175
I175
I-37
I240
tp529
sI14
(I177
I177
I-37
I240
tp530
sI15
(I179
I179
I-38
I242
tp531
ssba(iSample
Sample
p532
(dp533
g3
S'bbbb::12:4b00:60d:f53b'
p534
sg5
F1441371075.992066
sg6
(dp535
I0
(I182
I182
I-32
I242
tp536
sI1
(I181
I181
I-32
I238
tp537
sI2
(I182
I182
I-33
I242
tp538
sI3
(I180
I180
I-33
I238
tp539
sI4
(I181
I181
I-34
I242
tp540
sI5
(I182
I182
I-34
I242
tp541
sI6
(I182
I182
I-35
I242
tp542
sI7
(I179
I179
I-35
I242
tp543
ssba(iSample
Sample
p544
(dp545
g3
S'bbbb::12:4b00:60d:f53b'
p546
sg5
F1441371078.018222
sg6
(dp547
I8
(I184
I184
I-35
I242
tp548
sI9
(I185
I185
I-35
I242
tp549
sI10
(I185
I185
I-36
I242
tp550
sI11
(I186
I186
I-36
I242
tp551
sI12
(I184
I184
I-37
I242
tp552
sI13
(I183
I183
I-37
I242
tp553
sI14
(I185
I185
I-38
I240
tp554
sI15
(I186
I186
I-38
I242
tp555
ssba(iSample
Sample
p556
(dp557
g3
S'bbbb::12:4b00:60d:f53b'
p558
sg5
F1441371079.909197
sg6
(dp559
I0
(I189
I188
I-32
I240
tp560
sI1
(I188
I188
I-32
I242
tp561
sI2
(I189
I189
I-33
I242
tp562
sI3
(I188
I188
I-33
I240
tp563
sI4
(I189
I189
I-33
I242
tp564
sI5
(I189
I189
I-34
I242
tp565
sI6
(I189
I189
I-35
I242
tp566
sI7
(I187
I187
I-35
I242
tp567
ssba(iSample
Sample
p568
(dp569
g3
S'bbbb::12:4b00:60d:f53b'
p570
sg5
F1441371081.934729
sg6
(dp571
I8
(I191
I191
I-35
I242
tp572
sI9
(I193
I193
I-35
I242
tp573
sI10
(I192
I192
I-36
I242
tp574
sI11
(I193
I193
I-36
I242
tp575
sI12
(I191
I191
I-37
I242
tp576
sI13
(I191
I191
I-37
I240
tp577
sI14
(I192
I192
I-38
I242
tp578
sI15
(I194
I194
I-38
I240
tp579
ssba(iSample
Sample
p580
(dp581
g3
S'bbbb::12:4b00:60d:f53b'
p582
sg5
F1441371083.968486
sg6
(dp583
I0
(I196
I196
I-32
I242
tp584
sI1
(I197
I197
I-32
I242
tp585
sI2
(I197
I197
I-33
I242
tp586
sI3
(I195
I195
I-33
I242
tp587
sI4
(I197
I197
I-34
I242
tp588
sI5
(I196
I196
I-34
I242
tp589
sI6
(I198
I198
I-35
I242
tp590
sI7
(I195
I195
I-35
I242
tp591
ssba(iSample
Sample
p592
(dp593
g3
S'bbbb::12:4b00:60d:f53b'
p594
sg5
F1441371085.987139
sg6
(dp595
I8
(I199
I199
I-35
I240
tp596
sI9
(I199
I199
I-35
I242
tp597
sI10
(I199
I199
I-36
I242
tp598
sI11
(I200
I200
I-36
I242
tp599
sI12
(I199
I199
I-36
I240
tp600
sI13
(I198
I198
I-37
I242
tp601
sI14
(I199
I199
I-37
I242
tp602
sI15
(I201
I201
I-37
I240
tp603
ssba.