(lp0
(iSample
Sample
p1
(dp2
S'moteIp'
p3
S'bbbb::12:4b00:60d:8031'
p4
sS'timeStamp'
p5
F1441369474.106457
sS'moteData'
p6
(dp7
I0
(I130
I129
I-39
I241
tp8
sI1
(I131
I125
I-40
I242
tp9
sI2
(I132
I128
I-41
I241
tp10
sI3
(I128
I127
I-43
I241
tp11
sI4
(I126
I125
I-46
I241
tp12
sI5
(I134
I127
I-54
I239
tp13
sI6
(I129
I126
I-53
I239
tp14
sI7
(I127
I126
I-51
I240
tp15
ssba(iSample
Sample
p16
(dp17
g3
S'bbbb::12:4b00:60d:8031'
p18
sg5
F1441369476.130871
sg6
(dp19
I8
(I134
I131
I-50
I240
tp20
sI9
(I137
I130
I-47
I241
tp21
sI10
(I136
I130
I-44
I241
tp22
sI11
(I131
I130
I-44
I241
tp23
sI12
(I137
I133
I-43
I241
tp24
sI13
(I131
I129
I-44
I241
tp25
sI14
(I133
I131
I-45
I241
tp26
sI15
(I135
I131
I-46
I241
tp27
ssba(iSample
Sample
p28
(dp29
g3
S'bbbb::12:4b00:60d:8031'
p30
sg5
F1441369478.156879
sg6
(dp31
I0
(I138
I137
I-38
I242
tp32
sI1
(I138
I132
I-40
I242
tp33
sI2
(I139
I135
I-40
I242
tp34
sI3
(I136
I135
I-42
I240
tp35
sI4
(I134
I133
I-48
I239
tp36
sI5
(I142
I135
I-60
I215
tp37
sI6
(I136
I133
I-51
I240
tp38
sI7
(I134
I133
I-46
I242
tp39
ssba(iSample
Sample
p40
(dp41
g3
S'bbbb::12:4b00:60d:8031'
p42
sg5
F1441369480.18221
sg6
(dp43
I8
(I141
I138
I-45
I237
tp44
sI9
(I145
I138
I-44
I240
tp45
sI10
(I143
I137
I-42
I242
tp46
sI11
(I139
I138
I-42
I242
tp47
sI12
(I144
I140
I-42
I242
tp48
sI13
(I139
I137
I-42
I240
tp49
sI14
(I141
I138
I-43
I238
tp50
sI15
(I144
I140
I-43
I241
tp51
ssba(iSample
Sample
p52
(dp53
g3
S'bbbb::12:4b00:60d:8031'
p54
sg5
F1441369482.148747
sg6
(dp55
I0
(I145
I144
I-38
I242
tp56
sI1
(I147
I140
I-39
I240
tp57
sI2
(I148
I144
I-40
I242
tp58
sI3
(I143
I142
I-42
I242
tp59
sI4
(I142
I141
I-48
I242
tp60
sI5
(I149
I142
I-59
I242
tp61
sI6
(I143
I140
I-51
I240
tp62
sI7
(I142
I141
I-47
I242
tp63
ssba(iSample
Sample
p64
(dp65
g3
S'bbbb::12:4b00:60d:8031'
p66
sg5
F1441369484.17475
sg6
(dp67
I8
(I148
I145
I-47
I242
tp68
sI9
(I153
I146
I-46
I242
tp69
sI10
(I150
I144
I-43
I242
tp70
sI11
(I146
I145
I-43
I238
tp71
sI12
(I152
I148
I-42
I239
tp72
sI13
(I147
I145
I-43
I240
tp73
sI14
(I147
I144
I-43
I242
tp74
sI15
(I151
I147
I-44
I242
tp75
ssba(iSample
Sample
p76
(dp77
g3
S'bbbb::12:4b00:60d:8031'
p78
sg5
F1441369486.199125
sg6
(dp79
I0
(I153
I152
I-38
I242
tp80
sI1
(I155
I148
I-39
I240
tp81
sI2
(I155
I151
I-40
I240
tp82
sI3
(I149
I148
I-42
I242
tp83
sI4
(I151
I149
I-46
I242
tp84
sI5
(I157
I150
I-55
I240
tp85
sI6
(I151
I148
I-57
I242
tp86
sI7
(I150
I149
I-52
I240
tp87
ssba(iSample
Sample
p88
(dp89
g3
S'bbbb::12:4b00:60d:8031'
p90
sg5
F1441369488.226054
sg6
(dp91
I8
(I156
I153
I-49
I237
tp92
sI9
(I160
I153
I-48
I242
tp93
sI10
(I158
I152
I-44
I242
tp94
sI11
(I154
I153
I-44
I242
tp95
sI12
(I159
I154
I-43
I240
tp96
sI13
(I155
I153
I-44
I242
tp97
sI14
(I155
I152
I-45
I240
tp98
sI15
(I157
I153
I-46
I242
tp99
ssba(iSample
Sample
p100
(dp101
g3
S'bbbb::12:4b00:60d:8031'
p102
sg5
F1441369490.205789
sg6
(dp103
I0
(I160
I158
I-38
I242
tp104
sI1
(I163
I156
I-40
I242
tp105
sI2
(I161
I157
I-40
I240
tp106
sI3
(I158
I156
I-42
I242
tp107
sI4
(I158
I156
I-46
I242
tp108
sI5
(I164
I157
I-56
I238
tp109
sI6
(I159
I156
I-64
I240
tp110
sI7
(I158
I157
I-52
I239
tp111
ssba(iSample
Sample
p112
(dp113
g3
S'bbbb::12:4b00:60d:8031'
p114
sg5
F1441369492.232914
sg6
(dp115
I8
(I164
I161
I-50
I242
tp116
sI9
(I168
I161
I-48
I242
tp117
sI10
(I166
I160
I-45
I242
tp118
sI11
(I161
I160
I-44
I242
tp119
sI12
(I165
I161
I-43
I242
tp120
sI13
(I162
I160
I-44
I242
tp121
sI14
(I163
I160
I-46
I242
tp122
sI15
(I165
I161
I-46
I242
tp123
ssba(iSample
Sample
p124
(dp125
g3
S'bbbb::12:4b00:60d:8031'
p126
sg5
F1441369494.258761
sg6
(dp127
I0
(I167
I165
I-38
I242
tp128
sI1
(I170
I163
I-40
I240
tp129
sI2
(I170
I165
I-40
I242
tp130
sI3
(I166
I164
I-42
I242
tp131
sI4
(I166
I163
I-46
I242
tp132
sI5
(I171
I164
I-55
I238
tp133
sI6
(I167
I164
I-65
I236
tp134
sI7
(I165
I164
I-53
I235
tp135
ssba(iSample
Sample
p136
(dp137
g3
S'bbbb::12:4b00:60d:8031'
p138
sg5
F1441369496.253472
sg6
(dp139
I8
(I172
I169
I-50
I239
tp140
sI9
(I174
I167
I-48
I242
tp141
sI10
(I174
I168
I-45
I242
tp142
sI11
(I168
I167
I-44
I240
tp143
sI12
(I173
I169
I-43
I242
tp144
sI13
(I169
I167
I-44
I242
tp145
sI14
(I171
I168
I-46
I240
tp146
sI15
(I173
I169
I-46
I242
tp147
ssba(iSample
Sample
p148
(dp149
g3
S'bbbb::12:4b00:60d:8031'
p150
sg5
F1441369498.279937
sg6
(dp151
I0
(I175
I173
I-38
I242
tp152
sI1
(I178
I171
I-40
I240
tp153
sI2
(I178
I173
I-40
I242
tp154
sI3
(I174
I172
I-42
I239
tp155
sI4
(I172
I170
I-46
I240
tp156
sI5
(I178
I171
I-55
I238
tp157
sI6
(I174
I171
I-65
I236
tp158
sI7
(I172
I171
I-52
I238
tp159
ssba(iSample
Sample
p160
(dp161
g3
S'bbbb::12:4b00:60d:8031'
p162
sg5
F1441369500.305323
sg6
(dp163
I8
(I179
I176
I-50
I235
tp164
sI9
(I181
I174
I-48
I242
tp165
sI10
(I181
I175
I-45
I240
tp166
sI11
(I175
I174
I-44
I240
tp167
sI12
(I181
I177
I-43
I240
tp168
sI13
(I177
I173
I-44
I242
tp169
sI14
(I179
I176
I-46
I240
tp170
sI15
(I181
I177
I-46
I240
tp171
ssba(iSample
Sample
p172
(dp173
g3
S'bbbb::12:4b00:60d:8031'
p174
sg5
F1441369502.332126
sg6
(dp175
I0
(I184
I181
I-38
I239
tp176
sI1
(I185
I178
I-39
I242
tp177
sI2
(I186
I181
I-40
I242
tp178
sI3
(I182
I180
I-42
I242
tp179
sI4
(I179
I177
I-46
I242
tp180
sI5
(I186
I178
I-55
I240
tp181
sI6
(I181
I178
I-66
I242
tp182
sI7
(I179
I178
I-53
I238
tp183
ssba(iSample
Sample
p184
(dp185
g3
S'bbbb::12:4b00:60d:8031'
p186
sg5
F1441369504.358034
sg6
(dp187
I8
(I187
I184
I-50
I240
tp188
sI9
(I190
I182
I-48
I240
tp189
sI10
(I190
I184
I-45
I242
tp190
sI11
(I183
I182
I-44
I242
tp191
sI12
(I189
I185
I-43
I240
tp192
sI13
(I184
I180
I-44
I240
tp193
sI14
(I186
I183
I-46
I242
tp194
sI15
(I189
I184
I-46
I240
tp195
ssba(iSample
Sample
p196
(dp197
g3
S'bbbb::12:4b00:60d:8031'
p198
sg5
F1441369506.322577
sg6
(dp199
I0
(I192
I189
I-38
I239
tp200
sI1
(I192
I184
I-40
I242
tp201
sI2
(I193
I188
I-40
I242
tp202
sI3
(I189
I187
I-42
I240
tp203
sI4
(I187
I185
I-46
I236
tp204
sI5
(I195
I187
I-54
I231
tp205
sI6
(I188
I185
I-67
I198
tp206
sI7
(I186
I185
I-53
I240
tp207
ssba(iSample
Sample
p208
(dp209
g3
S'bbbb::12:4b00:60d:8031'
p210
sg5
F1441369510.375021
sg6
(dp211
I0
(I199
I196
I-38
I240
tp212
sI1
(I199
I192
I-39
I240
tp213
sI2
(I202
I196
I-40
I242
tp214
sI3
(I196
I194
I-42
I242
tp215
sI4
(I195
I193
I-45
I242
tp216
sI5
(I203
I195
I-54
I234
tp217
sI6
(I195
I187
I-70
I58
tp218
sI7
(I194
I193
I-54
I239
tp219
ssba(iSample
Sample
p220
(dp221
g3
S'bbbb::12:4b00:60d:8031'
p222
sg5
F1441369512.401017
sg6
(dp223
I8
(I201
I198
I-51
I242
tp224
sI9
(I206
I198
I-48
I237
tp225
sI10
(I203
I197
I-46
I242
tp226
sI11
(I199
I198
I-44
I240
tp227
sI12
(I203
I199
I-44
I242
tp228
sI13
(I201
I196
I-44
I239
tp229
sI14
(I200
I197
I-46
I242
tp230
sI15
(I203
I199
I-47
I242
tp231
ssba(iSample
Sample
p232
(dp233
g3
S'bbbb::12:4b00:60d:8031'
p234
sg5
F1441369514.380546
sg6
(dp235
I0
(I207
I204
I-38
I242
tp236
sI1
(I206
I199
I-39
I240
tp237
sI2
(I209
I203
I-40
I240
tp238
sI3
(I203
I201
I-42
I242
tp239
sI4
(I203
I201
I-45
I242
tp240
sI5
(I210
I202
I-54
I238
tp241
sI6
(I203
I192
I-70
I207
tp242
sI7
(I202
I201
I-54
I237
tp243
ssba(iSample
Sample
p244
(dp245
g3
S'bbbb::12:4b00:60d:8031'
p246
sg5
F1441369516.406179
sg6
(dp247
I8
(I209
I206
I-51
I239
tp248
sI9
(I213
I205
I-48
I242
tp249
sI10
(I211
I205
I-45
I242
tp250
sI11
(I206
I205
I-44
I238
tp251
sI12
(I210
I206
I-44
I240
tp252
sI13
(I209
I204
I-44
I242
tp253
sI14
(I208
I204
I-46
I238
tp254
sI15
(I210
I206
I-47
I238
tp255
ssba(iSample
Sample
p256
(dp257
g3
S'bbbb::12:4b00:60d:8031'
p258
sg5
F1441369518.433048
sg6
(dp259
I0
(I214
I211
I-38
I242
tp260
sI1
(I214
I207
I-39
I242
tp261
sI2
(I216
I210
I-40
I242
tp262
sI3
(I210
I208
I-42
I242
tp263
sI4
(I210
I208
I-45
I242
tp264
sI5
(I218
I209
I-54
I236
tp265
sI6
(I211
I200
I-69
I218
tp266
sI7
(I210
I209
I-53
I237
tp267
ssba(iSample
Sample
p268
(dp269
g3
S'bbbb::12:4b00:60d:8031'
p270
sg5
F1441369520.428397
sg6
(dp271
I8
(I219
I214
I-50
I240
tp272
sI9
(I221
I213
I-48
I239
tp273
sI10
(I219
I213
I-45
I242
tp274
sI11
(I213
I212
I-44
I242
tp275
sI12
(I217
I213
I-44
I242
tp276
sI13
(I216
I211
I-44
I242
tp277
sI14
(I216
I212
I-46
I242
tp278
sI15
(I217
I213
I-47
I242
tp279
ssba(iSample
Sample
p280
(dp281
g3
S'bbbb::12:4b00:60d:8031'
p282
sg5
F1441369522.453175
sg6
(dp283
I0
(I221
I218
I-38
I242
tp284
sI1
(I222
I215
I-40
I242
tp285
sI2
(I223
I217
I-40
I240
tp286
sI3
(I218
I216
I-42
I242
tp287
sI4
(I218
I216
I-46
I242
tp288
sI5
(I224
I216
I-55
I240
tp289
sI6
(I219
I208
I-63
I226
tp290
sI7
(I218
I216
I-52
I238
tp291
ssba(iSample
Sample
p292
(dp293
g3
S'bbbb::12:4b00:60d:8031'
p294
sg5
F1441369524.480738
sg6
(dp295
I8
(I227
I222
I-48
I239
tp296
sI9
(I228
I220
I-46
I240
tp297
sI10
(I227
I221
I-44
I242
tp298
sI11
(I220
I219
I-43
I242
tp299
sI12
(I224
I220
I-43
I242
tp300
sI13
(I224
I219
I-44
I242
tp301
sI14
(I224
I220
I-46
I240
tp302
sI15
(I225
I221
I-46
I240
tp303
ssba(iSample
Sample
p304
(dp305
g3
S'bbbb::12:4b00:60d:8031'
p306
sg5
F1441369526.506061
sg6
(dp307
I0
(I228
I225
I-39
I242
tp308
sI1
(I229
I222
I-41
I242
tp309
sI2
(I231
I225
I-41
I240
tp310
sI3
(I226
I224
I-43
I242
tp311
sI4
(I225
I223
I-48
I242
tp312
sI5
(I231
I223
I-56
I236
tp313
sI6
(I226
I215
I-53
I240
tp314
sI7
(I227
I225
I-48
I242
tp315
ssba(iSample
Sample
p316
(dp317
g3
S'bbbb::12:4b00:60d:8031'
p318
sg5
F1441369528.531574
sg6
(dp319
I8
(I234
I229
I-48
I238
tp320
sI9
(I235
I227
I-46
I240
tp321
sI10
(I235
I228
I-44
I242
tp322
sI11
(I227
I226
I-44
I240
tp323
sI12
(I232
I228
I-44
I242
tp324
sI13
(I231
I226
I-45
I242
tp325
sI14
(I232
I228
I-48
I242
tp326
sI15
(I233
I229
I-48
I237
tp327
ssba(iSample
Sample
p328
(dp329
g3
S'bbbb::12:4b00:60d:8031'
p330
sg5
F1441369530.497529
sg6
(dp331
I0
(I236
I233
I-40
I240
tp332
sI1
(I237
I229
I-41
I242
tp333
sI2
(I240
I233
I-42
I242
tp334
sI3
(I234
I232
I-44
I240
tp335
sI4
(I233
I229
I-48
I242
tp336
sI5
(I239
I231
I-54
I232
tp337
sI6
(I235
I224
I-51
I241
tp338
sI7
(I234
I232
I-48
I240
tp339
ssba(iSample
Sample
p340
(dp341
g3
S'bbbb::12:4b00:60d:8031'
p342
sg5
F1441369532.523088
sg6
(dp343
I8
(I242
I237
I-48
I240
tp344
sI9
(I242
I234
I-46
I242
tp345
sI10
(I242
I236
I-44
I242
tp346
sI11
(I235
I234
I-44
I242
tp347
sI12
(I240
I236
I-44
I240
tp348
sI13
(I237
I232
I-45
I242
tp349
sI14
(I239
I235
I-48
I242
tp350
sI15
(I241
I237
I-48
I240
tp351
ssba(iSample
Sample
p352
(dp353
g3
S'bbbb::12:4b00:60d:8031'
p354
sg5
F1441369534.549558
sg6
(dp355
I0
(I244
I241
I-40
I242
tp356
sI1
(I244
I236
I-41
I242
tp357
sI2
(I248
I241
I-42
I242
tp358
sI3
(I241
I239
I-44
I242
tp359
sI4
(I240
I237
I-48
I242
tp360
sI5
(I248
I239
I-54
I234
tp361
sI6
(I242
I231
I-51
I238
tp362
sI7
(I240
I238
I-48
I242
tp363
ssba(iSample
Sample
p364
(dp365
g3
S'bbbb::12:4b00:60d:8031'
p366
sg5
F1441369536.574927
sg6
(dp367
I8
(I249
I243
I-48
I242
tp368
sI9
(I250
I242
I-46
I240
tp369
sI10
(I249
I243
I-44
I238
tp370
sI11
(I243
I242
I-44
I242
tp371
sI12
(I248
I244
I-44
I240
tp372
sI13
(I245
I240
I-45
I242
tp373
sI14
(I247
I243
I-47
I242
tp374
sI15
(I248
I244
I-48
I240
tp375
ssba(iSample
Sample
p376
(dp377
g3
S'bbbb::12:4b00:60d:8031'
p378
sg5
F1441369538.555479
sg6
(dp379
I0
(I252
I249
I-40
I242
tp380
sI1
(I251
I243
I-42
I240
tp381
sI2
(I255
I248
I-42
I242
tp382
sI3
(I249
I247
I-44
I242
tp383
sI4
(I248
I245
I-49
I242
tp384
sI5
(I256
I247
I-54
I237
tp385
sI6
(I248
I237
I-51
I242
tp386
sI7
(I248
I246
I-48
I240
tp387
ssba(iSample
Sample
p388
(dp389
g3
S'bbbb::12:4b00:60d:8031'
p390
sg5
F1441369540.58046
sg6
(dp391
I8
(I255
I250
I-47
I240
tp392
sI9
(I258
I250
I-45
I242
tp393
sI10
(I256
I250
I-44
I242
tp394
sI11
(I252
I250
I-44
I242
tp395
sI12
(I255
I251
I-44
I240
tp396
sI13
(I253
I248
I-45
I242
tp397
sI14
(I254
I249
I-47
I242
tp398
sI15
(I256
I251
I-47
I242
tp399
ssba(iSample
Sample
p400
(dp401
g3
S'bbbb::12:4b00:60d:8031'
p402
sg5
F1441369542.652508
sg6
(dp403
I0
(I259
I256
I-40
I242
tp404
sI1
(I260
I251
I-42
I242
tp405
sI2
(I262
I255
I-42
I242
tp406
sI3
(I255
I253
I-44
I242
tp407
sI4
(I256
I253
I-49
I242
tp408
sI5
(I263
I254
I-55
I237
tp409
sI6
(I256
I245
I-50
I240
tp410
sI7
(I256
I254
I-48
I242
tp411
ssba(iSample
Sample
p412
(dp413
g3
S'bbbb::12:4b00:60d:8031'
p414
sg5
F1441369544.603568
sg6
(dp415
I8
(I263
I258
I-48
I242
tp416
sI9
(I266
I258
I-47
I242
tp417
sI10
(I263
I257
I-44
I242
tp418
sI11
(I259
I257
I-44
I242
tp419
sI12
(I262
I258
I-44
I242
tp420
sI13
(I261
I256
I-45
I242
tp421
sI14
(I261
I256
I-47
I242
tp422
sI15
(I262
I258
I-47
I242
tp423
ssba(iSample
Sample
p424
(dp425
g3
S'bbbb::12:4b00:60d:8031'
p426
sg5
F1441369546.628747
sg6
(dp427
I0
(I266
I263
I-38
I242
tp428
sI1
(I268
I259
I-40
I242
tp429
sI2
(I269
I262
I-41
I242
tp430
sI3
(I262
I259
I-42
I242
tp431
sI4
(I264
I261
I-47
I242
tp432
sI5
(I271
I262
I-59
I239
tp433
sI6
(I264
I253
I-58
I239
tp434
sI7
(I265
I262
I-50
I236
tp435
ssba(iSample
Sample
p436
(dp437
g3
S'bbbb::12:4b00:60d:8031'
p438
sg5
F1441369548.654926
sg6
(dp439
I8
(I271
I266
I-49
I239
tp440
sI9
(I273
I265
I-47
I242
tp441
sI10
(I271
I265
I-45
I240
tp442
sI11
(I267
I265
I-44
I240
tp443
sI12
(I269
I265
I-44
I242
tp444
sI13
(I269
I264
I-44
I240
tp445
sI14
(I269
I264
I-46
I242
tp446
sI15
(I269
I265
I-47
I242
tp447
ssba(iSample
Sample
p448
(dp449
g3
S'bbbb::12:4b00:60d:8031'
p450
sg5
F1441369550.68088
sg6
(dp451
I0
(I273
I270
I-39
I242
tp452
sI1
(I277
I267
I-41
I242
tp453
sI2
(I276
I269
I-41
I242
tp454
sI3
(I270
I267
I-43
I242
tp455
sI4
(I271
I268
I-48
I242
tp456
sI5
(I278
I267
I-65
I217
tp457
sI6
(I272
I261
I-55
I240
tp458
sI7
(I273
I270
I-49
I242
tp459
ssba(iSample
Sample
p460
(dp461
g3
S'bbbb::12:4b00:60d:8031'
p462
sg5
F1441369552.705844
sg6
(dp463
I8
(I279
I274
I-48
I239
tp464
sI9
(I281
I273
I-47
I242
tp465
sI10
(I279
I273
I-44
I237
tp466
sI11
(I274
I272
I-44
I242
tp467
sI12
(I276
I272
I-43
I242
tp468
sI13
(I276
I271
I-45
I240
tp469
sI14
(I277
I272
I-46
I240
tp470
sI15
(I277
I273
I-46
I240
tp471
ssba(iSample
Sample
p472
(dp473
g3
S'bbbb::12:4b00:60d:8031'
p474
sg5
F1441369554.670961
sg6
(dp475
I0
(I280
I277
I-39
I242
tp476
sI1
(I284
I274
I-42
I242
tp477
sI2
(I284
I277
I-41
I242
tp478
sI3
(I278
I275
I-44
I240
tp479
sI4
(I279
I275
I-48
I240
tp480
sI5
(I286
I273
I-56
I236
tp481
sI6
(I279
I268
I-51
I237
tp482
sI7
(I280
I277
I-48
I238
tp483
ssba(iSample
Sample
p484
(dp485
g3
S'bbbb::12:4b00:60d:8031'
p486
sg5
F1441369556.698044
sg6
(dp487
I8
(I286
I281
I-48
I240
tp488
sI9
(I288
I280
I-46
I242
tp489
sI10
(I288
I281
I-44
I242
tp490
sI11
(I280
I278
I-44
I242
tp491
sI12
(I284
I280
I-44
I242
tp492
sI13
(I284
I279
I-46
I242
tp493
sI14
(I285
I280
I-48
I240
tp494
sI15
(I285
I281
I-49
I242
tp495
ssba(iSample
Sample
p496
(dp497
g3
S'bbbb::12:4b00:60d:8031'
p498
sg5
F1441369558.724297
sg6
(dp499
I0
(I288
I285
I-40
I242
tp500
sI1
(I292
I282
I-42
I240
tp501
sI2
(I292
I285
I-42
I242
tp502
sI3
(I286
I283
I-44
I239
tp503
sI4
(I286
I282
I-48
I242
tp504
sI5
(I293
I281
I-53
I242
tp505
sI6
(I287
I276
I-50
I240
tp506
sI7
(I287
I284
I-48
I242
tp507
ssba(iSample
Sample
p508
(dp509
g3
S'bbbb::12:4b00:60d:8031'
p510
sg5
F1441369560.749722
sg6
(dp511
I8
(I294
I289
I-48
I242
tp512
sI9
(I295
I287
I-47
I242
tp513
sI10
(I295
I288
I-45
I236
tp514
sI11
(I288
I286
I-44
I242
tp515
sI12
(I292
I288
I-44
I242
tp516
sI13
(I291
I286
I-46
I242
tp517
sI14
(I293
I287
I-48
I238
tp518
sI15
(I293
I289
I-48
I242
tp519
ssba(iSample
Sample
p520
(dp521
g3
S'bbbb::12:4b00:60d:8031'
p522
sg5
F1441369562.729361
sg6
(dp523
I0
(I296
I293
I-40
I242
tp524
sI1
(I298
I288
I-41
I242
tp525
sI2
(I300
I293
I-42
I242
tp526
sI3
(I293
I290
I-44
I242
tp527
sI4
(I293
I289
I-48
I238
tp528
sI5
(I301
I289
I-55
I242
tp529
sI6
(I294
I283
I-53
I235
tp530
sI7
(I294
I291
I-49
I240
tp531
ssba(iSample
Sample
p532
(dp533
g3
S'bbbb::12:4b00:60d:8031'
p534
sg5
F1441369564.756558
sg6
(dp535
I8
(I301
I296
I-47
I240
tp536
sI9
(I304
I295
I-46
I239
tp537
sI10
(I303
I295
I-44
I242
tp538
sI11
(I296
I294
I-44
I242
tp539
sI12
(I300
I296
I-44
I242
tp540
sI13
(I298
I293
I-45
I242
tp541
sI14
(I301
I295
I-47
I242
tp542
sI15
(I300
I296
I-48
I240
tp543
ssba(iSample
Sample
p544
(dp545
g3
S'bbbb::12:4b00:60d:8031'
p546
sg5
F1441369566.781957
sg6
(dp547
I0
(I304
I301
I-40
I242
tp548
sI1
(I305
I295
I-42
I242
tp549
sI2
(I307
I300
I-42
I242
tp550
sI3
(I301
I298
I-45
I242
tp551
sI4
(I301
I297
I-49
I240
tp552
sI5
(I309
I297
I-54
I234
tp553
sI6
(I301
I290
I-50
I242
tp554
sI7
(I301
I298
I-48
I242
tp555
ssba(iSample
Sample
p556
(dp557
g3
S'bbbb::12:4b00:60d:8031'
p558
sg5
F1441369568.777147
sg6
(dp559
I8
(I308
I303
I-47
I242
tp560
sI9
(I312
I303
I-45
I239
tp561
sI10
(I310
I302
I-44
I242
tp562
sI11
(I304
I302
I-44
I239
tp563
sI12
(I307
I303
I-44
I242
tp564
sI13
(I306
I301
I-45
I242
tp565
sI14
(I308
I302
I-47
I242
tp566
sI15
(I308
I304
I-48
I242
tp567
ssba(iSample
Sample
p568
(dp569
g3
S'bbbb::12:4b00:60d:8031'
p570
sg5
F1441369570.803426
sg6
(dp571
I0
(I312
I308
I-40
I242
tp572
sI1
(I313
I303
I-42
I242
tp573
sI2
(I315
I308
I-42
I242
tp574
sI3
(I308
I305
I-45
I242
tp575
sI4
(I309
I305
I-49
I240
tp576
sI5
(I317
I305
I-54
I237
tp577
sI6
(I308
I297
I-50
I242
tp578
sI7
(I309
I306
I-48
I242
tp579
ssba(iSample
Sample
p580
(dp581
g3
S'bbbb::12:4b00:60d:8031'
p582
sg5
F1441369572.83051
sg6
(dp583
I8
(I315
I310
I-47
I240
tp584
sI9
(I320
I311
I-45
I242
tp585
sI10
(I317
I309
I-44
I242
tp586
sI11
(I312
I310
I-44
I242
tp587
sI12
(I315
I311
I-44
I242
tp588
sI13
(I315
I309
I-45
I239
tp589
sI14
(I315
I309
I-48
I240
tp590
sI15
(I315
I311
I-48
I242
tp591
ssba(iSample
Sample
p592
(dp593
g3
S'bbbb::12:4b00:60d:8031'
p594
sg5
F1441369574.854037
sg6
(dp595
I0
(I321
I317
I-40
I242
tp596
sI1
(I321
I311
I-42
I242
tp597
sI2
(I322
I315
I-42
I242
tp598
sI3
(I315
I312
I-44
I242
tp599
sI4
(I317
I313
I-49
I242
tp600
sI5
(I324
I312
I-56
I238
tp601
sI6
(I316
I305
I-51
I237
tp602
sI7
(I317
I314
I-48
I240
tp603
ssba.