(lp0
(iSample
Sample
p1
(dp2
S'moteIp'
p3
S'bbbb::12:4b00:60d:8031'
p4
sS'timeStamp'
p5
F1441372982.335629
sS'moteData'
p6
(dp7
I0
(I42
I41
I-34
I242
tp8
sI1
(I40
I40
I-34
I240
tp9
sI2
(I43
I40
I-35
I241
tp10
sI3
(I39
I39
I-35
I242
tp11
sI4
(I40
I40
I-34
I241
tp12
sI5
(I40
I39
I-34
I242
tp13
sI6
(I38
I38
I-34
I241
tp14
sI7
(I39
I39
I-35
I242
tp15
ssba(iSample
Sample
p16
(dp17
g3
S'bbbb::12:4b00:60d:8031'
p18
sg5
F1441372984.361174
sg6
(dp19
I8
(I44
I44
I-34
I241
tp20
sI9
(I46
I45
I-34
I241
tp21
sI10
(I46
I46
I-35
I241
tp22
sI11
(I46
I45
I-35
I242
tp23
sI12
(I47
I47
I-35
I241
tp24
sI13
(I46
I46
I-35
I242
tp25
sI14
(I45
I45
I-35
I242
tp26
sI15
(I45
I45
I-35
I241
tp27
ssba(iSample
Sample
p28
(dp29
g3
S'bbbb::12:4b00:60d:8031'
p30
sg5
F1441372986.386853
sg6
(dp31
I0
(I54
I53
I-34
I241
tp32
sI1
(I51
I51
I-35
I242
tp33
sI2
(I54
I51
I-35
I242
tp34
sI3
(I50
I50
I-35
I242
tp35
sI4
(I51
I51
I-35
I242
tp36
sI5
(I52
I51
I-35
I242
tp37
sI6
(I49
I49
I-35
I242
tp38
sI7
(I51
I51
I-35
I241
tp39
ssba(iSample
Sample
p40
(dp41
g3
S'bbbb::12:4b00:60d:8031'
p42
sg5
F1441372988.413239
sg6
(dp43
I8
(I55
I55
I-35
I242
tp44
sI9
(I57
I56
I-34
I242
tp45
sI10
(I56
I56
I-35
I242
tp46
sI11
(I58
I57
I-35
I242
tp47
sI12
(I58
I58
I-35
I241
tp48
sI13
(I57
I57
I-35
I242
tp49
sI14
(I56
I56
I-35
I242
tp50
sI15
(I56
I56
I-35
I241
tp51
ssba(iSample
Sample
p52
(dp53
g3
S'bbbb::12:4b00:60d:8031'
p54
sg5
F1441372990.438144
sg6
(dp55
I0
(I65
I64
I-34
I241
tp56
sI1
(I62
I62
I-35
I241
tp57
sI2
(I65
I62
I-35
I242
tp58
sI3
(I61
I61
I-35
I240
tp59
sI4
(I62
I62
I-35
I240
tp60
sI5
(I65
I64
I-35
I242
tp61
sI6
(I61
I61
I-35
I242
tp62
sI7
(I62
I62
I-35
I242
tp63
ssba(iSample
Sample
p64
(dp65
g3
S'bbbb::12:4b00:60d:8031'
p66
sg5
F1441372992.463802
sg6
(dp67
I8
(I67
I67
I-35
I239
tp68
sI9
(I69
I68
I-34
I241
tp69
sI10
(I68
I68
I-35
I240
tp70
sI11
(I70
I69
I-35
I242
tp71
sI12
(I69
I69
I-35
I240
tp72
sI13
(I68
I68
I-35
I242
tp73
sI14
(I67
I67
I-35
I242
tp74
sI15
(I67
I67
I-35
I241
tp75
ssba(iSample
Sample
p76
(dp77
g3
S'bbbb::12:4b00:60d:8031'
p78
sg5
F1441372994.489207
sg6
(dp79
I0
(I76
I75
I-35
I242
tp80
sI1
(I73
I73
I-35
I240
tp81
sI2
(I76
I73
I-35
I242
tp82
sI3
(I72
I72
I-35
I242
tp83
sI4
(I74
I74
I-35
I240
tp84
sI5
(I76
I75
I-35
I242
tp85
sI6
(I72
I72
I-35
I241
tp86
sI7
(I73
I73
I-35
I242
tp87
ssba(iSample
Sample
p88
(dp89
g3
S'bbbb::12:4b00:60d:8031'
p90
sg5
F1441372996.380315
sg6
(dp91
I8
(I77
I77
I-34
I241
tp92
sI9
(I80
I79
I-34
I238
tp93
sI10
(I79
I79
I-34
I238
tp94
sI11
(I81
I80
I-35
I241
tp95
sI12
(I80
I80
I-35
I242
tp96
sI13
(I80
I80
I-35
I241
tp97
sI14
(I79
I79
I-35
I242
tp98
sI15
(I78
I78
I-35
I240
tp99
ssba(iSample
Sample
p100
(dp101
g3
S'bbbb::12:4b00:60d:8031'
p102
sg5
F1441372998.405918
sg6
(dp103
I0
(I87
I86
I-34
I242
tp104
sI1
(I85
I85
I-34
I240
tp105
sI2
(I87
I84
I-35
I241
tp106
sI3
(I84
I84
I-35
I241
tp107
sI4
(I85
I85
I-35
I242
tp108
sI5
(I86
I85
I-34
I241
tp109
sI6
(I83
I83
I-35
I241
tp110
sI7
(I85
I84
I-35
I242
tp111
ssba(iSample
Sample
p112
(dp113
g3
S'bbbb::12:4b00:60d:8031'
p114
sg5
F1441373000.43215
sg6
(dp115
I8
(I89
I89
I-34
I242
tp116
sI9
(I91
I90
I-34
I241
tp117
sI10
(I90
I90
I-34
I242
tp118
sI11
(I91
I90
I-35
I241
tp119
sI12
(I91
I91
I-35
I241
tp120
sI13
(I91
I91
I-35
I241
tp121
sI14
(I89
I89
I-35
I242
tp122
sI15
(I89
I89
I-35
I241
tp123
ssba(iSample
Sample
p124
(dp125
g3
S'bbbb::12:4b00:60d:8031'
p126
sg5
F1441373002.458652
sg6
(dp127
I0
(I98
I97
I-34
I242
tp128
sI1
(I97
I97
I-34
I241
tp129
sI2
(I98
I95
I-35
I238
tp130
sI3
(I94
I94
I-35
I242
tp131
sI4
(I96
I96
I-34
I242
tp132
sI5
(I97
I96
I-34
I242
tp133
sI6
(I95
I95
I-35
I240
tp134
sI7
(I96
I95
I-35
I241
tp135
ssba(iSample
Sample
p136
(dp137
g3
S'bbbb::12:4b00:60d:8031'
p138
sg5
F1441373006.509956
sg6
(dp139
I0
(I109
I108
I-34
I242
tp140
sI1
(I107
I107
I-34
I241
tp141
sI2
(I109
I106
I-35
I242
tp142
sI3
(I106
I106
I-35
I241
tp143
sI4
(I107
I107
I-35
I241
tp144
sI5
(I109
I108
I-34
I242
tp145
sI6
(I106
I106
I-35
I242
tp146
sI7
(I107
I106
I-35
I241
tp147
ssba(iSample
Sample
p148
(dp149
g3
S'bbbb::12:4b00:60d:8031'
p150
sg5
F1441373008.534811
sg6
(dp151
I8
(I112
I112
I-34
I242
tp152
sI9
(I113
I112
I-34
I242
tp153
sI10
(I113
I113
I-34
I242
tp154
sI11
(I114
I113
I-35
I242
tp155
sI12
(I113
I113
I-35
I242
tp156
sI13
(I113
I113
I-35
I242
tp157
sI14
(I113
I113
I-35
I242
tp158
sI15
(I112
I112
I-35
I242
tp159
ssba(iSample
Sample
p160
(dp161
g3
S'bbbb::12:4b00:60d:8031'
p162
sg5
F1441373010.561541
sg6
(dp163
I0
(I120
I119
I-34
I241
tp164
sI1
(I118
I118
I-34
I242
tp165
sI2
(I121
I118
I-35
I239
tp166
sI3
(I118
I118
I-35
I242
tp167
sI4
(I118
I118
I-35
I242
tp168
sI5
(I120
I119
I-35
I241
tp169
sI6
(I117
I117
I-35
I242
tp170
sI7
(I118
I117
I-35
I242
tp171
ssba(iSample
Sample
p172
(dp173
g3
S'bbbb::12:4b00:60d:8031'
p174
sg5
F1441373012.587329
sg6
(dp175
I8
(I123
I123
I-34
I242
tp176
sI9
(I124
I123
I-34
I242
tp177
sI10
(I124
I124
I-34
I242
tp178
sI11
(I125
I124
I-35
I242
tp179
sI12
(I125
I125
I-35
I242
tp180
sI13
(I124
I124
I-35
I242
tp181
sI14
(I124
I124
I-35
I242
tp182
sI15
(I124
I124
I-35
I242
tp183
ssba(iSample
Sample
p184
(dp185
g3
S'bbbb::12:4b00:60d:8031'
p186
sg5
F1441373014.612891
sg6
(dp187
I0
(I132
I131
I-34
I241
tp188
sI1
(I129
I129
I-34
I240
tp189
sI2
(I134
I131
I-35
I242
tp190
sI3
(I129
I129
I-35
I242
tp191
sI4
(I129
I129
I-35
I242
tp192
sI5
(I131
I130
I-34
I242
tp193
sI6
(I127
I127
I-35
I241
tp194
sI7
(I129
I128
I-35
I241
tp195
ssba(iSample
Sample
p196
(dp197
g3
S'bbbb::12:4b00:60d:8031'
p198
sg5
F1441373016.639086
sg6
(dp199
I8
(I133
I133
I-34
I242
tp200
sI9
(I135
I134
I-34
I241
tp201
sI10
(I135
I135
I-34
I242
tp202
sI11
(I136
I135
I-35
I242
tp203
sI12
(I137
I137
I-35
I241
tp204
sI13
(I135
I135
I-35
I242
tp205
sI14
(I134
I134
I-35
I242
tp206
sI15
(I135
I135
I-35
I241
tp207
ssba(iSample
Sample
p208
(dp209
g3
S'bbbb::12:4b00:60d:8031'
p210
sg5
F1441373018.52889
sg6
(dp211
I0
(I144
I143
I-35
I240
tp212
sI1
(I141
I141
I-35
I242
tp213
sI2
(I145
I142
I-36
I242
tp214
sI3
(I139
I139
I-36
I242
tp215
sI4
(I140
I140
I-36
I241
tp216
sI5
(I143
I142
I-35
I240
tp217
sI6
(I139
I139
I-36
I240
tp218
sI7
(I140
I139
I-36
I241
tp219
ssba(iSample
Sample
p220
(dp221
g3
S'bbbb::12:4b00:60d:8031'
p222
sg5
F1441373020.555826
sg6
(dp223
I8
(I145
I145
I-34
I240
tp224
sI9
(I147
I146
I-34
I241
tp225
sI10
(I146
I146
I-34
I241
tp226
sI11
(I148
I147
I-34
I240
tp227
sI12
(I148
I148
I-34
I241
tp228
sI13
(I146
I146
I-34
I239
tp229
sI14
(I145
I145
I-34
I241
tp230
sI15
(I145
I145
I-34
I238
tp231
ssba(iSample
Sample
p232
(dp233
g3
S'bbbb::12:4b00:60d:8031'
p234
sg5
F1441373022.581189
sg6
(dp235
I0
(I154
I153
I-33
I242
tp236
sI1
(I151
I151
I-33
I239
tp237
sI2
(I155
I152
I-34
I242
tp238
sI3
(I150
I150
I-33
I242
tp239
sI4
(I152
I152
I-33
I242
tp240
sI5
(I154
I153
I-33
I241
tp241
sI6
(I150
I150
I-34
I241
tp242
sI7
(I151
I150
I-34
I242
tp243
ssba(iSample
Sample
p244
(dp245
g3
S'bbbb::12:4b00:60d:8031'
p246
sg5
F1441373024.607249
sg6
(dp247
I8
(I156
I156
I-33
I241
tp248
sI9
(I159
I158
I-33
I242
tp249
sI10
(I157
I157
I-33
I241
tp250
sI11
(I159
I158
I-34
I242
tp251
sI12
(I158
I158
I-34
I242
tp252
sI13
(I158
I158
I-34
I241
tp253
sI14
(I157
I157
I-34
I242
tp254
sI15
(I156
I156
I-34
I242
tp255
ssba(iSample
Sample
p256
(dp257
g3
S'bbbb::12:4b00:60d:8031'
p258
sg5
F1441373026.632675
sg6
(dp259
I0
(I165
I164
I-33
I242
tp260
sI1
(I163
I163
I-33
I241
tp261
sI2
(I166
I163
I-34
I242
tp262
sI3
(I162
I162
I-34
I242
tp263
sI4
(I164
I164
I-33
I241
tp264
sI5
(I165
I164
I-33
I241
tp265
sI6
(I161
I161
I-34
I242
tp266
sI7
(I163
I162
I-34
I241
tp267
ssba(iSample
Sample
p268
(dp269
g3
S'bbbb::12:4b00:60d:8031'
p270
sg5
F1441373028.658636
sg6
(dp271
I8
(I167
I167
I-33
I241
tp272
sI9
(I169
I168
I-33
I242
tp273
sI10
(I168
I168
I-33
I241
tp274
sI11
(I170
I169
I-34
I241
tp275
sI12
(I169
I169
I-34
I242
tp276
sI13
(I169
I169
I-34
I242
tp277
sI14
(I168
I168
I-34
I242
tp278
sI15
(I168
I168
I-34
I241
tp279
ssba(iSample
Sample
p280
(dp281
g3
S'bbbb::12:4b00:60d:8031'
p282
sg5
F1441373030.684352
sg6
(dp283
I0
(I176
I175
I-33
I242
tp284
sI1
(I175
I175
I-33
I241
tp285
sI2
(I178
I175
I-34
I241
tp286
sI3
(I173
I173
I-34
I241
tp287
sI4
(I174
I174
I-34
I241
tp288
sI5
(I176
I175
I-33
I241
tp289
sI6
(I173
I173
I-34
I242
tp290
sI7
(I174
I173
I-34
I241
tp291
ssba(iSample
Sample
p292
(dp293
g3
S'bbbb::12:4b00:60d:8031'
p294
sg5
F1441373032.709849
sg6
(dp295
I8
(I179
I179
I-33
I241
tp296
sI9
(I180
I179
I-33
I240
tp297
sI10
(I180
I180
I-33
I242
tp298
sI11
(I181
I180
I-33
I242
tp299
sI12
(I181
I181
I-34
I241
tp300
sI13
(I180
I180
I-34
I242
tp301
sI14
(I179
I179
I-34
I242
tp302
sI15
(I179
I179
I-34
I241
tp303
ssba(iSample
Sample
p304
(dp305
g3
S'bbbb::12:4b00:60d:8031'
p306
sg5
F1441373034.735402
sg6
(dp307
I0
(I188
I187
I-33
I241
tp308
sI1
(I186
I186
I-33
I240
tp309
sI2
(I189
I186
I-34
I242
tp310
sI3
(I184
I184
I-33
I242
tp311
sI4
(I185
I185
I-33
I241
tp312
sI5
(I187
I186
I-33
I242
tp313
sI6
(I184
I184
I-34
I242
tp314
sI7
(I185
I184
I-34
I242
tp315
ssba(iSample
Sample
p316
(dp317
g3
S'bbbb::12:4b00:60d:8031'
p318
sg5
F1441373036.762373
sg6
(dp319
I8
(I190
I190
I-33
I242
tp320
sI9
(I191
I190
I-33
I242
tp321
sI10
(I193
I192
I-33
I241
tp322
sI11
(I192
I191
I-33
I241
tp323
sI12
(I192
I192
I-34
I242
tp324
sI13
(I191
I191
I-34
I242
tp325
sI14
(I191
I191
I-34
I242
tp326
sI15
(I190
I190
I-34
I242
tp327
ssba(iSample
Sample
p328
(dp329
g3
S'bbbb::12:4b00:60d:8031'
p330
sg5
F1441373038.787627
sg6
(dp331
I0
(I199
I198
I-33
I241
tp332
sI1
(I197
I197
I-33
I242
tp333
sI2
(I200
I197
I-34
I242
tp334
sI3
(I196
I196
I-33
I242
tp335
sI4
(I196
I196
I-33
I242
tp336
sI5
(I198
I197
I-33
I242
tp337
sI6
(I195
I195
I-34
I241
tp338
sI7
(I196
I195
I-34
I240
tp339
ssba(iSample
Sample
p340
(dp341
g3
S'bbbb::12:4b00:60d:8031'
p342
sg5
F1441373040.813701
sg6
(dp343
I8
(I201
I201
I-33
I242
tp344
sI9
(I203
I202
I-33
I242
tp345
sI10
(I204
I203
I-33
I242
tp346
sI11
(I203
I202
I-34
I240
tp347
sI12
(I203
I203
I-34
I242
tp348
sI13
(I202
I202
I-34
I242
tp349
sI14
(I203
I203
I-34
I242
tp350
sI15
(I202
I202
I-34
I241
tp351
ssba(iSample
Sample
p352
(dp353
g3
S'bbbb::12:4b00:60d:8031'
p354
sg5
F1441373042.703739
sg6
(dp355
I0
(I210
I209
I-33
I241
tp356
sI1
(I207
I207
I-33
I242
tp357
sI2
(I212
I209
I-34
I242
tp358
sI3
(I207
I207
I-34
I242
tp359
sI4
(I208
I208
I-34
I242
tp360
sI5
(I209
I208
I-33
I242
tp361
sI6
(I206
I206
I-34
I242
tp362
sI7
(I207
I206
I-34
I242
tp363
ssba(iSample
Sample
p364
(dp365
g3
S'bbbb::12:4b00:60d:8031'
p366
sg5
F1441373044.729533
sg6
(dp367
I8
(I212
I212
I-33
I242
tp368
sI9
(I213
I212
I-33
I242
tp369
sI10
(I214
I213
I-33
I242
tp370
sI11
(I214
I213
I-34
I242
tp371
sI12
(I215
I215
I-34
I242
tp372
sI13
(I214
I214
I-34
I241
tp373
sI14
(I214
I214
I-34
I242
tp374
sI15
(I213
I213
I-34
I242
tp375
ssba(iSample
Sample
p376
(dp377
g3
S'bbbb::12:4b00:60d:8031'
p378
sg5
F1441373046.755664
sg6
(dp379
I0
(I222
I221
I-33
I242
tp380
sI1
(I219
I219
I-33
I242
tp381
sI2
(I223
I220
I-34
I242
tp382
sI3
(I218
I218
I-34
I242
tp383
sI4
(I218
I218
I-34
I239
tp384
sI5
(I221
I220
I-34
I242
tp385
sI6
(I217
I217
I-34
I242
tp386
sI7
(I219
I218
I-34
I241
tp387
ssba(iSample
Sample
p388
(dp389
g3
S'bbbb::12:4b00:60d:8031'
p390
sg5
F1441373048.782017
sg6
(dp391
I8
(I223
I223
I-33
I242
tp392
sI9
(I225
I224
I-33
I242
tp393
sI10
(I225
I224
I-33
I242
tp394
sI11
(I226
I225
I-34
I242
tp395
sI12
(I226
I226
I-34
I242
tp396
sI13
(I224
I224
I-34
I242
tp397
sI14
(I225
I225
I-34
I242
tp398
sI15
(I224
I224
I-34
I241
tp399
ssba(iSample
Sample
p400
(dp401
g3
S'bbbb::12:4b00:60d:8031'
p402
sg5
F1441373050.807421
sg6
(dp403
I0
(I233
I232
I-33
I242
tp404
sI1
(I230
I230
I-33
I242
tp405
sI2
(I234
I231
I-34
I242
tp406
sI3
(I229
I229
I-34
I241
tp407
sI4
(I230
I230
I-34
I242
tp408
sI5
(I232
I231
I-33
I242
tp409
sI6
(I228
I228
I-34
I242
tp410
sI7
(I229
I228
I-34
I239
tp411
ssba(iSample
Sample
p412
(dp413
g3
S'bbbb::12:4b00:60d:8031'
p414
sg5
F1441373052.832112
sg6
(dp415
I8
(I234
I234
I-33
I240
tp416
sI9
(I237
I236
I-33
I241
tp417
sI10
(I237
I236
I-33
I240
tp418
sI11
(I237
I236
I-34
I240
tp419
sI12
(I237
I237
I-34
I240
tp420
sI13
(I236
I236
I-34
I241
tp421
sI14
(I236
I236
I-34
I241
tp422
sI15
(I235
I235
I-34
I239
tp423
ssba(iSample
Sample
p424
(dp425
g3
S'bbbb::12:4b00:60d:8031'
p426
sg5
F1441373054.859351
sg6
(dp427
I0
(I244
I243
I-33
I240
tp428
sI1
(I241
I241
I-33
I240
tp429
sI2
(I245
I242
I-34
I241
tp430
sI3
(I240
I240
I-34
I242
tp431
sI4
(I242
I242
I-34
I242
tp432
sI5
(I243
I242
I-34
I242
tp433
sI6
(I239
I239
I-34
I242
tp434
sI7
(I241
I240
I-34
I241
tp435
ssba(iSample
Sample
p436
(dp437
g3
S'bbbb::12:4b00:60d:8031'
p438
sg5
F1441373056.88536
sg6
(dp439
I8
(I245
I245
I-33
I241
tp440
sI9
(I248
I247
I-33
I241
tp441
sI10
(I248
I247
I-33
I242
tp442
sI11
(I248
I247
I-34
I241
tp443
sI12
(I248
I248
I-34
I240
tp444
sI13
(I248
I248
I-34
I241
tp445
sI14
(I247
I247
I-34
I242
tp446
sI15
(I246
I246
I-34
I238
tp447
ssba(iSample
Sample
p448
(dp449
g3
S'bbbb::12:4b00:60d:8031'
p450
sg5
F1441373058.911498
sg6
(dp451
I0
(I254
I253
I-33
I242
tp452
sI1
(I253
I253
I-33
I241
tp453
sI2
(I256
I253
I-34
I242
tp454
sI3
(I251
I251
I-33
I240
tp455
sI4
(I253
I253
I-34
I241
tp456
sI5
(I254
I253
I-34
I242
tp457
sI6
(I251
I251
I-34
I241
tp458
sI7
(I253
I252
I-34
I242
tp459
ssba(iSample
Sample
p460
(dp461
g3
S'bbbb::12:4b00:60d:8031'
p462
sg5
F1441373060.937817
sg6
(dp463
I8
(I257
I257
I-33
I240
tp464
sI9
(I259
I258
I-33
I242
tp465
sI10
(I259
I258
I-33
I241
tp466
sI11
(I259
I258
I-33
I242
tp467
sI12
(I259
I259
I-34
I241
tp468
sI13
(I259
I259
I-34
I242
tp469
sI14
(I258
I258
I-34
I242
tp470
sI15
(I257
I257
I-34
I241
tp471
ssba(iSample
Sample
p472
(dp473
g3
S'bbbb::12:4b00:60d:8031'
p474
sg5
F1441373062.96244
sg6
(dp475
I0
(I266
I265
I-33
I241
tp476
sI1
(I265
I265
I-33
I241
tp477
sI2
(I267
I264
I-34
I241
tp478
sI3
(I262
I262
I-34
I241
tp479
sI4
(I264
I264
I-34
I240
tp480
sI5
(I265
I264
I-34
I241
tp481
sI6
(I264
I264
I-34
I242
tp482
sI7
(I264
I263
I-34
I242
tp483
ssba(iSample
Sample
p484
(dp485
g3
S'bbbb::12:4b00:60d:8031'
p486
sg5
F1441373064.988488
sg6
(dp487
I8
(I269
I269
I-33
I241
tp488
sI9
(I269
I268
I-33
I238
tp489
sI10
(I271
I270
I-33
I239
tp490
sI11
(I270
I269
I-34
I241
tp491
sI12
(I270
I270
I-34
I241
tp492
sI13
(I269
I269
I-34
I242
tp493
sI14
(I270
I270
I-34
I241
tp494
sI15
(I268
I268
I-34
I240
tp495
ssba(iSample
Sample
p496
(dp497
g3
S'bbbb::12:4b00:60d:8031'
p498
sg5
F1441373066.878888
sg6
(dp499
I0
(I277
I276
I-34
I241
tp500
sI1
(I276
I276
I-34
I242
tp501
sI2
(I278
I275
I-35
I241
tp502
sI3
(I274
I274
I-35
I242
tp503
sI4
(I274
I274
I-34
I242
tp504
sI5
(I277
I276
I-34
I241
tp505
sI6
(I275
I275
I-34
I240
tp506
sI7
(I274
I273
I-34
I242
tp507
ssba(iSample
Sample
p508
(dp509
g3
S'bbbb::12:4b00:60d:8031'
p510
sg5
F1441373068.904834
sg6
(dp511
I8
(I280
I280
I-34
I242
tp512
sI9
(I281
I280
I-34
I242
tp513
sI10
(I282
I281
I-34
I240
tp514
sI11
(I282
I281
I-34
I241
tp515
sI12
(I281
I281
I-34
I241
tp516
sI13
(I280
I280
I-35
I241
tp517
sI14
(I282
I282
I-35
I242
tp518
sI15
(I280
I280
I-35
I242
tp519
ssba(iSample
Sample
p520
(dp521
g3
S'bbbb::12:4b00:60d:8031'
p522
sg5
F1441373070.930981
sg6
(dp523
I0
(I288
I287
I-36
I241
tp524
sI1
(I287
I287
I-37
I241
tp525
sI2
(I290
I287
I-37
I242
tp526
sI3
(I286
I286
I-37
I242
tp527
sI4
(I286
I286
I-36
I242
tp528
sI5
(I287
I286
I-35
I242
tp529
sI6
(I285
I285
I-35
I241
tp530
sI7
(I285
I284
I-35
I242
tp531
ssba(iSample
Sample
p532
(dp533
g3
S'bbbb::12:4b00:60d:8031'
p534
sg5
F1441373072.95701
sg6
(dp535
I8
(I290
I290
I-34
I242
tp536
sI9
(I292
I291
I-34
I242
tp537
sI10
(I293
I292
I-34
I242
tp538
sI11
(I292
I291
I-34
I242
tp539
sI12
(I293
I293
I-34
I239
tp540
sI13
(I292
I292
I-35
I241
tp541
sI14
(I292
I292
I-35
I242
tp542
sI15
(I292
I292
I-35
I241
tp543
ssba(iSample
Sample
p544
(dp545
g3
S'bbbb::12:4b00:60d:8031'
p546
sg5
F1441373074.981596
sg6
(dp547
I0
(I300
I299
I-36
I240
tp548
sI1
(I298
I298
I-37
I242
tp549
sI2
(I301
I298
I-37
I242
tp550
sI3
(I296
I296
I-37
I242
tp551
sI4
(I297
I297
I-37
I242
tp552
sI5
(I299
I298
I-36
I242
tp553
sI6
(I296
I296
I-36
I242
tp554
sI7
(I297
I296
I-35
I241
tp555
ssba(iSample
Sample
p556
(dp557
g3
S'bbbb::12:4b00:60d:8031'
p558
sg5
F1441373077.006988
sg6
(dp559
I8
(I301
I301
I-34
I242
tp560
sI9
(I303
I302
I-34
I242
tp561
sI10
(I304
I303
I-35
I242
tp562
sI11
(I304
I303
I-35
I241
tp563
sI12
(I304
I304
I-35
I242
tp564
sI13
(I303
I303
I-35
I242
tp565
sI14
(I303
I303
I-35
I241
tp566
sI15
(I302
I302
I-35
I242
tp567
ssba(iSample
Sample
p568
(dp569
g3
S'bbbb::12:4b00:60d:8031'
p570
sg5
F1441373079.033109
sg6
(dp571
I0
(I311
I310
I-37
I242
tp572
sI1
(I309
I309
I-37
I242
tp573
sI2
(I312
I309
I-37
I241
tp574
sI3
(I307
I307
I-37
I242
tp575
sI4
(I308
I308
I-36
I242
tp576
sI5
(I311
I310
I-35
I241
tp577
sI6
(I308
I308
I-35
I242
tp578
sI7
(I308
I307
I-34
I242
tp579
ssba(iSample
Sample
p580
(dp581
g3
S'bbbb::12:4b00:60d:8031'
p582
sg5
F1441373081.058851
sg6
(dp583
I8
(I313
I313
I-33
I242
tp584
sI9
(I315
I314
I-34
I242
tp585
sI10
(I315
I314
I-34
I242
tp586
sI11
(I316
I315
I-35
I242
tp587
sI12
(I315
I315
I-35
I241
tp588
sI13
(I314
I314
I-35
I242
tp589
sI14
(I314
I314
I-34
I240
tp590
sI15
(I313
I313
I-34
I240
tp591
ssba(iSample
Sample
p592
(dp593
g3
S'bbbb::12:4b00:60d:8031'
p594
sg5
F1441373083.085075
sg6
(dp595
I0
(I322
I321
I-36
I241
tp596
sI1
(I320
I320
I-36
I242
tp597
sI2
(I323
I320
I-37
I241
tp598
sI3
(I318
I318
I-37
I241
tp599
sI4
(I320
I320
I-36
I242
tp600
sI5
(I322
I321
I-35
I242
tp601
sI6
(I319
I319
I-34
I242
tp602
sI7
(I319
I318
I-34
I242
tp603
ssba.