(lp0
(iSample
Sample
p1
(dp2
S'moteIp'
p3
S'bbbb::12:4b00:60d:8031'
p4
sS'timeStamp'
p5
F1441373792.535834
sS'moteData'
p6
(dp7
I0
(I15
I5
I-67
I234
tp8
sI1
(I16
I13
I-65
I221
tp9
sI2
(I14
I9
I-65
I232
tp10
sI3
(I14
I12
I-62
I227
tp11
sI4
(I17
I16
I-63
I238
tp12
sI5
(I15
I15
I-69
I238
tp13
sI6
(I16
I16
I-76
I241
tp14
sI7
(I20
I19
I-69
I236
tp15
ssba(iSample
Sample
p16
(dp17
g3
S'bbbb::12:4b00:60d:8031'
p18
sg5
F1441373794.561064
sg6
(dp19
I8
(I17
I16
I-67
I240
tp20
sI9
(I19
I17
I-64
I235
tp21
sI10
(I17
I17
I-62
I229
tp22
sI11
(I19
I17
I-61
I234
tp23
sI12
(I20
I18
I-60
I236
tp24
sI13
(I23
I22
I-61
I238
tp25
sI14
(I17
I17
I-59
I235
tp26
sI15
(I16
I16
I-60
I237
tp27
ssba(iSample
Sample
p28
(dp29
g3
S'bbbb::12:4b00:60d:8031'
p30
sg5
F1441373796.58721
sg6
(dp31
I0
(I21
I11
I-64
I236
tp32
sI1
(I22
I19
I-63
I216
tp33
sI2
(I19
I13
I-62
I236
tp34
sI3
(I20
I18
I-59
I236
tp35
sI4
(I22
I21
I-61
I237
tp36
sI5
(I22
I22
I-64
I238
tp37
sI6
(I22
I21
I-68
I237
tp38
sI7
(I26
I24
I-65
I239
tp39
ssba(iSample
Sample
p40
(dp41
g3
S'bbbb::12:4b00:60d:8031'
p42
sg5
F1441373798.53756
sg6
(dp43
I8
(I23
I22
I-63
I240
tp44
sI9
(I24
I22
I-63
I237
tp45
sI10
(I23
I23
I-61
I242
tp46
sI11
(I25
I23
I-60
I238
tp47
sI12
(I25
I23
I-58
I234
tp48
sI13
(I27
I26
I-57
I239
tp49
sI14
(I23
I23
I-58
I240
tp50
sI15
(I22
I22
I-59
I240
tp51
ssba(iSample
Sample
p52
(dp53
g3
S'bbbb::12:4b00:60d:8031'
p54
sg5
F1441373800.564265
sg6
(dp55
I0
(I26
I15
I-56
I236
tp56
sI1
(I27
I24
I-56
I242
tp57
sI2
(I25
I18
I-58
I239
tp58
sI3
(I27
I25
I-57
I236
tp59
sI4
(I27
I26
I-56
I237
tp60
sI5
(I28
I28
I-57
I238
tp61
sI6
(I28
I27
I-59
I236
tp62
sI7
(I30
I28
I-65
I239
tp63
ssba(iSample
Sample
p64
(dp65
g3
S'bbbb::12:4b00:60d:8031'
p66
sg5
F1441373802.589675
sg6
(dp67
I8
(I29
I28
I-63
I238
tp68
sI9
(I30
I28
I-61
I238
tp69
sI10
(I29
I29
I-61
I236
tp70
sI11
(I31
I29
I-58
I236
tp71
sI12
(I31
I29
I-58
I240
tp72
sI13
(I33
I32
I-57
I236
tp73
sI14
(I29
I29
I-58
I236
tp74
sI15
(I28
I28
I-59
I231
tp75
ssba(iSample
Sample
p76
(dp77
g3
S'bbbb::12:4b00:60d:8031'
p78
sg5
F1441373804.614844
sg6
(dp79
I0
(I32
I21
I-62
I215
tp80
sI1
(I32
I29
I-61
I242
tp81
sI2
(I31
I24
I-59
I219
tp82
sI3
(I33
I31
I-58
I227
tp83
sI4
(I33
I32
I-57
I238
tp84
sI5
(I33
I33
I-60
I242
tp85
sI6
(I32
I31
I-68
I239
tp86
sI7
(I36
I34
I-64
I236
tp87
ssba(iSample
Sample
p88
(dp89
g3
S'bbbb::12:4b00:60d:8031'
p90
sg5
F1441373806.58167
sg6
(dp91
I8
(I33
I32
I-60
I236
tp92
sI9
(I35
I33
I-61
I237
tp93
sI10
(I34
I34
I-60
I237
tp94
sI11
(I36
I34
I-59
I234
tp95
sI12
(I37
I35
I-59
I238
tp96
sI13
(I39
I38
I-60
I238
tp97
sI14
(I34
I34
I-59
I239
tp98
sI15
(I34
I34
I-59
I238
tp99
ssba(iSample
Sample
p100
(dp101
g3
S'bbbb::12:4b00:60d:8031'
p102
sg5
F1441373808.606634
sg6
(dp103
I0
(I38
I25
I-70
I220
tp104
sI1
(I38
I33
I-64
I233
tp105
sI2
(I37
I30
I-61
I210
tp106
sI3
(I38
I35
I-61
I191
tp107
sI4
(I38
I37
I-61
I239
tp108
sI5
(I39
I39
I-65
I240
tp109
sI6
(I38
I36
I-68
I242
tp110
sI7
(I42
I39
I-65
I237
tp111
ssba(iSample
Sample
p112
(dp113
g3
S'bbbb::12:4b00:60d:8031'
p114
sg5
F1441373810.631668
sg6
(dp115
I8
(I39
I38
I-70
I238
tp116
sI9
(I41
I39
I-71
I240
tp117
sI10
(I39
I39
I-68
I237
tp118
sI11
(I42
I40
I-63
I240
tp119
sI12
(I43
I41
I-62
I236
tp120
sI13
(I44
I43
I-60
I237
tp121
sI14
(I39
I39
I-59
I239
tp122
sI15
(I39
I39
I-58
I237
tp123
ssba(iSample
Sample
p124
(dp125
g3
S'bbbb::12:4b00:60d:8031'
p126
sg5
F1441373814.684595
sg6
(dp127
I8
(I45
I44
I-69
I238
tp128
sI9
(I47
I45
I-70
I240
tp129
sI10
(I45
I45
I-69
I240
tp130
sI11
(I48
I46
I-64
I236
tp131
sI12
(I48
I46
I-62
I239
tp132
sI13
(I50
I49
I-61
I238
tp133
sI14
(I45
I45
I-59
I236
tp134
sI15
(I44
I44
I-58
I234
tp135
ssba(iSample
Sample
p136
(dp137
g3
S'bbbb::12:4b00:60d:8031'
p138
sg5
F1441373816.709767
sg6
(dp139
I0
(I49
I33
I-72
I242
tp140
sI1
(I49
I43
I-65
I239
tp141
sI2
(I47
I38
I-63
I242
tp142
sI3
(I49
I46
I-61
I233
tp143
sI4
(I50
I49
I-61
I238
tp144
sI5
(I51
I51
I-67
I240
tp145
sI6
(I49
I47
I-78
I239
tp146
sI7
(I53
I50
I-70
I234
tp147
ssba(iSample
Sample
p148
(dp149
g3
S'bbbb::12:4b00:60d:8031'
p150
sg5
F1441373818.735144
sg6
(dp151
I8
(I50
I49
I-71
I237
tp152
sI9
(I53
I50
I-71
I242
tp153
sI10
(I50
I50
I-68
I237
tp154
sI11
(I54
I52
I-64
I236
tp155
sI12
(I53
I51
I-61
I242
tp156
sI13
(I56
I55
I-61
I233
tp157
sI14
(I51
I51
I-59
I242
tp158
sI15
(I50
I50
I-58
I236
tp159
ssba(iSample
Sample
p160
(dp161
g3
S'bbbb::12:4b00:60d:8031'
p162
sg5
F1441373820.762197
sg6
(dp163
I0
(I54
I33
I0
I0
tp164
sI1
(I55
I48
I-64
I191
tp165
sI2
(I53
I41
I-62
I191
tp166
sI3
(I55
I52
I-60
I231
tp167
sI4
(I56
I55
I-61
I219
tp168
sI5
(I56
I56
I-67
I242
tp169
sI6
(I55
I51
I-82
I242
tp170
sI7
(I59
I56
I-69
I236
tp171
ssba(iSample
Sample
p172
(dp173
g3
S'bbbb::12:4b00:60d:8031'
p174
sg5
F1441373822.712025
sg6
(dp175
I8
(I56
I55
I-71
I242
tp176
sI9
(I58
I55
I-71
I242
tp177
sI10
(I56
I56
I-69
I242
tp178
sI11
(I58
I56
I-64
I242
tp179
sI12
(I59
I57
I-63
I242
tp180
sI13
(I62
I61
I-61
I240
tp181
sI14
(I56
I56
I-60
I239
tp182
sI15
(I56
I56
I-58
I238
tp183
ssba(iSample
Sample
p184
(dp185
g3
S'bbbb::12:4b00:60d:8031'
p186
sg5
F1441373824.737141
sg6
(dp187
I0
(I60
I36
I-73
I238
tp188
sI1
(I61
I54
I-65
I238
tp189
sI2
(I59
I46
I-64
I229
tp190
sI3
(I60
I57
I-61
I237
tp191
sI4
(I61
I59
I-61
I236
tp192
sI5
(I61
I61
I-67
I237
tp193
sI6
(I61
I55
I-83
I220
tp194
sI7
(I65
I62
I-69
I238
tp195
ssba(iSample
Sample
p196
(dp197
g3
S'bbbb::12:4b00:60d:8031'
p198
sg5
F1441373826.763105
sg6
(dp199
I8
(I63
I62
I-69
I238
tp200
sI9
(I63
I60
I-70
I234
tp201
sI10
(I62
I62
I-67
I242
tp202
sI11
(I64
I62
I-63
I236
tp203
sI12
(I65
I63
I-61
I238
tp204
sI13
(I67
I66
I-60
I239
tp205
sI14
(I62
I62
I-58
I236
tp206
sI15
(I61
I61
I-57
I237
tp207
ssba(iSample
Sample
p208
(dp209
g3
S'bbbb::12:4b00:60d:8031'
p210
sg5
F1441373828.789223
sg6
(dp211
I0
(I66
I37
I-81
I204
tp212
sI1
(I66
I58
I-66
I236
tp213
sI2
(I64
I51
I-63
I239
tp214
sI3
(I66
I63
I-60
I231
tp215
sI4
(I66
I64
I-61
I229
tp216
sI5
(I67
I67
I-66
I242
tp217
sI6
(I67
I58
I-89
I179
tp218
sI7
(I70
I67
I-69
I237
tp219
ssba(iSample
Sample
p220
(dp221
g3
S'bbbb::12:4b00:60d:8031'
p222
sg5
F1441373830.754315
sg6
(dp223
I8
(I69
I68
I-70
I240
tp224
sI9
(I69
I66
I-70
I240
tp225
sI10
(I68
I68
I-67
I238
tp226
sI11
(I70
I68
I-63
I231
tp227
sI12
(I70
I68
I-61
I232
tp228
sI13
(I72
I71
I-59
I237
tp229
sI14
(I68
I68
I-58
I236
tp230
sI15
(I67
I67
I-58
I236
tp231
ssba(iSample
Sample
p232
(dp233
g3
S'bbbb::12:4b00:60d:8031'
p234
sg5
F1441373832.781353
sg6
(dp235
I0
(I71
I42
I-74
I229
tp236
sI1
(I71
I62
I-64
I204
tp237
sI2
(I70
I55
I-63
I242
tp238
sI3
(I72
I69
I-60
I229
tp239
sI4
(I72
I70
I-61
I236
tp240
sI5
(I72
I72
I-67
I237
tp241
sI6
(I72
I62
I-86
I140
tp242
sI7
(I75
I72
I-70
I234
tp243
ssba(iSample
Sample
p244
(dp245
g3
S'bbbb::12:4b00:60d:8031'
p246
sg5
F1441373834.806355
sg6
(dp247
I8
(I74
I73
I-72
I232
tp248
sI9
(I74
I71
I-71
I237
tp249
sI10
(I73
I73
I-67
I242
tp250
sI11
(I75
I73
I-63
I234
tp251
sI12
(I76
I74
I-61
I240
tp252
sI13
(I78
I77
I-59
I238
tp253
sI14
(I74
I74
I-59
I236
tp254
sI15
(I73
I73
I-58
I231
tp255
ssba(iSample
Sample
p256
(dp257
g3
S'bbbb::12:4b00:60d:8031'
p258
sg5
F1441373836.832349
sg6
(dp259
I0
(I77
I46
I-69
I239
tp260
sI1
(I77
I66
I-64
I239
tp261
sI2
(I76
I58
I-65
I242
tp262
sI3
(I78
I74
I-62
I234
tp263
sI4
(I77
I75
I-62
I237
tp264
sI5
(I78
I78
I-68
I231
tp265
sI6
(I77
I66
I-78
I242
tp266
sI7
(I81
I78
I-72
I236
tp267
ssba(iSample
Sample
p268
(dp269
g3
S'bbbb::12:4b00:60d:8031'
p270
sg5
F1441373838.85807
sg6
(dp271
I8
(I79
I78
I-67
I237
tp272
sI9
(I80
I77
I-71
I238
tp273
sI10
(I78
I78
I-68
I237
tp274
sI11
(I81
I79
I-63
I236
tp275
sI12
(I82
I80
I-61
I242
tp276
sI13
(I83
I82
I-59
I239
tp277
sI14
(I79
I79
I-59
I227
tp278
sI15
(I79
I79
I-58
I238
tp279
ssba(iSample
Sample
p280
(dp281
g3
S'bbbb::12:4b00:60d:8031'
p282
sg5
F1441373840.884523
sg6
(dp283
I0
(I83
I51
I-65
I239
tp284
sI1
(I83
I71
I-66
I239
tp285
sI2
(I82
I62
I-68
I201
tp286
sI3
(I83
I77
I-68
I229
tp287
sI4
(I83
I81
I-64
I238
tp288
sI5
(I84
I84
I-67
I242
tp289
sI6
(I83
I72
I-73
I234
tp290
sI7
(I86
I83
I-72
I237
tp291
ssba(iSample
Sample
p292
(dp293
g3
S'bbbb::12:4b00:60d:8031'
p294
sg5
F1441373842.90968
sg6
(dp295
I8
(I85
I84
I-68
I240
tp296
sI9
(I86
I83
I-65
I238
tp297
sI10
(I84
I84
I-63
I242
tp298
sI11
(I87
I85
I-59
I238
tp299
sI12
(I88
I86
I-59
I238
tp300
sI13
(I89
I88
I-58
I234
tp301
sI14
(I84
I84
I-57
I237
tp302
sI15
(I84
I84
I-57
I239
tp303
ssba(iSample
Sample
p304
(dp305
g3
S'bbbb::12:4b00:60d:8031'
p306
sg5
F1441373844.93674
sg6
(dp307
I0
(I89
I57
I-65
I236
tp308
sI1
(I88
I76
I-63
I206
tp309
sI2
(I87
I64
I-68
I242
tp310
sI3
(I88
I81
I-62
I213
tp311
sI4
(I89
I87
I-62
I238
tp312
sI5
(I90
I90
I-62
I233
tp313
sI6
(I88
I77
I-66
I239
tp314
sI7
(I92
I89
I-69
I242
tp315
ssba(iSample
Sample
p316
(dp317
g3
S'bbbb::12:4b00:60d:8031'
p318
sg5
F1441373846.886627
sg6
(dp319
I8
(I90
I89
I-66
I237
tp320
sI9
(I92
I89
I-62
I238
tp321
sI10
(I90
I90
I-60
I233
tp322
sI11
(I93
I91
I-58
I236
tp323
sI12
(I92
I90
I-56
I239
tp324
sI13
(I95
I94
I-55
I234
tp325
sI14
(I90
I90
I-55
I240
tp326
sI15
(I89
I89
I-56
I239
tp327
ssba(iSample
Sample
p328
(dp329
g3
S'bbbb::12:4b00:60d:8031'
p330
sg5
F1441373848.911854
sg6
(dp331
I0
(I93
I61
I-61
I239
tp332
sI1
(I94
I82
I-60
I238
tp333
sI2
(I92
I69
I-61
I189
tp334
sI3
(I94
I87
I-61
I236
tp335
sI4
(I95
I93
I-58
I238
tp336
sI5
(I95
I95
I-60
I242
tp337
sI6
(I94
I83
I-64
I240
tp338
sI7
(I99
I96
I-74
I242
tp339
ssba(iSample
Sample
p340
(dp341
g3
S'bbbb::12:4b00:60d:8031'
p342
sg5
F1441373850.938708
sg6
(dp343
I8
(I96
I95
I-68
I240
tp344
sI9
(I97
I94
I-62
I239
tp345
sI10
(I95
I95
I-60
I234
tp346
sI11
(I98
I96
I-59
I239
tp347
sI12
(I98
I96
I-58
I240
tp348
sI13
(I101
I100
I-57
I233
tp349
sI14
(I95
I95
I-55
I232
tp350
sI15
(I95
I95
I-57
I240
tp351
ssba(iSample
Sample
p352
(dp353
g3
S'bbbb::12:4b00:60d:8031'
p354
sg5
F1441373852.964812
sg6
(dp355
I0
(I99
I67
I-61
I240
tp356
sI1
(I100
I88
I-59
I234
tp357
sI2
(I98
I74
I-63
I201
tp358
sI3
(I99
I92
I-62
I229
tp359
sI4
(I100
I98
I-60
I237
tp360
sI5
(I100
I100
I-63
I237
tp361
sI6
(I100
I89
I-69
I236
tp362
sI7
(I105
I102
I-67
I236
tp363
ssba(iSample
Sample
p364
(dp365
g3
S'bbbb::12:4b00:60d:8031'
p366
sg5
F1441373854.930415
sg6
(dp367
I8
(I102
I101
I-61
I240
tp368
sI9
(I102
I99
I-60
I229
tp369
sI10
(I101
I101
I-58
I240
tp370
sI11
(I103
I101
I-59
I234
tp371
sI12
(I104
I102
I-59
I233
tp372
sI13
(I106
I105
I-61
I242
tp373
sI14
(I101
I101
I-60
I236
tp374
sI15
(I100
I100
I-60
I237
tp375
ssba(iSample
Sample
p376
(dp377
g3
S'bbbb::12:4b00:60d:8031'
p378
sg5
F1441373856.955625
sg6
(dp379
I0
(I105
I73
I-62
I238
tp380
sI1
(I106
I94
I-61
I232
tp381
sI2
(I103
I76
I-65
I242
tp382
sI3
(I105
I98
I-59
I240
tp383
sI4
(I105
I103
I-59
I234
tp384
sI5
(I106
I106
I-62
I236
tp385
sI6
(I106
I95
I-64
I236
tp386
sI7
(I110
I107
I-61
I237
tp387
ssba(iSample
Sample
p388
(dp389
g3
S'bbbb::12:4b00:60d:8031'
p390
sg5
F1441373858.981691
sg6
(dp391
I8
(I108
I107
I-58
I236
tp392
sI9
(I108
I105
I-58
I238
tp393
sI10
(I107
I107
I-57
I236
tp394
sI11
(I109
I107
I-58
I231
tp395
sI12
(I109
I107
I-58
I234
tp396
sI13
(I111
I110
I-58
I237
tp397
sI14
(I107
I107
I-58
I229
tp398
sI15
(I106
I106
I-58
I236
tp399
ssba(iSample
Sample
p400
(dp401
g3
S'bbbb::12:4b00:60d:8031'
p402
sg5
F1441373861.007165
sg6
(dp403
I0
(I110
I78
I-60
I237
tp404
sI1
(I111
I99
I-58
I239
tp405
sI2
(I109
I81
I-63
I242
tp406
sI3
(I111
I104
I-61
I199
tp407
sI4
(I111
I109
I-58
I236
tp408
sI5
(I111
I111
I-61
I237
tp409
sI6
(I111
I99
I-62
I236
tp410
sI7
(I115
I112
I-63
I234
tp411
ssba(iSample
Sample
p412
(dp413
g3
S'bbbb::12:4b00:60d:8031'
p414
sg5
F1441373863.033625
sg6
(dp415
I8
(I113
I112
I-69
I242
tp416
sI9
(I114
I111
I-61
I238
tp417
sI10
(I113
I113
I-59
I236
tp418
sI11
(I114
I112
I-58
I232
tp419
sI12
(I115
I113
I-57
I238
tp420
sI13
(I117
I116
I-58
I240
tp421
sI14
(I113
I113
I-58
I238
tp422
sI15
(I112
I112
I-58
I234
tp423
ssba(iSample
Sample
p424
(dp425
g3
S'bbbb::12:4b00:60d:8031'
p426
sg5
F1441373865.058995
sg6
(dp427
I0
(I116
I81
I-62
I208
tp428
sI1
(I116
I102
I-58
I233
tp429
sI2
(I115
I84
I-65
I242
tp430
sI3
(I117
I110
I-60
I234
tp431
sI4
(I117
I115
I-59
I234
tp432
sI5
(I117
I117
I-62
I240
tp433
sI6
(I116
I104
I-64
I234
tp434
sI7
(I121
I118
I-63
I233
tp435
ssba(iSample
Sample
p436
(dp437
g3
S'bbbb::12:4b00:60d:8031'
p438
sg5
F1441373867.08434
sg6
(dp439
I8
(I118
I117
I-58
I242
tp440
sI9
(I119
I116
I-55
I242
tp441
sI10
(I118
I118
I-54
I242
tp442
sI11
(I120
I118
I-58
I238
tp443
sI12
(I121
I119
I-58
I242
tp444
sI13
(I123
I122
I-51
I242
tp445
sI14
(I118
I118
I-51
I242
tp446
sI15
(I118
I118
I-57
I238
tp447
ssba(iSample
Sample
p448
(dp449
g3
S'bbbb::12:4b00:60d:8031'
p450
sg5
F1441373869.111169
sg6
(dp451
I0
(I122
I87
I-33
I242
tp452
sI1
(I122
I108
I-34
I240
tp453
sI2
(I121
I90
I-33
I242
tp454
sI3
(I122
I115
I-30
I242
tp455
sI4
(I122
I120
I-30
I242
tp456
sI5
(I123
I123
I-35
I242
tp457
sI6
(I122
I110
I-36
I242
tp458
sI7
(I127
I124
I-33
I240
tp459
ssba(iSample
Sample
p460
(dp461
g3
S'bbbb::12:4b00:60d:8031'
p462
sg5
F1441373871.061792
sg6
(dp463
I8
(I124
I123
I-21
I242
tp464
sI9
(I125
I122
I-21
I242
tp465
sI10
(I123
I123
I-21
I242
tp466
sI11
(I126
I124
I-21
I242
tp467
sI12
(I127
I125
I-22
I242
tp468
sI13
(I128
I127
I-22
I242
tp469
sI14
(I123
I123
I-22
I242
tp470
sI15
(I123
I123
I-23
I242
tp471
ssba(iSample
Sample
p472
(dp473
g3
S'bbbb::12:4b00:60d:8031'
p474
sg5
F1441373873.087303
sg6
(dp475
I0
(I128
I93
I-20
I242
tp476
sI1
(I127
I113
I-20
I239
tp477
sI2
(I126
I95
I-20
I242
tp478
sI3
(I127
I120
I-20
I242
tp479
sI4
(I128
I126
I-20
I242
tp480
sI5
(I129
I129
I-20
I242
tp481
sI6
(I128
I116
I-20
I242
tp482
sI7
(I132
I129
I-21
I242
tp483
ssba(iSample
Sample
p484
(dp485
g3
S'bbbb::12:4b00:60d:8031'
p486
sg5
F1441373875.112512
sg6
(dp487
I8
(I130
I129
I-21
I242
tp488
sI9
(I132
I129
I-21
I240
tp489
sI10
(I129
I129
I-21
I242
tp490
sI11
(I132
I130
I-21
I242
tp491
sI12
(I132
I130
I-21
I239
tp492
sI13
(I134
I133
I-22
I242
tp493
sI14
(I129
I129
I-22
I242
tp494
sI15
(I128
I128
I-23
I242
tp495
ssba(iSample
Sample
p496
(dp497
g3
S'bbbb::12:4b00:60d:8031'
p498
sg5
F1441373877.139638
sg6
(dp499
I0
(I133
I98
I-19
I242
tp500
sI1
(I133
I119
I-20
I242
tp501
sI2
(I131
I100
I-20
I242
tp502
sI3
(I133
I126
I-20
I242
tp503
sI4
(I134
I132
I-20
I242
tp504
sI5
(I134
I134
I-20
I242
tp505
sI6
(I133
I121
I-20
I242
tp506
sI7
(I138
I135
I-21
I240
tp507
ssba(iSample
Sample
p508
(dp509
g3
S'bbbb::12:4b00:60d:8031'
p510
sg5
F1441373879.104944
sg6
(dp511
I8
(I135
I134
I-21
I242
tp512
sI9
(I138
I135
I-21
I242
tp513
sI10
(I134
I134
I-21
I242
tp514
sI11
(I137
I135
I-21
I242
tp515
sI12
(I137
I135
I-21
I242
tp516
sI13
(I140
I139
I-22
I240
tp517
sI14
(I134
I134
I-22
I242
tp518
sI15
(I134
I134
I-23
I242
tp519
ssba(iSample
Sample
p520
(dp521
g3
S'bbbb::12:4b00:60d:8031'
p522
sg5
F1441373881.130257
sg6
(dp523
I0
(I138
I103
I-20
I242
tp524
sI1
(I139
I125
I-20
I240
tp525
sI2
(I137
I106
I-20
I242
tp526
sI3
(I138
I131
I-20
I242
tp527
sI4
(I140
I138
I-20
I238
tp528
sI5
(I139
I139
I-20
I242
tp529
sI6
(I139
I127
I-20
I242
tp530
sI7
(I144
I141
I-21
I242
tp531
ssba(iSample
Sample
p532
(dp533
g3
S'bbbb::12:4b00:60d:8031'
p534
sg5
F1441373883.156878
sg6
(dp535
I8
(I141
I140
I-21
I242
tp536
sI9
(I143
I140
I-21
I239
tp537
sI10
(I140
I140
I-21
I242
tp538
sI11
(I142
I140
I-21
I242
tp539
sI12
(I143
I141
I-21
I240
tp540
sI13
(I146
I145
I-22
I240
tp541
sI14
(I140
I140
I-22
I240
tp542
sI15
(I139
I139
I-23
I242
tp543
ssba(iSample
Sample
p544
(dp545
g3
S'bbbb::12:4b00:60d:8031'
p546
sg5
F1441373885.181695
sg6
(dp547
I0
(I144
I109
I-20
I242
tp548
sI1
(I145
I131
I-20
I240
tp549
sI2
(I142
I111
I-20
I242
tp550
sI3
(I144
I137
I-20
I242
tp551
sI4
(I145
I143
I-20
I242
tp552
sI5
(I145
I145
I-20
I240
tp553
sI6
(I145
I133
I-20
I240
tp554
sI7
(I150
I147
I-21
I242
tp555
ssba(iSample
Sample
p556
(dp557
g3
S'bbbb::12:4b00:60d:8031'
p558
sg5
F1441373887.207169
sg6
(dp559
I8
(I147
I146
I-21
I242
tp560
sI9
(I148
I145
I-21
I239
tp561
sI10
(I146
I146
I-21
I242
tp562
sI11
(I148
I146
I-21
I242
tp563
sI12
(I148
I146
I-21
I239
tp564
sI13
(I151
I150
I-22
I242
tp565
sI14
(I146
I146
I-22
I242
tp566
sI15
(I145
I145
I-23
I242
tp567
ssba(iSample
Sample
p568
(dp569
g3
S'bbbb::12:4b00:60d:8031'
p570
sg5
F1441373889.234248
sg6
(dp571
I0
(I149
I114
I-20
I242
tp572
sI1
(I150
I136
I-20
I239
tp573
sI2
(I148
I117
I-20
I242
tp574
sI3
(I150
I143
I-20
I240
tp575
sI4
(I150
I148
I-20
I242
tp576
sI5
(I151
I151
I-20
I242
tp577
sI6
(I151
I139
I-21
I242
tp578
sI7
(I155
I152
I-21
I242
tp579
ssba(iSample
Sample
p580
(dp581
g3
S'bbbb::12:4b00:60d:8031'
p582
sg5
F1441373891.25891
sg6
(dp583
I8
(I153
I152
I-21
I242
tp584
sI9
(I154
I151
I-21
I242
tp585
sI10
(I152
I152
I-21
I242
tp586
sI11
(I154
I152
I-21
I240
tp587
sI12
(I154
I152
I-21
I242
tp588
sI13
(I156
I155
I-22
I242
tp589
sI14
(I152
I152
I-22
I242
tp590
sI15
(I151
I151
I-23
I240
tp591
ssba(iSample
Sample
p592
(dp593
g3
S'bbbb::12:4b00:60d:8031'
p594
sg5
F1441373893.284979
sg6
(dp595
I0
(I155
I120
I-20
I240
tp596
sI1
(I155
I141
I-20
I242
tp597
sI2
(I154
I123
I-20
I242
tp598
sI3
(I156
I149
I-20
I242
tp599
sI4
(I156
I154
I-20
I238
tp600
sI5
(I156
I156
I-20
I242
tp601
sI6
(I156
I144
I-21
I242
tp602
sI7
(I160
I157
I-21
I242
tp603
ssba.