(lp0
(iSample
Sample
p1
(dp2
S'moteIp'
p3
S'85d2'
p4
sS'timeStamp'
p5
F1441354115.208965
sS'moteData'
p6
(dp7
I8
(I5763
I5763
I-28
I240
tp8
sI9
(I5767
I5767
I-29
I241
tp9
sI10
(I5773
I5772
I-28
I239
tp10
sI11
(I5768
I5768
I-30
I242
tp11
sI12
(I5767
I5767
I-30
I241
tp12
sI13
(I5778
I5776
I-29
I240
tp13
sI14
(I5780
I5779
I-29
I240
tp14
sI15
(I5766
I5765
I-30
I240
tp15
ssba(iSample
Sample
p16
(dp17
g3
S'85d2'
p18
sg5
F1441354117.234656
sg6
(dp19
I0
(I5777
I5774
I-26
I239
tp20
sI1
(I5775
I5768
I-27
I241
tp21
sI2
(I5767
I5761
I-28
I241
tp22
sI3
(I5781
I5777
I-28
I240
tp23
sI4
(I5781
I5780
I-28
I239
tp24
sI5
(I5781
I5780
I-28
I239
tp25
sI6
(I5780
I5778
I-29
I240
tp26
sI7
(I5775
I5774
I-29
I241
tp27
ssba(iSample
Sample
p28
(dp29
g3
S'85d2'
p30
sg5
F1441354119.260922
sg6
(dp31
I8
(I5775
I5775
I-23
I224
tp32
sI9
(I5779
I5779
I-30
I241
tp33
sI10
(I5785
I5784
I-30
I242
tp34
sI11
(I5780
I5780
I-30
I241
tp35
sI12
(I5778
I5778
I-30
I242
tp36
sI13
(I5788
I5786
I-30
I242
tp37
sI14
(I5792
I5791
I-31
I242
tp38
sI15
(I5778
I5777
I-31
I242
tp39
ssba(iSample
Sample
p40
(dp41
g3
S'85d2'
p42
sg5
F1441354121.151262
sg6
(dp43
I0
(I5788
I5785
I-28
I242
tp44
sI1
(I5786
I5779
I-28
I241
tp45
sI2
(I5779
I5773
I-28
I242
tp46
sI3
(I5793
I5789
I-29
I242
tp47
sI4
(I5794
I5793
I-24
I225
tp48
sI5
(I5791
I5790
I-30
I242
tp49
sI6
(I5790
I5788
I-30
I242
tp50
sI7
(I5785
I5784
I-30
I242
tp51
ssba(iSample
Sample
p52
(dp53
g3
S'85d2'
p54
sg5
F1441354123.1778
sg6
(dp55
I8
(I5786
I5786
I-22
I221
tp56
sI9
(I5790
I5790
I-30
I241
tp57
sI10
(I5796
I5795
I-30
I242
tp58
sI11
(I5790
I5790
I-30
I242
tp59
sI12
(I5790
I5790
I-30
I242
tp60
sI13
(I5800
I5798
I-30
I242
tp61
sI14
(I5803
I5802
I-30
I242
tp62
sI15
(I5790
I5789
I-30
I242
tp63
ssba(iSample
Sample
p64
(dp65
g3
S'85d2'
p66
sg5
F1441354125.203828
sg6
(dp67
I0
(I5800
I5797
I-28
I242
tp68
sI1
(I5797
I5790
I-28
I242
tp69
sI2
(I5791
I5785
I-28
I242
tp70
sI3
(I5803
I5798
I-30
I242
tp71
sI4
(I5805
I5804
I-30
I242
tp72
sI5
(I5803
I5802
I-30
I241
tp73
sI6
(I5801
I5799
I-30
I240
tp74
sI7
(I5797
I5796
I-30
I242
tp75
ssba(iSample
Sample
p76
(dp77
g3
S'85d2'
p78
sg5
F1441354127.228028
sg6
(dp79
I8
(I5797
I5797
I-30
I242
tp80
sI9
(I5801
I5801
I-30
I242
tp81
sI10
(I5807
I5806
I-30
I242
tp82
sI11
(I5802
I5802
I-30
I242
tp83
sI12
(I5802
I5802
I-31
I242
tp84
sI13
(I5811
I5809
I-31
I242
tp85
sI14
(I5813
I5812
I-31
I242
tp86
sI15
(I5801
I5800
I-24
I220
tp87
ssba(iSample
Sample
p88
(dp89
g3
S'85d2'
p90
sg5
F1441354129.25534
sg6
(dp91
I0
(I5811
I5808
I-28
I241
tp92
sI1
(I5808
I5801
I-28
I242
tp93
sI2
(I5801
I5795
I-28
I242
tp94
sI3
(I5814
I5809
I-29
I242
tp95
sI4
(I5816
I5815
I-30
I242
tp96
sI5
(I5815
I5814
I-30
I242
tp97
sI6
(I5813
I5811
I-30
I241
tp98
sI7
(I5808
I5807
I-30
I242
tp99
ssba(iSample
Sample
p100
(dp101
g3
S'85d2'
p102
sg5
F1441354131.281314
sg6
(dp103
I8
(I5809
I5809
I-31
I240
tp104
sI9
(I5813
I5813
I-31
I242
tp105
sI10
(I5818
I5817
I-32
I242
tp106
sI11
(I5814
I5814
I-32
I241
tp107
sI12
(I5812
I5812
I-32
I242
tp108
sI13
(I5822
I5820
I-32
I242
tp109
sI14
(I5824
I5823
I-32
I240
tp110
sI15
(I5812
I5811
I-33
I241
tp111
ssba(iSample
Sample
p112
(dp113
g3
S'85d2'
p114
sg5
F1441354133.306307
sg6
(dp115
I0
(I5822
I5819
I-28
I242
tp116
sI1
(I5819
I5812
I-28
I242
tp117
sI2
(I5813
I5807
I-21
I222
tp118
sI3
(I5825
I5820
I-29
I242
tp119
sI4
(I5829
I5828
I-24
I224
tp120
sI5
(I5826
I5825
I-30
I242
tp121
sI6
(I5824
I5822
I-31
I242
tp122
sI7
(I5819
I5818
I-31
I242
tp123
ssba(iSample
Sample
p124
(dp125
g3
S'85d2'
p126
sg5
F1441354135.331814
sg6
(dp127
I8
(I5820
I5820
I-31
I242
tp128
sI9
(I5824
I5824
I-31
I242
tp129
sI10
(I5829
I5828
I-32
I242
tp130
sI11
(I5825
I5825
I-32
I242
tp131
sI12
(I5823
I5823
I-32
I242
tp132
sI13
(I5834
I5832
I-32
I242
tp133
sI14
(I5836
I5835
I-33
I242
tp134
sI15
(I5823
I5822
I-33
I242
tp135
ssba(iSample
Sample
p136
(dp137
g3
S'85d2'
p138
sg5
F1441354137.357368
sg6
(dp139
I0
(I5833
I5830
I-28
I242
tp140
sI1
(I5831
I5824
I-28
I242
tp141
sI2
(I5824
I5818
I-29
I242
tp142
sI3
(I5837
I5832
I-30
I242
tp143
sI4
(I5841
I5840
I-23
I224
tp144
sI5
(I5837
I5836
I-30
I240
tp145
sI6
(I5835
I5833
I-31
I242
tp146
sI7
(I5831
I5830
I-31
I241
tp147
ssba(iSample
Sample
p148
(dp149
g3
S'85d2'
p150
sg5
F1441354139.383844
sg6
(dp151
I8
(I5831
I5831
I-32
I242
tp152
sI9
(I5835
I5835
I-31
I242
tp153
sI10
(I5840
I5839
I-32
I242
tp154
sI11
(I5836
I5836
I-32
I242
tp155
sI12
(I5834
I5834
I-32
I242
tp156
sI13
(I5845
I5843
I-32
I242
tp157
sI14
(I5847
I5846
I-32
I242
tp158
sI15
(I5835
I5834
I-32
I241
tp159
ssba(iSample
Sample
p160
(dp161
g3
S'85d2'
p162
sg5
F1441354141.408404
sg6
(dp163
I0
(I5844
I5841
I-29
I242
tp164
sI1
(I5844
I5837
I-29
I241
tp165
sI2
(I5836
I5830
I-29
I242
tp166
sI3
(I5848
I5843
I-30
I241
tp167
sI4
(I5852
I5851
I-30
I242
tp168
sI5
(I5847
I5846
I-31
I242
tp169
sI6
(I5847
I5845
I-32
I242
tp170
sI7
(I5843
I5842
I-32
I240
tp171
ssba(iSample
Sample
p172
(dp173
g3
S'85d2'
p174
sg5
F1441354143.433983
sg6
(dp175
I8
(I5843
I5843
I-32
I242
tp176
sI9
(I5846
I5846
I-32
I241
tp177
sI10
(I5852
I5851
I-32
I241
tp178
sI11
(I5847
I5847
I-24
I222
tp179
sI12
(I5847
I5847
I-26
I225
tp180
sI13
(I5856
I5854
I-32
I242
tp181
sI14
(I5858
I5857
I-32
I241
tp182
sI15
(I5846
I5845
I-32
I242
tp183
ssba(iSample
Sample
p184
(dp185
g3
S'85d2'
p186
sg5
F1441354145.325069
sg6
(dp187
I0
(I5856
I5853
I-29
I241
tp188
sI1
(I5855
I5848
I-29
I241
tp189
sI2
(I5846
I5840
I-29
I242
tp190
sI3
(I5859
I5854
I-30
I242
tp191
sI4
(I5863
I5862
I-30
I242
tp192
sI5
(I5859
I5858
I-31
I242
tp193
sI6
(I5858
I5856
I-32
I242
tp194
sI7
(I5854
I5853
I-32
I242
tp195
ssba(iSample
Sample
p196
(dp197
g3
S'85d2'
p198
sg5
F1441354147.351606
sg6
(dp199
I8
(I5854
I5854
I-32
I242
tp200
sI9
(I5857
I5857
I-32
I242
tp201
sI10
(I5864
I5863
I-32
I242
tp202
sI11
(I5859
I5859
I-32
I242
tp203
sI12
(I5857
I5857
I-32
I242
tp204
sI13
(I5867
I5865
I-32
I242
tp205
sI14
(I5870
I5869
I-32
I242
tp206
sI15
(I5858
I5857
I-25
I224
tp207
ssba(iSample
Sample
p208
(dp209
g3
S'85d2'
p210
sg5
F1441354149.376246
sg6
(dp211
I0
(I5866
I5863
I-28
I241
tp212
sI1
(I5865
I5858
I-29
I242
tp213
sI2
(I5858
I5852
I-29
I241
tp214
sI3
(I5871
I5866
I-30
I241
tp215
sI4
(I5874
I5873
I-30
I241
tp216
sI5
(I5870
I5869
I-31
I242
tp217
sI6
(I5869
I5867
I-32
I241
tp218
sI7
(I5865
I5864
I-32
I242
tp219
ssba(iSample
Sample
p220
(dp221
g3
S'85d2'
p222
sg5
F1441354151.40308
sg6
(dp223
I8
(I5865
I5865
I-32
I242
tp224
sI9
(I5868
I5868
I-32
I242
tp225
sI10
(I5874
I5873
I-32
I242
tp226
sI11
(I5870
I5870
I-32
I242
tp227
sI12
(I5869
I5869
I-32
I240
tp228
sI13
(I5879
I5877
I-25
I224
tp229
sI14
(I5881
I5880
I-32
I241
tp230
sI15
(I5870
I5869
I-32
I239
tp231
ssba(iSample
Sample
p232
(dp233
g3
S'85d2'
p234
sg5
F1441354153.428627
sg6
(dp235
I0
(I5878
I5875
I-27
I241
tp236
sI1
(I5876
I5869
I-28
I242
tp237
sI2
(I5870
I5864
I-28
I242
tp238
sI3
(I5882
I5877
I-29
I242
tp239
sI4
(I5885
I5884
I-30
I242
tp240
sI5
(I5881
I5880
I-30
I242
tp241
sI6
(I5880
I5878
I-31
I242
tp242
sI7
(I5877
I5876
I-24
I224
tp243
ssba(iSample
Sample
p244
(dp245
g3
S'85d2'
p246
sg5
F1441354155.454529
sg6
(dp247
I8
(I5876
I5875
I-30
I241
tp248
sI9
(I5879
I5879
I-30
I242
tp249
sI10
(I5885
I5884
I-30
I242
tp250
sI11
(I5881
I5881
I-30
I242
tp251
sI12
(I5881
I5881
I-30
I242
tp252
sI13
(I5890
I5887
I-31
I242
tp253
sI14
(I5892
I5891
I-32
I242
tp254
sI15
(I5881
I5880
I-32
I242
tp255
ssba(iSample
Sample
p256
(dp257
g3
S'85d2'
p258
sg5
F1441354157.479819
sg6
(dp259
I0
(I5890
I5887
I-27
I242
tp260
sI1
(I5888
I5880
I-28
I242
tp261
sI2
(I5881
I5875
I-28
I241
tp262
sI3
(I5893
I5888
I-29
I241
tp263
sI4
(I5896
I5895
I-30
I242
tp264
sI5
(I5893
I5892
I-30
I242
tp265
sI6
(I5891
I5889
I-30
I242
tp266
sI7
(I5888
I5887
I-30
I242
tp267
ssba(iSample
Sample
p268
(dp269
g3
S'85d2'
p270
sg5
F1441354159.505413
sg6
(dp271
I8
(I5887
I5886
I-30
I241
tp272
sI9
(I5891
I5891
I-30
I242
tp273
sI10
(I5896
I5895
I-30
I242
tp274
sI11
(I5893
I5893
I-31
I242
tp275
sI12
(I5892
I5892
I-31
I241
tp276
sI13
(I5901
I5898
I-32
I242
tp277
sI14
(I5903
I5902
I-32
I242
tp278
sI15
(I5893
I5892
I-25
I224
tp279
ssba(iSample
Sample
p280
(dp281
g3
S'85d2'
p282
sg5
F1441354161.531357
sg6
(dp283
I0
(I5901
I5898
I-27
I242
tp284
sI1
(I5899
I5891
I-28
I242
tp285
sI2
(I5892
I5886
I-28
I241
tp286
sI3
(I5903
I5898
I-29
I242
tp287
sI4
(I5908
I5907
I-30
I242
tp288
sI5
(I5904
I5903
I-30
I240
tp289
sI6
(I5903
I5901
I-23
I224
tp290
sI7
(I5899
I5898
I-30
I242
tp291
ssba(iSample
Sample
p292
(dp293
g3
S'85d2'
p294
sg5
F1441354163.556907
sg6
(dp295
I8
(I5898
I5897
I-30
I241
tp296
sI9
(I5904
I5903
I-30
I241
tp297
sI10
(I5909
I5908
I-24
I225
tp298
sI11
(I5904
I5904
I-30
I241
tp299
sI12
(I5903
I5903
I-30
I242
tp300
sI13
(I5913
I5910
I-31
I242
tp301
sI14
(I5914
I5913
I-31
I242
tp302
sI15
(I5903
I5902
I-32
I242
tp303
ssba(iSample
Sample
p304
(dp305
g3
S'85d2'
p306
sg5
F1441354165.582483
sg6
(dp307
I0
(I5912
I5909
I-28
I242
tp308
sI1
(I5910
I5902
I-28
I241
tp309
sI2
(I5902
I5896
I-28
I242
tp310
sI3
(I5915
I5910
I-29
I242
tp311
sI4
(I5921
I5920
I-30
I242
tp312
sI5
(I5915
I5914
I-30
I242
tp313
sI6
(I5914
I5912
I-30
I242
tp314
sI7
(I5911
I5910
I-30
I242
tp315
ssba(iSample
Sample
p316
(dp317
g3
S'85d2'
p318
sg5
F1441354167.608256
sg6
(dp319
I8
(I5909
I5908
I-30
I242
tp320
sI9
(I5915
I5914
I-30
I241
tp321
sI10
(I5920
I5919
I-30
I242
tp322
sI11
(I5915
I5915
I-30
I242
tp323
sI12
(I5914
I5914
I-23
I222
tp324
sI13
(I5925
I5922
I-31
I242
tp325
sI14
(I5925
I5924
I-31
I242
tp326
sI15
(I5915
I5914
I-32
I242
tp327
ssba(iSample
Sample
p328
(dp329
g3
S'85d2'
p330
sg5
F1441354169.498929
sg6
(dp331
I0
(I5922
I5919
I-27
I241
tp332
sI1
(I5922
I5914
I-28
I240
tp333
sI2
(I5914
I5908
I-28
I241
tp334
sI3
(I5926
I5921
I-29
I242
tp335
sI4
(I5932
I5931
I-30
I241
tp336
sI5
(I5926
I5925
I-30
I241
tp337
sI6
(I5926
I5924
I-30
I242
tp338
sI7
(I5923
I5922
I-30
I241
tp339
ssba(iSample
Sample
p340
(dp341
g3
S'85d2'
p342
sg5
F1441354171.525681
sg6
(dp343
I8
(I5921
I5920
I-30
I241
tp344
sI9
(I5925
I5924
I-30
I242
tp345
sI10
(I5931
I5930
I-30
I242
tp346
sI11
(I5926
I5926
I-31
I242
tp347
sI12
(I5926
I5926
I-31
I242
tp348
sI13
(I5936
I5933
I-32
I241
tp349
sI14
(I5936
I5935
I-32
I242
tp350
sI15
(I5926
I5925
I-32
I242
tp351
ssba(iSample
Sample
p352
(dp353
g3
S'85d2'
p354
sg5
F1441354173.551629
sg6
(dp355
I0
(I5934
I5931
I-28
I242
tp356
sI1
(I5934
I5926
I-21
I224
tp357
sI2
(I5926
I5920
I-22
I224
tp358
sI3
(I5937
I5932
I-29
I242
tp359
sI4
(I5942
I5941
I-30
I242
tp360
sI5
(I5937
I5936
I-30
I242
tp361
sI6
(I5938
I5936
I-30
I242
tp362
sI7
(I5933
I5932
I-30
I242
tp363
ssba(iSample
Sample
p364
(dp365
g3
S'85d2'
p366
sg5
F1441354175.576997
sg6
(dp367
I8
(I5933
I5932
I-30
I241
tp368
sI9
(I5936
I5935
I-31
I242
tp369
sI10
(I5943
I5942
I-30
I241
tp370
sI11
(I5937
I5937
I-31
I242
tp371
sI12
(I5937
I5936
I-31
I242
tp372
sI13
(I5946
I5943
I-32
I241
tp373
sI14
(I5948
I5947
I-32
I242
tp374
sI15
(I5937
I5936
I-32
I242
tp375
ssba(iSample
Sample
p376
(dp377
g3
S'85d2'
p378
sg5
F1441354177.602509
sg6
(dp379
I0
(I5945
I5942
I-27
I242
tp380
sI1
(I5945
I5937
I-28
I242
tp381
sI2
(I5937
I5931
I-28
I242
tp382
sI3
(I5949
I5944
I-29
I242
tp383
sI4
(I5954
I5953
I-23
I223
tp384
sI5
(I5948
I5947
I-30
I241
tp385
sI6
(I5948
I5946
I-30
I242
tp386
sI7
(I5944
I5943
I-30
I241
tp387
ssba(iSample
Sample
p388
(dp389
g3
S'85d2'
p390
sg5
F1441354179.628204
sg6
(dp391
I8
(I5943
I5942
I-30
I242
tp392
sI9
(I5948
I5947
I-30
I242
tp393
sI10
(I5954
I5953
I-30
I241
tp394
sI11
(I5948
I5948
I-31
I239
tp395
sI12
(I5948
I5947
I-31
I242
tp396
sI13
(I5957
I5954
I-31
I242
tp397
sI14
(I5959
I5958
I-32
I241
tp398
sI15
(I5949
I5948
I-32
I242
tp399
ssba(iSample
Sample
p400
(dp401
g3
S'85d2'
p402
sg5
F1441354181.654587
sg6
(dp403
I0
(I5956
I5953
I-28
I241
tp404
sI1
(I5956
I5948
I-28
I242
tp405
sI2
(I5949
I5943
I-28
I241
tp406
sI3
(I5960
I5955
I-29
I242
tp407
sI4
(I5966
I5965
I-30
I242
tp408
sI5
(I5959
I5958
I-30
I241
tp409
sI6
(I5959
I5957
I-30
I242
tp410
sI7
(I5955
I5954
I-30
I241
tp411
ssba(iSample
Sample
p412
(dp413
g3
S'85d2'
p414
sg5
F1441354183.679556
sg6
(dp415
I8
(I5954
I5953
I-30
I242
tp416
sI9
(I5959
I5958
I-30
I242
tp417
sI10
(I5965
I5964
I-30
I241
tp418
sI11
(I5960
I5960
I-24
I224
tp419
sI12
(I5960
I5959
I-31
I242
tp420
sI13
(I5969
I5966
I-31
I241
tp421
sI14
(I5970
I5969
I-32
I242
tp422
sI15
(I5961
I5960
I-25
I224
tp423
ssba(iSample
Sample
p424
(dp425
g3
S'85d2'
p426
sg5
F1441354185.705012
sg6
(dp427
I0
(I5968
I5965
I-28
I242
tp428
sI1
(I5967
I5959
I-28
I242
tp429
sI2
(I5960
I5954
I-29
I242
tp430
sI3
(I5971
I5966
I-29
I242
tp431
sI4
(I5977
I5976
I-30
I241
tp432
sI5
(I5971
I5970
I-30
I242
tp433
sI6
(I5970
I5968
I-30
I242
tp434
sI7
(I5967
I5966
I-30
I241
tp435
ssba(iSample
Sample
p436
(dp437
g3
S'85d2'
p438
sg5
F1441354187.730608
sg6
(dp439
I8
(I5965
I5964
I-30
I242
tp440
sI9
(I5970
I5969
I-30
I241
tp441
sI10
(I5975
I5974
I-30
I242
tp442
sI11
(I5972
I5972
I-31
I242
tp443
sI12
(I5971
I5970
I-31
I241
tp444
sI13
(I5980
I5977
I-31
I242
tp445
sI14
(I5982
I5981
I-25
I224
tp446
sI15
(I5972
I5971
I-32
I242
tp447
ssba(iSample
Sample
p448
(dp449
g3
S'85d2'
p450
sg5
F1441354189.756458
sg6
(dp451
I0
(I5980
I5977
I-27
I242
tp452
sI1
(I5978
I5970
I-27
I241
tp453
sI2
(I5971
I5965
I-28
I241
tp454
sI3
(I5982
I5977
I-28
I241
tp455
sI4
(I5988
I5987
I-29
I242
tp456
sI5
(I5983
I5982
I-29
I242
tp457
sI6
(I5982
I5980
I-30
I240
tp458
sI7
(I5978
I5977
I-30
I241
tp459
ssba(iSample
Sample
p460
(dp461
g3
S'85d2'
p462
sg5
F1441354191.782958
sg6
(dp463
I8
(I5977
I5976
I-30
I242
tp464
sI9
(I5982
I5981
I-30
I242
tp465
sI10
(I5987
I5986
I-30
I242
tp466
sI11
(I5984
I5984
I-31
I242
tp467
sI12
(I5982
I5981
I-31
I242
tp468
sI13
(I5991
I5988
I-32
I242
tp469
sI14
(I5993
I5992
I-32
I242
tp470
sI15
(I5983
I5982
I-32
I241
tp471
ssba(iSample
Sample
p472
(dp473
g3
S'85d2'
p474
sg5
F1441354193.67587
sg6
(dp475
I0
(I5991
I5988
I-27
I242
tp476
sI1
(I5989
I5981
I-27
I241
tp477
sI2
(I5982
I5976
I-27
I242
tp478
sI3
(I5993
I5988
I-28
I240
tp479
sI4
(I6001
I6000
I-23
I224
tp480
sI5
(I5994
I5993
I-29
I242
tp481
sI6
(I5992
I5990
I-30
I242
tp482
sI7
(I5990
I5989
I-23
I224
tp483
ssba(iSample
Sample
p484
(dp485
g3
S'85d2'
p486
sg5
F1441354195.699683
sg6
(dp487
I8
(I5987
I5986
I-30
I242
tp488
sI9
(I5993
I5992
I-30
I241
tp489
sI10
(I5998
I5997
I-30
I242
tp490
sI11
(I5994
I5994
I-31
I241
tp491
sI12
(I5993
I5992
I-31
I242
tp492
sI13
(I6003
I6000
I-32
I241
tp493
sI14
(I6005
I6004
I-32
I242
tp494
sI15
(I5994
I5993
I-32
I242
tp495
ssba(iSample
Sample
p496
(dp497
g3
S'85d2'
p498
sg5
F1441354197.724947
sg6
(dp499
I0
(I6002
I5999
I-27
I242
tp500
sI1
(I6001
I5993
I-27
I242
tp501
sI2
(I5993
I5987
I-27
I241
tp502
sI3
(I6005
I6000
I-28
I242
tp503
sI4
(I6012
I6011
I-29
I241
tp504
sI5
(I6005
I6004
I-22
I222
tp505
sI6
(I6004
I6002
I-30
I241
tp506
sI7
(I6002
I6001
I-30
I242
tp507
ssba(iSample
Sample
p508
(dp509
g3
S'85d2'
p510
sg5
F1441354199.750746
sg6
(dp511
I8
(I5999
I5998
I-30
I241
tp512
sI9
(I6004
I6003
I-30
I242
tp513
sI10
(I6009
I6008
I-30
I242
tp514
sI11
(I6005
I6005
I-30
I241
tp515
sI12
(I6004
I6003
I-31
I242
tp516
sI13
(I6014
I6011
I-31
I242
tp517
sI14
(I6015
I6014
I-31
I242
tp518
sI15
(I6005
I6004
I-32
I242
tp519
ssba(iSample
Sample
p520
(dp521
g3
S'85d2'
p522
sg5
F1441354201.77714
sg6
(dp523
I0
(I6013
I6010
I-27
I242
tp524
sI1
(I6012
I6004
I-28
I242
tp525
sI2
(I6005
I5999
I-21
I224
tp526
sI3
(I6015
I6010
I-29
I242
tp527
sI4
(I6023
I6022
I-29
I242
tp528
sI5
(I6016
I6015
I-30
I242
tp529
sI6
(I6016
I6014
I-30
I242
tp530
sI7
(I6013
I6012
I-30
I241
tp531
ssba(iSample
Sample
p532
(dp533
g3
S'85d2'
p534
sg5
F1441354203.803342
sg6
(dp535
I8
(I6011
I6010
I-30
I242
tp536
sI9
(I6015
I6014
I-30
I241
tp537
sI10
(I6022
I6021
I-24
I225
tp538
sI11
(I6016
I6016
I-31
I242
tp539
sI12
(I6015
I6014
I-31
I242
tp540
sI13
(I6025
I6022
I-32
I242
tp541
sI14
(I6027
I6026
I-32
I242
tp542
sI15
(I6016
I6015
I-32
I242
tp543
ssba(iSample
Sample
p544
(dp545
g3
S'85d2'
p546
sg5
F1441354205.829723
sg6
(dp547
I0
(I6024
I6021
I-27
I242
tp548
sI1
(I6023
I6015
I-27
I242
tp549
sI2
(I6016
I6010
I-28
I242
tp550
sI3
(I6028
I6023
I-22
I224
tp551
sI4
(I6034
I6033
I-29
I242
tp552
sI5
(I6028
I6027
I-29
I241
tp553
sI6
(I6027
I6025
I-29
I242
tp554
sI7
(I6024
I6023
I-30
I242
tp555
ssba(iSample
Sample
p556
(dp557
g3
S'85d2'
p558
sg5
F1441354207.854192
sg6
(dp559
I8
(I6022
I6021
I-30
I242
tp560
sI9
(I6026
I6025
I-30
I242
tp561
sI10
(I6033
I6032
I-30
I242
tp562
sI11
(I6028
I6028
I-31
I242
tp563
sI12
(I6026
I6025
I-31
I242
tp564
sI13
(I6036
I6033
I-32
I242
tp565
sI14
(I6039
I6038
I-32
I242
tp566
sI15
(I6028
I6027
I-32
I242
tp567
ssba(iSample
Sample
p568
(dp569
g3
S'85d2'
p570
sg5
F1441354209.878938
sg6
(dp571
I0
(I6035
I6032
I-26
I242
tp572
sI1
(I6034
I6026
I-26
I242
tp573
sI2
(I6028
I6022
I-27
I241
tp574
sI3
(I6040
I6035
I-28
I241
tp575
sI4
(I6045
I6044
I-29
I242
tp576
sI5
(I6039
I6038
I-29
I242
tp577
sI6
(I6038
I6036
I-29
I242
tp578
sI7
(I6034
I6033
I-30
I242
tp579
ssba(iSample
Sample
p580
(dp581
g3
S'85d2'
p582
sg5
F1441354211.905657
sg6
(dp583
I8
(I6033
I6032
I-30
I242
tp584
sI9
(I6037
I6036
I-30
I241
tp585
sI10
(I6044
I6043
I-30
I242
tp586
sI11
(I6039
I6039
I-31
I242
tp587
sI12
(I6038
I6037
I-31
I242
tp588
sI13
(I6047
I6044
I-32
I242
tp589
sI14
(I6051
I6050
I-25
I224
tp590
sI15
(I6041
I6040
I-32
I242
tp591
ssba(iSample
Sample
p592
(dp593
g3
S'85d2'
p594
sg5
F1441354213.932108
sg6
(dp595
I0
(I6047
I6044
I-27
I242
tp596
sI1
(I6045
I6037
I-27
I242
tp597
sI2
(I6041
I6035
I-22
I225
tp598
sI3
(I6051
I6046
I-29
I242
tp599
sI4
(I6056
I6055
I-30
I242
tp600
sI5
(I6050
I6049
I-30
I242
tp601
sI6
(I6048
I6046
I-30
I242
tp602
sI7
(I6046
I6045
I-30
I242
tp603
ssba.