(lp0
(iSample
Sample
p1
(dp2
S'moteIp'
p3
S'bbbb::12:4b00:60d:8031'
p4
sS'timeStamp'
p5
F1441371835.624545
sS'moteData'
p6
(dp7
I0
(I37
I37
I-37
I242
tp8
sI1
(I33
I33
I-37
I242
tp9
sI2
(I35
I34
I-37
I241
tp10
sI3
(I35
I35
I-37
I241
tp11
sI4
(I35
I35
I-37
I241
tp12
sI5
(I33
I33
I-37
I241
tp13
sI6
(I33
I33
I-37
I241
tp14
sI7
(I32
I32
I-37
I241
tp15
ssba(iSample
Sample
p16
(dp17
g3
S'bbbb::12:4b00:60d:8031'
p18
sg5
F1441371837.650771
sg6
(dp19
I8
(I39
I39
I-37
I242
tp20
sI9
(I41
I41
I-37
I241
tp21
sI10
(I40
I40
I-37
I241
tp22
sI11
(I39
I39
I-37
I241
tp23
sI12
(I41
I41
I-37
I241
tp24
sI13
(I40
I40
I-38
I241
tp25
sI14
(I40
I40
I-39
I241
tp26
sI15
(I40
I40
I-41
I241
tp27
ssba(iSample
Sample
p28
(dp29
g3
S'bbbb::12:4b00:60d:8031'
p30
sg5
F1441371839.676706
sg6
(dp31
I0
(I48
I48
I-37
I242
tp32
sI1
(I44
I44
I-37
I242
tp33
sI2
(I46
I45
I-37
I241
tp34
sI3
(I47
I47
I-37
I242
tp35
sI4
(I46
I46
I-37
I242
tp36
sI5
(I44
I44
I-37
I242
tp37
sI6
(I44
I44
I-37
I242
tp38
sI7
(I44
I44
I-37
I242
tp39
ssba(iSample
Sample
p40
(dp41
g3
S'bbbb::12:4b00:60d:8031'
p42
sg5
F1441371841.702348
sg6
(dp43
I8
(I50
I50
I-37
I241
tp44
sI9
(I51
I51
I-37
I242
tp45
sI10
(I50
I50
I-37
I240
tp46
sI11
(I50
I50
I-37
I242
tp47
sI12
(I53
I53
I-37
I242
tp48
sI13
(I51
I51
I-38
I242
tp49
sI14
(I51
I51
I-39
I241
tp50
sI15
(I52
I52
I-40
I241
tp51
ssba(iSample
Sample
p52
(dp53
g3
S'bbbb::12:4b00:60d:8031'
p54
sg5
F1441371843.727123
sg6
(dp55
I0
(I60
I60
I-37
I242
tp56
sI1
(I55
I55
I-37
I242
tp57
sI2
(I58
I57
I-37
I242
tp58
sI3
(I58
I58
I-37
I242
tp59
sI4
(I56
I56
I-37
I242
tp60
sI5
(I56
I56
I-37
I242
tp61
sI6
(I56
I56
I-37
I241
tp62
sI7
(I55
I55
I-37
I241
tp63
ssba(iSample
Sample
p64
(dp65
g3
S'bbbb::12:4b00:60d:8031'
p66
sg5
F1441371845.752771
sg6
(dp67
I8
(I62
I62
I-37
I242
tp68
sI9
(I63
I63
I-37
I242
tp69
sI10
(I62
I62
I-37
I242
tp70
sI11
(I62
I62
I-37
I240
tp71
sI12
(I65
I65
I-37
I242
tp72
sI13
(I61
I61
I-38
I241
tp73
sI14
(I62
I62
I-39
I240
tp74
sI15
(I63
I63
I-40
I242
tp75
ssba(iSample
Sample
p76
(dp77
g3
S'bbbb::12:4b00:60d:8031'
p78
sg5
F1441371847.779354
sg6
(dp79
I0
(I72
I72
I-37
I240
tp80
sI1
(I66
I66
I-37
I242
tp81
sI2
(I69
I68
I-37
I241
tp82
sI3
(I69
I69
I-37
I242
tp83
sI4
(I68
I68
I-37
I242
tp84
sI5
(I67
I67
I-37
I241
tp85
sI6
(I66
I66
I-37
I239
tp86
sI7
(I65
I65
I-37
I242
tp87
ssba(iSample
Sample
p88
(dp89
g3
S'bbbb::12:4b00:60d:8031'
p90
sg5
F1441371849.804947
sg6
(dp91
I8
(I72
I72
I-37
I239
tp92
sI9
(I74
I74
I-37
I241
tp93
sI10
(I73
I73
I-37
I240
tp94
sI11
(I73
I73
I-37
I242
tp95
sI12
(I76
I76
I-37
I241
tp96
sI13
(I73
I73
I-38
I240
tp97
sI14
(I74
I74
I-39
I241
tp98
sI15
(I74
I74
I-40
I242
tp99
ssba(iSample
Sample
p100
(dp101
g3
S'bbbb::12:4b00:60d:8031'
p102
sg5
F1441371851.829866
sg6
(dp103
I0
(I83
I83
I-37
I241
tp104
sI1
(I77
I77
I-37
I241
tp105
sI2
(I80
I79
I-37
I241
tp106
sI3
(I80
I80
I-37
I241
tp107
sI4
(I79
I79
I-37
I241
tp108
sI5
(I78
I78
I-37
I242
tp109
sI6
(I77
I77
I-37
I242
tp110
sI7
(I77
I77
I-37
I241
tp111
ssba(iSample
Sample
p112
(dp113
g3
S'bbbb::12:4b00:60d:8031'
p114
sg5
F1441371853.720556
sg6
(dp115
I8
(I83
I83
I-37
I242
tp116
sI9
(I86
I86
I-37
I242
tp117
sI10
(I84
I84
I-37
I242
tp118
sI11
(I84
I84
I-37
I241
tp119
sI12
(I87
I87
I-38
I241
tp120
sI13
(I84
I84
I-39
I240
tp121
sI14
(I84
I84
I-39
I242
tp122
sI15
(I85
I85
I-40
I242
tp123
ssba(iSample
Sample
p124
(dp125
g3
S'bbbb::12:4b00:60d:8031'
p126
sg5
F1441371855.747496
sg6
(dp127
I0
(I94
I94
I-42
I241
tp128
sI1
(I88
I88
I-40
I241
tp129
sI2
(I91
I90
I-41
I240
tp130
sI3
(I91
I91
I-41
I242
tp131
sI4
(I91
I91
I-43
I242
tp132
sI5
(I89
I89
I-42
I240
tp133
sI6
(I89
I89
I-42
I240
tp134
sI7
(I88
I88
I-42
I240
tp135
ssba(iSample
Sample
p136
(dp137
g3
S'bbbb::12:4b00:60d:8031'
p138
sg5
F1441371857.773064
sg6
(dp139
I8
(I95
I95
I-49
I240
tp140
sI9
(I97
I97
I-51
I242
tp141
sI10
(I95
I95
I-50
I237
tp142
sI11
(I95
I95
I-50
I236
tp143
sI12
(I98
I98
I-50
I242
tp144
sI13
(I96
I96
I-50
I239
tp145
sI14
(I95
I95
I-50
I238
tp146
sI15
(I96
I96
I-50
I237
tp147
ssba(iSample
Sample
p148
(dp149
g3
S'bbbb::12:4b00:60d:8031'
p150
sg5
F1441371859.79806
sg6
(dp151
I0
(I105
I105
I-48
I241
tp152
sI1
(I100
I100
I-49
I241
tp153
sI2
(I102
I100
I-50
I242
tp154
sI3
(I102
I102
I-50
I240
tp155
sI4
(I102
I102
I-49
I242
tp156
sI5
(I101
I101
I-48
I240
tp157
sI6
(I100
I100
I-49
I242
tp158
sI7
(I100
I100
I-49
I241
tp159
ssba(iSample
Sample
p160
(dp161
g3
S'bbbb::12:4b00:60d:8031'
p162
sg5
F1441371861.824842
sg6
(dp163
I8
(I106
I106
I-41
I241
tp164
sI9
(I108
I108
I-40
I241
tp165
sI10
(I106
I106
I-42
I242
tp166
sI11
(I107
I107
I-41
I242
tp167
sI12
(I109
I109
I-41
I242
tp168
sI13
(I107
I106
I-42
I241
tp169
sI14
(I107
I107
I-43
I241
tp170
sI15
(I107
I107
I-42
I238
tp171
ssba(iSample
Sample
p172
(dp173
g3
S'bbbb::12:4b00:60d:8031'
p174
sg5
F1441371863.850381
sg6
(dp175
I0
(I116
I116
I-35
I241
tp176
sI1
(I111
I111
I-35
I238
tp177
sI2
(I113
I111
I-35
I240
tp178
sI3
(I115
I115
I-35
I241
tp179
sI4
(I113
I113
I-35
I240
tp180
sI5
(I112
I112
I-34
I242
tp181
sI6
(I112
I112
I-34
I242
tp182
sI7
(I110
I110
I-34
I240
tp183
ssba(iSample
Sample
p184
(dp185
g3
S'bbbb::12:4b00:60d:8031'
p186
sg5
F1441371865.875445
sg6
(dp187
I8
(I118
I118
I-35
I242
tp188
sI9
(I119
I119
I-35
I242
tp189
sI10
(I118
I118
I-35
I242
tp190
sI11
(I118
I118
I-36
I242
tp191
sI12
(I120
I120
I-36
I242
tp192
sI13
(I118
I118
I-36
I241
tp193
sI14
(I118
I118
I-36
I242
tp194
sI15
(I120
I120
I-36
I239
tp195
ssba(iSample
Sample
p196
(dp197
g3
S'bbbb::12:4b00:60d:8031'
p198
sg5
F1441371867.901595
sg6
(dp199
I0
(I127
I127
I-35
I242
tp200
sI1
(I122
I122
I-35
I241
tp201
sI2
(I125
I123
I-35
I240
tp202
sI3
(I126
I126
I-35
I241
tp203
sI4
(I124
I124
I-35
I242
tp204
sI5
(I122
I122
I-34
I241
tp205
sI6
(I122
I122
I-34
I242
tp206
sI7
(I122
I122
I-34
I240
tp207
ssba(iSample
Sample
p208
(dp209
g3
S'bbbb::12:4b00:60d:8031'
p210
sg5
F1441371869.926546
sg6
(dp211
I8
(I128
I128
I-34
I242
tp212
sI9
(I130
I130
I-35
I240
tp213
sI10
(I129
I129
I-35
I241
tp214
sI11
(I128
I128
I-36
I241
tp215
sI12
(I132
I132
I-36
I242
tp216
sI13
(I129
I129
I-36
I242
tp217
sI14
(I129
I129
I-36
I238
tp218
sI15
(I131
I131
I-36
I240
tp219
ssba(iSample
Sample
p220
(dp221
g3
S'bbbb::12:4b00:60d:8031'
p222
sg5
F1441371871.952984
sg6
(dp223
I0
(I139
I139
I-35
I242
tp224
sI1
(I134
I134
I-35
I242
tp225
sI2
(I136
I134
I-36
I242
tp226
sI3
(I137
I137
I-36
I241
tp227
sI4
(I135
I135
I-35
I242
tp228
sI5
(I134
I134
I-34
I241
tp229
sI6
(I134
I134
I-35
I242
tp230
sI7
(I133
I133
I-35
I241
tp231
ssba(iSample
Sample
p232
(dp233
g3
S'bbbb::12:4b00:60d:8031'
p234
sg5
F1441371873.97878
sg6
(dp235
I8
(I140
I140
I-36
I242
tp236
sI9
(I141
I141
I-36
I241
tp237
sI10
(I140
I140
I-37
I241
tp238
sI11
(I140
I140
I-37
I242
tp239
sI12
(I143
I143
I-37
I242
tp240
sI13
(I140
I140
I-37
I242
tp241
sI14
(I140
I140
I-37
I242
tp242
sI15
(I142
I142
I-37
I242
tp243
ssba(iSample
Sample
p244
(dp245
g3
S'bbbb::12:4b00:60d:8031'
p246
sg5
F1441371876.005705
sg6
(dp247
I0
(I150
I150
I-36
I242
tp248
sI1
(I144
I144
I-36
I241
tp249
sI2
(I147
I145
I-37
I241
tp250
sI3
(I148
I148
I-37
I242
tp251
sI4
(I146
I146
I-37
I242
tp252
sI5
(I145
I145
I-36
I242
tp253
sI6
(I145
I145
I-36
I241
tp254
sI7
(I144
I144
I-36
I242
tp255
ssba(iSample
Sample
p256
(dp257
g3
S'bbbb::12:4b00:60d:8031'
p258
sg5
F1441371877.896044
sg6
(dp259
I8
(I151
I151
I-36
I241
tp260
sI9
(I152
I152
I-36
I242
tp261
sI10
(I151
I151
I-37
I237
tp262
sI11
(I151
I151
I-37
I240
tp263
sI12
(I154
I154
I-37
I242
tp264
sI13
(I151
I151
I-37
I241
tp265
sI14
(I152
I152
I-37
I242
tp266
sI15
(I153
I153
I-37
I242
tp267
ssba(iSample
Sample
p268
(dp269
g3
S'bbbb::12:4b00:60d:8031'
p270
sg5
F1441371879.920746
sg6
(dp271
I0
(I161
I161
I-36
I240
tp272
sI1
(I155
I155
I-36
I242
tp273
sI2
(I158
I156
I-37
I241
tp274
sI3
(I160
I160
I-37
I242
tp275
sI4
(I157
I157
I-36
I242
tp276
sI5
(I157
I157
I-36
I242
tp277
sI6
(I156
I156
I-36
I242
tp278
sI7
(I155
I155
I-36
I239
tp279
ssba(iSample
Sample
p280
(dp281
g3
S'bbbb::12:4b00:60d:8031'
p282
sg5
F1441371881.946793
sg6
(dp283
I8
(I162
I162
I-35
I242
tp284
sI9
(I164
I164
I-36
I241
tp285
sI10
(I162
I162
I-36
I241
tp286
sI11
(I163
I163
I-37
I240
tp287
sI12
(I165
I165
I-36
I240
tp288
sI13
(I162
I162
I-36
I241
tp289
sI14
(I163
I163
I-37
I242
tp290
sI15
(I165
I165
I-37
I241
tp291
ssba(iSample
Sample
p292
(dp293
g3
S'bbbb::12:4b00:60d:8031'
p294
sg5
F1441371883.973791
sg6
(dp295
I0
(I172
I172
I-36
I242
tp296
sI1
(I167
I167
I-36
I241
tp297
sI2
(I170
I168
I-36
I241
tp298
sI3
(I171
I171
I-36
I242
tp299
sI4
(I169
I169
I-36
I242
tp300
sI5
(I168
I168
I-35
I242
tp301
sI6
(I167
I167
I-35
I242
tp302
sI7
(I166
I166
I-35
I242
tp303
ssba(iSample
Sample
p304
(dp305
g3
S'bbbb::12:4b00:60d:8031'
p306
sg5
F1441371885.998659
sg6
(dp307
I8
(I173
I173
I-35
I241
tp308
sI9
(I175
I175
I-35
I241
tp309
sI10
(I173
I173
I-36
I241
tp310
sI11
(I173
I173
I-36
I241
tp311
sI12
(I177
I177
I-36
I240
tp312
sI13
(I174
I174
I-36
I240
tp313
sI14
(I174
I174
I-37
I241
tp314
sI15
(I176
I176
I-36
I242
tp315
ssba(iSample
Sample
p316
(dp317
g3
S'bbbb::12:4b00:60d:8031'
p318
sg5
F1441371888.024154
sg6
(dp319
I0
(I184
I184
I-36
I242
tp320
sI1
(I178
I178
I-36
I241
tp321
sI2
(I181
I179
I-36
I241
tp322
sI3
(I182
I182
I-36
I242
tp323
sI4
(I180
I180
I-36
I242
tp324
sI5
(I179
I179
I-35
I242
tp325
sI6
(I178
I178
I-35
I241
tp326
sI7
(I178
I178
I-35
I241
tp327
ssba(iSample
Sample
p328
(dp329
g3
S'bbbb::12:4b00:60d:8031'
p330
sg5
F1441371890.050545
sg6
(dp331
I8
(I185
I185
I-36
I241
tp332
sI9
(I186
I186
I-36
I242
tp333
sI10
(I186
I186
I-36
I241
tp334
sI11
(I185
I185
I-37
I242
tp335
sI12
(I188
I188
I-37
I241
tp336
sI13
(I185
I185
I-37
I242
tp337
sI14
(I185
I185
I-37
I242
tp338
sI15
(I186
I186
I-37
I242
tp339
ssba(iSample
Sample
p340
(dp341
g3
S'bbbb::12:4b00:60d:8031'
p342
sg5
F1441371892.076684
sg6
(dp343
I0
(I195
I195
I-36
I242
tp344
sI1
(I189
I189
I-36
I241
tp345
sI2
(I191
I189
I-36
I242
tp346
sI3
(I193
I193
I-36
I240
tp347
sI4
(I191
I191
I-36
I242
tp348
sI5
(I190
I190
I-36
I242
tp349
sI6
(I190
I190
I-36
I242
tp350
sI7
(I189
I189
I-36
I242
tp351
ssba(iSample
Sample
p352
(dp353
g3
S'bbbb::12:4b00:60d:8031'
p354
sg5
F1441371894.102787
sg6
(dp355
I8
(I197
I197
I-36
I242
tp356
sI9
(I198
I198
I-36
I242
tp357
sI10
(I197
I197
I-37
I242
tp358
sI11
(I196
I196
I-37
I242
tp359
sI12
(I198
I198
I-37
I242
tp360
sI13
(I196
I196
I-37
I242
tp361
sI14
(I196
I196
I-37
I241
tp362
sI15
(I198
I198
I-37
I242
tp363
ssba(iSample
Sample
p364
(dp365
g3
S'bbbb::12:4b00:60d:8031'
p366
sg5
F1441371896.127719
sg6
(dp367
I0
(I205
I205
I-37
I241
tp368
sI1
(I200
I200
I-36
I242
tp369
sI2
(I203
I201
I-36
I241
tp370
sI3
(I204
I204
I-36
I242
tp371
sI4
(I203
I203
I-36
I242
tp372
sI5
(I201
I201
I-36
I242
tp373
sI6
(I201
I201
I-36
I242
tp374
sI7
(I200
I200
I-36
I240
tp375
ssba(iSample
Sample
p376
(dp377
g3
S'bbbb::12:4b00:60d:8031'
p378
sg5
F1441371898.153727
sg6
(dp379
I8
(I208
I208
I-36
I241
tp380
sI9
(I208
I208
I-36
I242
tp381
sI10
(I208
I208
I-37
I242
tp382
sI11
(I207
I207
I-37
I242
tp383
sI12
(I210
I210
I-37
I241
tp384
sI13
(I208
I208
I-37
I239
tp385
sI14
(I208
I208
I-37
I241
tp386
sI15
(I209
I209
I-37
I241
tp387
ssba(iSample
Sample
p388
(dp389
g3
S'bbbb::12:4b00:60d:8031'
p390
sg5
F1441371900.178879
sg6
(dp391
I0
(I217
I217
I-37
I242
tp392
sI1
(I212
I212
I-36
I241
tp393
sI2
(I214
I212
I-36
I241
tp394
sI3
(I216
I216
I-37
I242
tp395
sI4
(I213
I213
I-37
I242
tp396
sI5
(I212
I212
I-36
I242
tp397
sI6
(I212
I212
I-36
I242
tp398
sI7
(I211
I211
I-36
I241
tp399
ssba(iSample
Sample
p400
(dp401
g3
S'bbbb::12:4b00:60d:8031'
p402
sg5
F1441371902.069442
sg6
(dp403
I8
(I219
I219
I-36
I240
tp404
sI9
(I219
I219
I-36
I241
tp405
sI10
(I219
I219
I-37
I242
tp406
sI11
(I218
I218
I-37
I242
tp407
sI12
(I221
I221
I-37
I241
tp408
sI13
(I218
I218
I-37
I242
tp409
sI14
(I219
I219
I-37
I241
tp410
sI15
(I221
I221
I-37
I242
tp411
ssba(iSample
Sample
p412
(dp413
g3
S'bbbb::12:4b00:60d:8031'
p414
sg5
F1441371904.095175
sg6
(dp415
I0
(I228
I228
I-37
I241
tp416
sI1
(I223
I223
I-36
I241
tp417
sI2
(I226
I224
I-36
I240
tp418
sI3
(I227
I227
I-37
I242
tp419
sI4
(I224
I224
I-37
I242
tp420
sI5
(I223
I223
I-36
I241
tp421
sI6
(I223
I223
I-36
I242
tp422
sI7
(I222
I222
I-36
I242
tp423
ssba(iSample
Sample
p424
(dp425
g3
S'bbbb::12:4b00:60d:8031'
p426
sg5
F1441371906.121184
sg6
(dp427
I8
(I230
I230
I-36
I241
tp428
sI9
(I231
I231
I-36
I241
tp429
sI10
(I231
I231
I-37
I242
tp430
sI11
(I229
I229
I-37
I240
tp431
sI12
(I233
I233
I-37
I241
tp432
sI13
(I229
I229
I-37
I241
tp433
sI14
(I230
I230
I-37
I241
tp434
sI15
(I232
I232
I-37
I242
tp435
ssba(iSample
Sample
p436
(dp437
g3
S'bbbb::12:4b00:60d:8031'
p438
sg5
F1441371908.148418
sg6
(dp439
I0
(I240
I240
I-36
I240
tp440
sI1
(I234
I234
I-36
I241
tp441
sI2
(I237
I235
I-36
I242
tp442
sI3
(I238
I238
I-36
I242
tp443
sI4
(I236
I236
I-36
I242
tp444
sI5
(I235
I235
I-36
I240
tp445
sI6
(I234
I234
I-36
I242
tp446
sI7
(I233
I233
I-36
I242
tp447
ssba(iSample
Sample
p448
(dp449
g3
S'bbbb::12:4b00:60d:8031'
p450
sg5
F1441371910.173199
sg6
(dp451
I8
(I241
I241
I-35
I242
tp452
sI9
(I242
I242
I-36
I242
tp453
sI10
(I242
I242
I-36
I241
tp454
sI11
(I241
I241
I-37
I242
tp455
sI12
(I243
I243
I-37
I242
tp456
sI13
(I241
I241
I-37
I241
tp457
sI14
(I241
I241
I-37
I242
tp458
sI15
(I243
I243
I-37
I242
tp459
ssba(iSample
Sample
p460
(dp461
g3
S'bbbb::12:4b00:60d:8031'
p462
sg5
F1441371912.198256
sg6
(dp463
I0
(I250
I250
I-36
I241
tp464
sI1
(I245
I245
I-35
I242
tp465
sI2
(I248
I246
I-35
I242
tp466
sI3
(I249
I249
I-35
I240
tp467
sI4
(I247
I247
I-35
I242
tp468
sI5
(I246
I246
I-35
I242
tp469
sI6
(I245
I245
I-35
I242
tp470
sI7
(I246
I246
I-35
I242
tp471
ssba(iSample
Sample
p472
(dp473
g3
S'bbbb::12:4b00:60d:8031'
p474
sg5
F1441371914.22424
sg6
(dp475
I8
(I252
I252
I-35
I242
tp476
sI9
(I254
I254
I-35
I242
tp477
sI10
(I252
I252
I-36
I242
tp478
sI11
(I252
I252
I-36
I242
tp479
sI12
(I255
I255
I-36
I242
tp480
sI13
(I252
I252
I-36
I242
tp481
sI14
(I252
I252
I-36
I242
tp482
sI15
(I254
I254
I-37
I242
tp483
ssba(iSample
Sample
p484
(dp485
g3
S'bbbb::12:4b00:60d:8031'
p486
sg5
F1441371916.250374
sg6
(dp487
I0
(I262
I262
I-36
I241
tp488
sI1
(I256
I256
I-36
I241
tp489
sI2
(I259
I257
I-36
I242
tp490
sI3
(I260
I260
I-36
I241
tp491
sI4
(I258
I258
I-36
I242
tp492
sI5
(I257
I257
I-35
I242
tp493
sI6
(I257
I257
I-35
I242
tp494
sI7
(I257
I257
I-35
I241
tp495
ssba(iSample
Sample
p496
(dp497
g3
S'bbbb::12:4b00:60d:8031'
p498
sg5
F1441371918.276421
sg6
(dp499
I8
(I264
I264
I-36
I241
tp500
sI9
(I264
I264
I-36
I241
tp501
sI10
(I264
I264
I-37
I242
tp502
sI11
(I263
I263
I-37
I242
tp503
sI12
(I266
I266
I-37
I242
tp504
sI13
(I263
I263
I-37
I242
tp505
sI14
(I263
I263
I-37
I240
tp506
sI15
(I265
I265
I-37
I240
tp507
ssba(iSample
Sample
p508
(dp509
g3
S'bbbb::12:4b00:60d:8031'
p510
sg5
F1441371920.301513
sg6
(dp511
I0
(I273
I273
I-36
I241
tp512
sI1
(I268
I268
I-35
I242
tp513
sI2
(I270
I268
I-35
I241
tp514
sI3
(I271
I271
I-36
I241
tp515
sI4
(I269
I269
I-36
I241
tp516
sI5
(I269
I269
I-35
I241
tp517
sI6
(I268
I268
I-35
I241
tp518
sI7
(I268
I268
I-35
I242
tp519
ssba(iSample
Sample
p520
(dp521
g3
S'bbbb::12:4b00:60d:8031'
p522
sg5
F1441371922.328136
sg6
(dp523
I8
(I275
I275
I-35
I242
tp524
sI9
(I276
I276
I-36
I242
tp525
sI10
(I275
I275
I-36
I240
tp526
sI11
(I275
I275
I-36
I240
tp527
sI12
(I277
I277
I-36
I242
tp528
sI13
(I274
I274
I-36
I241
tp529
sI14
(I275
I275
I-37
I242
tp530
sI15
(I276
I276
I-37
I241
tp531
ssba(iSample
Sample
p532
(dp533
g3
S'bbbb::12:4b00:60d:8031'
p534
sg5
F1441371924.353836
sg6
(dp535
I0
(I284
I284
I-35
I242
tp536
sI1
(I279
I279
I-35
I241
tp537
sI2
(I281
I279
I-35
I242
tp538
sI3
(I283
I283
I-36
I242
tp539
sI4
(I281
I281
I-36
I242
tp540
sI5
(I279
I279
I-35
I239
tp541
sI6
(I279
I279
I-35
I241
tp542
sI7
(I279
I279
I-34
I242
tp543
ssba(iSample
Sample
p544
(dp545
g3
S'bbbb::12:4b00:60d:8031'
p546
sg5
F1441371926.243702
sg6
(dp547
I8
(I286
I286
I-36
I242
tp548
sI9
(I287
I287
I-37
I241
tp549
sI10
(I287
I287
I-37
I242
tp550
sI11
(I285
I285
I-37
I242
tp551
sI12
(I288
I288
I-37
I242
tp552
sI13
(I286
I286
I-37
I242
tp553
sI14
(I286
I286
I-38
I241
tp554
sI15
(I287
I287
I-37
I242
tp555
ssba(iSample
Sample
p556
(dp557
g3
S'bbbb::12:4b00:60d:8031'
p558
sg5
F1441371928.271053
sg6
(dp559
I0
(I295
I295
I-36
I242
tp560
sI1
(I290
I290
I-37
I242
tp561
sI2
(I292
I290
I-37
I240
tp562
sI3
(I294
I294
I-37
I241
tp563
sI4
(I292
I292
I-36
I242
tp564
sI5
(I290
I290
I-36
I241
tp565
sI6
(I290
I290
I-36
I241
tp566
sI7
(I291
I291
I-36
I242
tp567
ssba(iSample
Sample
p568
(dp569
g3
S'bbbb::12:4b00:60d:8031'
p570
sg5
F1441371930.297011
sg6
(dp571
I8
(I297
I297
I-36
I241
tp572
sI9
(I298
I298
I-37
I242
tp573
sI10
(I298
I298
I-37
I242
tp574
sI11
(I296
I296
I-37
I242
tp575
sI12
(I299
I299
I-37
I241
tp576
sI13
(I297
I297
I-37
I242
tp577
sI14
(I297
I297
I-37
I242
tp578
sI15
(I299
I299
I-37
I242
tp579
ssba(iSample
Sample
p580
(dp581
g3
S'bbbb::12:4b00:60d:8031'
p582
sg5
F1441371932.322265
sg6
(dp583
I0
(I306
I306
I-36
I240
tp584
sI1
(I301
I301
I-37
I241
tp585
sI2
(I304
I302
I-37
I242
tp586
sI3
(I305
I305
I-37
I242
tp587
sI4
(I303
I303
I-36
I242
tp588
sI5
(I302
I302
I-35
I242
tp589
sI6
(I302
I302
I-36
I242
tp590
sI7
(I302
I302
I-36
I241
tp591
ssba(iSample
Sample
p592
(dp593
g3
S'bbbb::12:4b00:60d:8031'
p594
sg5
F1441371934.346858
sg6
(dp595
I8
(I309
I309
I-37
I242
tp596
sI9
(I309
I309
I-37
I242
tp597
sI10
(I309
I309
I-37
I241
tp598
sI11
(I308
I308
I-37
I242
tp599
sI12
(I311
I311
I-37
I242
tp600
sI13
(I308
I308
I-37
I242
tp601
sI14
(I308
I308
I-38
I240
tp602
sI15
(I310
I310
I-37
I241
tp603
ssba.