(lp0
(iSample
Sample
p1
(dp2
S'moteIp'
p3
S'bbbb::12:4b00:60d:85d2'
p4
sS'timeStamp'
p5
F1441354659.600876
sS'moteData'
p6
(dp7
I8
(I7284
I7283
I-28
I237
tp8
sI9
(I7287
I7286
I-30
I241
tp9
sI10
(I7299
I7298
I-29
I237
tp10
sI11
(I7289
I7289
I-30
I237
tp11
sI12
(I7289
I7288
I-32
I242
tp12
sI13
(I7301
I7298
I-32
I241
tp13
sI14
(I7305
I7304
I-33
I241
tp14
sI15
(I7295
I7294
I-33
I242
tp15
ssba(iSample
Sample
p16
(dp17
g3
S'bbbb::12:4b00:60d:85d2'
p18
sg5
F1441354661.627249
sg6
(dp19
I0
(I7298
I7295
I-28
I241
tp20
sI1
(I7302
I7293
I-27
I242
tp21
sI2
(I7294
I7286
I-26
I237
tp22
sI3
(I7302
I7295
I-28
I241
tp23
sI4
(I7306
I7305
I-29
I242
tp24
sI5
(I7301
I7300
I-30
I241
tp25
sI6
(I7296
I7294
I-30
I241
tp26
sI7
(I7295
I7293
I-30
I241
tp27
ssba(iSample
Sample
p28
(dp29
g3
S'bbbb::12:4b00:60d:85d2'
p30
sg5
F1441354663.652397
sg6
(dp31
I8
(I7296
I7295
I-23
I223
tp32
sI9
(I7299
I7298
I-30
I242
tp33
sI10
(I7310
I7309
I-31
I242
tp34
sI11
(I7301
I7301
I-25
I222
tp35
sI12
(I7300
I7299
I-32
I242
tp36
sI13
(I7312
I7309
I-32
I242
tp37
sI14
(I7316
I7315
I-33
I241
tp38
sI15
(I7307
I7306
I-33
I241
tp39
ssba(iSample
Sample
p40
(dp41
g3
S'bbbb::12:4b00:60d:85d2'
p42
sg5
F1441354665.678511
sg6
(dp43
I0
(I7309
I7306
I-27
I242
tp44
sI1
(I7312
I7303
I-27
I242
tp45
sI2
(I7306
I7298
I-27
I240
tp46
sI3
(I7313
I7306
I-28
I242
tp47
sI4
(I7319
I7318
I-29
I242
tp48
sI5
(I7312
I7311
I-29
I242
tp49
sI6
(I7307
I7305
I-30
I242
tp50
sI7
(I7306
I7304
I-30
I242
tp51
ssba(iSample
Sample
p52
(dp53
g3
S'bbbb::12:4b00:60d:85d2'
p54
sg5
F1441354667.703771
sg6
(dp55
I8
(I7307
I7306
I-30
I242
tp56
sI9
(I7310
I7309
I-30
I242
tp57
sI10
(I7321
I7320
I-31
I242
tp58
sI11
(I7312
I7312
I-32
I242
tp59
sI12
(I7313
I7312
I-26
I224
tp60
sI13
(I7324
I7321
I-33
I241
tp61
sI14
(I7327
I7326
I-33
I242
tp62
sI15
(I7319
I7318
I-33
I242
tp63
ssba(iSample
Sample
p64
(dp65
g3
S'bbbb::12:4b00:60d:85d2'
p66
sg5
F1441354669.729403
sg6
(dp67
I0
(I7321
I7318
I-27
I242
tp68
sI1
(I7324
I7315
I-27
I242
tp69
sI2
(I7317
I7309
I-27
I242
tp70
sI3
(I7324
I7317
I-28
I242
tp71
sI4
(I7330
I7329
I-29
I242
tp72
sI5
(I7324
I7323
I-30
I241
tp73
sI6
(I7318
I7316
I-30
I242
tp74
sI7
(I7318
I7316
I-30
I242
tp75
ssba(iSample
Sample
p76
(dp77
g3
S'bbbb::12:4b00:60d:85d2'
p78
sg5
F1441354671.62082
sg6
(dp79
I8
(I7318
I7317
I-30
I241
tp80
sI9
(I7321
I7320
I-31
I242
tp81
sI10
(I7331
I7330
I-32
I242
tp82
sI11
(I7324
I7324
I-32
I241
tp83
sI12
(I7324
I7323
I-32
I242
tp84
sI13
(I7334
I7331
I-33
I242
tp85
sI14
(I7338
I7337
I-34
I241
tp86
sI15
(I7330
I7329
I-34
I242
tp87
ssba(iSample
Sample
p88
(dp89
g3
S'bbbb::12:4b00:60d:85d2'
p90
sg5
F1441354673.64528
sg6
(dp91
I0
(I7332
I7329
I-27
I240
tp92
sI1
(I7335
I7326
I-27
I242
tp93
sI2
(I7328
I7320
I-28
I242
tp94
sI3
(I7335
I7328
I-28
I242
tp95
sI4
(I7341
I7340
I-29
I241
tp96
sI5
(I7336
I7335
I-30
I242
tp97
sI6
(I7330
I7328
I-30
I241
tp98
sI7
(I7330
I7328
I-16
I206
tp99
ssba(iSample
Sample
p100
(dp101
g3
S'bbbb::12:4b00:60d:85d2'
p102
sg5
F1441354675.672047
sg6
(dp103
I8
(I7330
I7329
I-30
I242
tp104
sI9
(I7333
I7332
I-30
I242
tp105
sI10
(I7343
I7342
I-31
I241
tp106
sI11
(I7336
I7336
I-32
I242
tp107
sI12
(I7335
I7334
I-32
I242
tp108
sI13
(I7346
I7343
I-32
I242
tp109
sI14
(I7349
I7348
I-33
I242
tp110
sI15
(I7341
I7340
I-33
I242
tp111
ssba(iSample
Sample
p112
(dp113
g3
S'bbbb::12:4b00:60d:85d2'
p114
sg5
F1441354677.698062
sg6
(dp115
I0
(I7343
I7340
I-27
I241
tp116
sI1
(I7346
I7337
I-27
I242
tp117
sI2
(I7340
I7332
I-21
I223
tp118
sI3
(I7346
I7339
I-28
I241
tp119
sI4
(I7353
I7352
I-29
I242
tp120
sI5
(I7346
I7345
I-30
I241
tp121
sI6
(I7340
I7338
I-30
I242
tp122
sI7
(I7342
I7340
I-30
I242
tp123
ssba(iSample
Sample
p124
(dp125
g3
S'bbbb::12:4b00:60d:85d2'
p126
sg5
F1441354679.723218
sg6
(dp127
I8
(I7340
I7339
I-30
I242
tp128
sI9
(I7344
I7343
I-31
I241
tp129
sI10
(I7354
I7353
I-32
I241
tp130
sI11
(I7346
I7346
I-32
I242
tp131
sI12
(I7346
I7345
I-32
I242
tp132
sI13
(I7358
I7355
I-31
I242
tp133
sI14
(I7360
I7359
I-32
I241
tp134
sI15
(I7352
I7351
I-32
I241
tp135
ssba(iSample
Sample
p136
(dp137
g3
S'bbbb::12:4b00:60d:85d2'
p138
sg5
F1441354681.749443
sg6
(dp139
I0
(I7354
I7351
I-28
I242
tp140
sI1
(I7358
I7349
I-27
I242
tp141
sI2
(I7351
I7343
I-28
I242
tp142
sI3
(I7357
I7350
I-28
I242
tp143
sI4
(I7364
I7363
I-29
I242
tp144
sI5
(I7357
I7356
I-30
I242
tp145
sI6
(I7352
I7350
I-30
I242
tp146
sI7
(I7354
I7352
I-30
I242
tp147
ssba(iSample
Sample
p148
(dp149
g3
S'bbbb::12:4b00:60d:85d2'
p150
sg5
F1441354683.775099
sg6
(dp151
I8
(I7353
I7352
I-24
I224
tp152
sI9
(I7355
I7354
I-30
I240
tp153
sI10
(I7365
I7364
I-31
I242
tp154
sI11
(I7357
I7357
I-31
I240
tp155
sI12
(I7357
I7356
I-31
I242
tp156
sI13
(I7369
I7366
I-30
I242
tp157
sI14
(I7372
I7371
I-24
I224
tp158
sI15
(I7363
I7362
I-31
I242
tp159
ssba(iSample
Sample
p160
(dp161
g3
S'bbbb::12:4b00:60d:85d2'
p162
sg5
F1441354685.800705
sg6
(dp163
I0
(I7365
I7362
I-28
I242
tp164
sI1
(I7369
I7360
I-27
I242
tp165
sI2
(I7362
I7354
I-27
I242
tp166
sI3
(I7368
I7361
I-28
I242
tp167
sI4
(I7375
I7374
I-29
I242
tp168
sI5
(I7368
I7367
I-29
I242
tp169
sI6
(I7364
I7362
I-30
I241
tp170
sI7
(I7365
I7363
I-30
I242
tp171
ssba(iSample
Sample
p172
(dp173
g3
S'bbbb::12:4b00:60d:85d2'
p174
sg5
F1441354687.825329
sg6
(dp175
I8
(I7365
I7364
I-30
I241
tp176
sI9
(I7366
I7365
I-23
I222
tp177
sI10
(I7377
I7376
I-30
I242
tp178
sI11
(I7368
I7368
I-31
I242
tp179
sI12
(I7368
I7367
I-31
I242
tp180
sI13
(I7380
I7377
I-31
I242
tp181
sI14
(I7384
I7383
I-31
I241
tp182
sI15
(I7374
I7373
I-32
I241
tp183
ssba(iSample
Sample
p184
(dp185
g3
S'bbbb::12:4b00:60d:85d2'
p186
sg5
F1441354689.852163
sg6
(dp187
I0
(I7376
I7373
I-27
I241
tp188
sI1
(I7380
I7371
I-27
I242
tp189
sI2
(I7373
I7365
I-27
I242
tp190
sI3
(I7380
I7373
I-28
I242
tp191
sI4
(I7385
I7384
I-29
I242
tp192
sI5
(I7380
I7379
I-30
I241
tp193
sI6
(I7375
I7373
I-30
I242
tp194
sI7
(I7376
I7374
I-30
I242
tp195
ssba(iSample
Sample
p196
(dp197
g3
S'bbbb::12:4b00:60d:85d2'
p198
sg5
F1441354691.878609
sg6
(dp199
I8
(I7376
I7375
I-30
I242
tp200
sI9
(I7378
I7377
I-30
I241
tp201
sI10
(I7389
I7388
I-30
I242
tp202
sI11
(I7380
I7380
I-30
I242
tp203
sI12
(I7379
I7378
I-30
I242
tp204
sI13
(I7390
I7387
I-30
I241
tp205
sI14
(I7396
I7395
I-31
I242
tp206
sI15
(I7386
I7385
I-31
I242
tp207
ssba(iSample
Sample
p208
(dp209
g3
S'bbbb::12:4b00:60d:85d2'
p210
sg5
F1441354693.904241
sg6
(dp211
I0
(I7387
I7384
I-28
I242
tp212
sI1
(I7391
I7382
I-28
I242
tp213
sI2
(I7385
I7377
I-28
I242
tp214
sI3
(I7392
I7385
I-29
I242
tp215
sI4
(I7397
I7396
I-30
I242
tp216
sI5
(I7391
I7390
I-30
I241
tp217
sI6
(I7385
I7383
I-30
I241
tp218
sI7
(I7386
I7384
I-30
I242
tp219
ssba(iSample
Sample
p220
(dp221
g3
S'bbbb::12:4b00:60d:85d2'
p222
sg5
F1441354695.794964
sg6
(dp223
I8
(I7386
I7385
I-31
I241
tp224
sI9
(I7389
I7388
I-31
I242
tp225
sI10
(I7400
I7399
I-31
I242
tp226
sI11
(I7390
I7390
I-31
I242
tp227
sI12
(I7392
I7391
I-24
I224
tp228
sI13
(I7402
I7399
I-31
I242
tp229
sI14
(I7408
I7407
I-24
I224
tp230
sI15
(I7398
I7397
I-31
I242
tp231
ssba(iSample
Sample
p232
(dp233
g3
S'bbbb::12:4b00:60d:85d2'
p234
sg5
F1441354697.820541
sg6
(dp235
I0
(I7399
I7396
I-28
I241
tp236
sI1
(I7402
I7393
I-27
I241
tp237
sI2
(I7397
I7389
I-27
I242
tp238
sI3
(I7402
I7395
I-29
I242
tp239
sI4
(I7409
I7408
I-23
I224
tp240
sI5
(I7402
I7401
I-30
I241
tp241
sI6
(I7396
I7394
I-30
I241
tp242
sI7
(I7398
I7396
I-30
I242
tp243
ssba(iSample
Sample
p244
(dp245
g3
S'bbbb::12:4b00:60d:85d2'
p246
sg5
F1441354699.846524
sg6
(dp247
I8
(I7397
I7396
I-30
I241
tp248
sI9
(I7400
I7399
I-30
I242
tp249
sI10
(I7411
I7410
I-30
I241
tp250
sI11
(I7402
I7402
I-31
I241
tp251
sI12
(I7404
I7403
I-31
I239
tp252
sI13
(I7413
I7410
I-30
I242
tp253
sI14
(I7418
I7417
I-31
I242
tp254
sI15
(I7408
I7407
I-32
I242
tp255
ssba(iSample
Sample
p256
(dp257
g3
S'bbbb::12:4b00:60d:85d2'
p258
sg5
F1441354701.872031
sg6
(dp259
I0
(I7411
I7408
I-28
I242
tp260
sI1
(I7413
I7404
I-27
I242
tp261
sI2
(I7407
I7399
I-28
I242
tp262
sI3
(I7413
I7406
I-28
I242
tp263
sI4
(I7420
I7419
I-29
I242
tp264
sI5
(I7414
I7413
I-30
I242
tp265
sI6
(I7408
I7406
I-30
I241
tp266
sI7
(I7409
I7407
I-30
I242
tp267
ssba(iSample
Sample
p268
(dp269
g3
S'bbbb::12:4b00:60d:85d2'
p270
sg5
F1441354703.897431
sg6
(dp271
I8
(I7409
I7408
I-30
I242
tp272
sI9
(I7413
I7412
I-24
I224
tp273
sI10
(I7422
I7421
I-31
I242
tp274
sI11
(I7414
I7414
I-31
I242
tp275
sI12
(I7414
I7413
I-31
I241
tp276
sI13
(I7424
I7421
I-31
I242
tp277
sI14
(I7429
I7428
I-32
I241
tp278
sI15
(I7420
I7419
I-25
I224
tp279
ssba(iSample
Sample
p280
(dp281
g3
S'bbbb::12:4b00:60d:85d2'
p282
sg5
F1441354705.923784
sg6
(dp283
I0
(I7421
I7418
I-28
I242
tp284
sI1
(I7424
I7415
I-27
I242
tp285
sI2
(I7418
I7410
I-27
I241
tp286
sI3
(I7424
I7417
I-28
I241
tp287
sI4
(I7432
I7431
I-30
I242
tp288
sI5
(I7425
I7424
I-30
I242
tp289
sI6
(I7419
I7417
I-30
I241
tp290
sI7
(I7420
I7418
I-30
I242
tp291
ssba(iSample
Sample
p292
(dp293
g3
S'bbbb::12:4b00:60d:85d2'
p294
sg5
F1441354707.949985
sg6
(dp295
I8
(I7420
I7419
I-30
I242
tp296
sI9
(I7424
I7423
I-30
I242
tp297
sI10
(I7433
I7432
I-30
I242
tp298
sI11
(I7425
I7425
I-31
I242
tp299
sI12
(I7425
I7424
I-30
I241
tp300
sI13
(I7436
I7433
I-30
I242
tp301
sI14
(I7441
I7440
I-31
I242
tp302
sI15
(I7431
I7430
I-32
I242
tp303
ssba(iSample
Sample
p304
(dp305
g3
S'bbbb::12:4b00:60d:85d2'
p306
sg5
F1441354709.974563
sg6
(dp307
I0
(I7432
I7429
I-28
I241
tp308
sI1
(I7436
I7427
I-28
I240
tp309
sI2
(I7429
I7421
I-28
I242
tp310
sI3
(I7436
I7429
I-28
I242
tp311
sI4
(I7443
I7442
I-29
I241
tp312
sI5
(I7436
I7435
I-30
I242
tp313
sI6
(I7430
I7428
I-30
I241
tp314
sI7
(I7433
I7431
I-24
I225
tp315
ssba(iSample
Sample
p316
(dp317
g3
S'bbbb::12:4b00:60d:85d2'
p318
sg5
F1441354712.00068
sg6
(dp319
I8
(I7431
I7430
I-30
I242
tp320
sI9
(I7435
I7434
I-30
I241
tp321
sI10
(I7444
I7443
I-30
I242
tp322
sI11
(I7436
I7436
I-31
I242
tp323
sI12
(I7436
I7435
I-31
I241
tp324
sI13
(I7447
I7444
I-31
I242
tp325
sI14
(I7452
I7451
I-31
I242
tp326
sI15
(I7443
I7442
I-32
I242
tp327
ssba(iSample
Sample
p328
(dp329
g3
S'bbbb::12:4b00:60d:85d2'
p330
sg5
F1441354714.027615
sg6
(dp331
I0
(I7443
I7440
I-27
I242
tp332
sI1
(I7449
I7440
I-28
I242
tp333
sI2
(I7441
I7433
I-27
I242
tp334
sI3
(I7447
I7440
I-28
I242
tp335
sI4
(I7454
I7453
I-29
I242
tp336
sI5
(I7446
I7445
I-30
I242
tp337
sI6
(I7442
I7440
I-30
I242
tp338
sI7
(I7444
I7442
I-30
I242
tp339
ssba(iSample
Sample
p340
(dp341
g3
S'bbbb::12:4b00:60d:85d2'
p342
sg5
F1441354716.051381
sg6
(dp343
I8
(I7443
I7442
I-31
I242
tp344
sI9
(I7447
I7446
I-24
I223
tp345
sI10
(I7456
I7455
I-31
I242
tp346
sI11
(I7446
I7446
I-32
I242
tp347
sI12
(I7448
I7447
I-32
I241
tp348
sI13
(I7458
I7455
I-31
I242
tp349
sI14
(I7463
I7462
I-31
I242
tp350
sI15
(I7454
I7453
I-32
I242
tp351
ssba(iSample
Sample
p352
(dp353
g3
S'bbbb::12:4b00:60d:85d2'
p354
sg5
F1441354718.076846
sg6
(dp355
I0
(I7455
I7452
I-27
I242
tp356
sI1
(I7461
I7452
I-20
I224
tp357
sI2
(I7452
I7444
I-27
I242
tp358
sI3
(I7458
I7451
I-28
I241
tp359
sI4
(I7465
I7464
I-29
I241
tp360
sI5
(I7458
I7457
I-29
I241
tp361
sI6
(I7453
I7451
I-30
I242
tp362
sI7
(I7455
I7453
I-30
I242
tp363
ssba(iSample
Sample
p364
(dp365
g3
S'bbbb::12:4b00:60d:85d2'
p366
sg5
F1441354719.968626
sg6
(dp367
I8
(I7455
I7454
I-23
I223
tp368
sI9
(I7458
I7457
I-31
I242
tp369
sI10
(I7468
I7467
I-31
I242
tp370
sI11
(I7458
I7458
I-32
I242
tp371
sI12
(I7458
I7457
I-31
I242
tp372
sI13
(I7469
I7466
I-32
I242
tp373
sI14
(I7475
I7474
I-32
I242
tp374
sI15
(I7465
I7464
I-32
I242
tp375
ssba(iSample
Sample
p376
(dp377
g3
S'bbbb::12:4b00:60d:85d2'
p378
sg5
F1441354721.993215
sg6
(dp379
I0
(I7465
I7462
I-28
I242
tp380
sI1
(I7471
I7462
I-28
I242
tp381
sI2
(I7464
I7456
I-28
I242
tp382
sI3
(I7470
I7463
I-28
I241
tp383
sI4
(I7476
I7475
I-29
I242
tp384
sI5
(I7469
I7468
I-30
I242
tp385
sI6
(I7464
I7462
I-30
I242
tp386
sI7
(I7466
I7464
I-30
I241
tp387
ssba(iSample
Sample
p388
(dp389
g3
S'bbbb::12:4b00:60d:85d2'
p390
sg5
F1441354724.020736
sg6
(dp391
I8
(I7466
I7465
I-31
I241
tp392
sI9
(I7469
I7468
I-30
I242
tp393
sI10
(I7478
I7477
I-31
I241
tp394
sI11
(I7469
I7469
I-32
I242
tp395
sI12
(I7470
I7469
I-31
I241
tp396
sI13
(I7480
I7477
I-31
I242
tp397
sI14
(I7486
I7485
I-32
I242
tp398
sI15
(I7477
I7476
I-31
I242
tp399
ssba(iSample
Sample
p400
(dp401
g3
S'bbbb::12:4b00:60d:85d2'
p402
sg5
F1441354726.045883
sg6
(dp403
I0
(I7477
I7474
I-27
I241
tp404
sI1
(I7483
I7474
I-21
I224
tp405
sI2
(I7476
I7468
I-27
I242
tp406
sI3
(I7481
I7474
I-28
I240
tp407
sI4
(I7487
I7486
I-29
I241
tp408
sI5
(I7480
I7479
I-30
I242
tp409
sI6
(I7475
I7473
I-30
I242
tp410
sI7
(I7477
I7475
I-30
I241
tp411
ssba(iSample
Sample
p412
(dp413
g3
S'bbbb::12:4b00:60d:85d2'
p414
sg5
F1441354728.072577
sg6
(dp415
I8
(I7477
I7476
I-30
I242
tp416
sI9
(I7480
I7479
I-31
I242
tp417
sI10
(I7489
I7488
I-31
I242
tp418
sI11
(I7480
I7480
I-31
I242
tp419
sI12
(I7482
I7481
I-31
I241
tp420
sI13
(I7492
I7489
I-24
I224
tp421
sI14
(I7498
I7497
I-24
I224
tp422
sI15
(I7488
I7487
I-32
I242
tp423
ssba(iSample
Sample
p424
(dp425
g3
S'bbbb::12:4b00:60d:85d2'
p426
sg5
F1441354730.096997
sg6
(dp427
I0
(I7489
I7486
I-28
I241
tp428
sI1
(I7495
I7486
I-28
I242
tp429
sI2
(I7487
I7479
I-28
I242
tp430
sI3
(I7492
I7485
I-28
I242
tp431
sI4
(I7498
I7497
I-29
I242
tp432
sI5
(I7492
I7491
I-30
I241
tp433
sI6
(I7486
I7484
I-30
I242
tp434
sI7
(I7488
I7486
I-30
I242
tp435
ssba(iSample
Sample
p436
(dp437
g3
S'bbbb::12:4b00:60d:85d2'
p438
sg5
F1441354732.122606
sg6
(dp439
I8
(I7488
I7487
I-30
I242
tp440
sI9
(I7492
I7491
I-30
I242
tp441
sI10
(I7500
I7499
I-30
I242
tp442
sI11
(I7493
I7493
I-24
I225
tp443
sI12
(I7493
I7492
I-31
I242
tp444
sI13
(I7503
I7500
I-31
I242
tp445
sI14
(I7509
I7508
I-32
I241
tp446
sI15
(I7499
I7498
I-31
I242
tp447
ssba(iSample
Sample
p448
(dp449
g3
S'bbbb::12:4b00:60d:85d2'
p450
sg5
F1441354734.148286
sg6
(dp451
I0
(I7500
I7497
I-28
I242
tp452
sI1
(I7506
I7497
I-28
I241
tp453
sI2
(I7498
I7490
I-28
I242
tp454
sI3
(I7503
I7496
I-28
I242
tp455
sI4
(I7510
I7509
I-29
I242
tp456
sI5
(I7503
I7502
I-29
I242
tp457
sI6
(I7497
I7495
I-30
I242
tp458
sI7
(I7499
I7497
I-30
I241
tp459
ssba(iSample
Sample
p460
(dp461
g3
S'bbbb::12:4b00:60d:85d2'
p462
sg5
F1441354736.173974
sg6
(dp463
I8
(I7499
I7498
I-30
I241
tp464
sI9
(I7504
I7503
I-30
I241
tp465
sI10
(I7512
I7511
I-30
I242
tp466
sI11
(I7504
I7504
I-31
I242
tp467
sI12
(I7505
I7504
I-24
I224
tp468
sI13
(I7515
I7512
I-31
I242
tp469
sI14
(I7520
I7519
I-32
I241
tp470
sI15
(I7509
I7508
I-32
I242
tp471
ssba(iSample
Sample
p472
(dp473
g3
S'bbbb::12:4b00:60d:85d2'
p474
sg5
F1441354738.199853
sg6
(dp475
I0
(I7511
I7508
I-29
I242
tp476
sI1
(I7517
I7508
I-29
I242
tp477
sI2
(I7508
I7500
I-29
I242
tp478
sI3
(I7514
I7507
I-29
I242
tp479
sI4
(I7523
I7522
I-30
I242
tp480
sI5
(I7514
I7513
I-30
I241
tp481
sI6
(I7508
I7506
I-30
I241
tp482
sI7
(I7511
I7509
I-30
I242
tp483
ssba(iSample
Sample
p484
(dp485
g3
S'bbbb::12:4b00:60d:85d2'
p486
sg5
F1441354740.226419
sg6
(dp487
I8
(I7510
I7509
I-30
I242
tp488
sI9
(I7515
I7514
I-30
I241
tp489
sI10
(I7523
I7522
I-31
I242
tp490
sI11
(I7515
I7515
I-31
I242
tp491
sI12
(I7515
I7514
I-32
I242
tp492
sI13
(I7527
I7524
I-32
I242
tp493
sI14
(I7532
I7531
I-25
I224
tp494
sI15
(I7521
I7520
I-32
I242
tp495
ssba(iSample
Sample
p496
(dp497
g3
S'bbbb::12:4b00:60d:85d2'
p498
sg5
F1441354742.250976
sg6
(dp499
I0
(I7521
I7518
I-29
I241
tp500
sI1
(I7529
I7520
I-29
I242
tp501
sI2
(I7520
I7512
I-29
I242
tp502
sI3
(I7525
I7518
I-29
I242
tp503
sI4
(I7534
I7533
I-30
I241
tp504
sI5
(I7525
I7524
I-30
I242
tp505
sI6
(I7520
I7518
I-30
I242
tp506
sI7
(I7523
I7521
I-30
I242
tp507
ssba(iSample
Sample
p508
(dp509
g3
S'bbbb::12:4b00:60d:85d2'
p510
sg5
F1441354744.143676
sg6
(dp511
I8
(I7522
I7521
I-30
I242
tp512
sI9
(I7525
I7524
I-30
I242
tp513
sI10
(I7534
I7533
I-31
I242
tp514
sI11
(I7526
I7526
I-31
I242
tp515
sI12
(I7527
I7526
I-32
I242
tp516
sI13
(I7538
I7534
I-32
I242
tp517
sI14
(I7543
I7542
I-32
I242
tp518
sI15
(I7532
I7531
I-32
I242
tp519
ssba(iSample
Sample
p520
(dp521
g3
S'bbbb::12:4b00:60d:85d2'
p522
sg5
F1441354746.168506
sg6
(dp523
I0
(I7533
I7530
I-29
I242
tp524
sI1
(I7540
I7531
I-28
I240
tp525
sI2
(I7531
I7523
I-29
I242
tp526
sI3
(I7536
I7529
I-29
I241
tp527
sI4
(I7545
I7544
I-23
I222
tp528
sI5
(I7536
I7535
I-30
I239
tp529
sI6
(I7532
I7530
I-30
I240
tp530
sI7
(I7533
I7531
I-30
I242
tp531
ssba(iSample
Sample
p532
(dp533
g3
S'bbbb::12:4b00:60d:85d2'
p534
sg5
F1441354748.194589
sg6
(dp535
I8
(I7534
I7533
I-30
I242
tp536
sI9
(I7537
I7536
I-23
I223
tp537
sI10
(I7546
I7545
I-30
I242
tp538
sI11
(I7537
I7537
I-31
I240
tp539
sI12
(I7538
I7537
I-32
I242
tp540
sI13
(I7548
I7544
I-32
I242
tp541
sI14
(I7555
I7554
I-32
I242
tp542
sI15
(I7544
I7543
I-25
I224
tp543
ssba(iSample
Sample
p544
(dp545
g3
S'bbbb::12:4b00:60d:85d2'
p546
sg5
F1441354750.220757
sg6
(dp547
I0
(I7544
I7541
I-28
I242
tp548
sI1
(I7551
I7542
I-27
I242
tp549
sI2
(I7542
I7534
I-28
I242
tp550
sI3
(I7548
I7541
I-28
I241
tp551
sI4
(I7556
I7555
I-29
I242
tp552
sI5
(I7547
I7546
I-29
I241
tp553
sI6
(I7542
I7540
I-30
I241
tp554
sI7
(I7544
I7542
I-30
I242
tp555
ssba(iSample
Sample
p556
(dp557
g3
S'bbbb::12:4b00:60d:85d2'
p558
sg5
F1441354752.246369
sg6
(dp559
I8
(I7544
I7543
I-30
I241
tp560
sI9
(I7549
I7548
I-30
I241
tp561
sI10
(I7557
I7556
I-31
I242
tp562
sI11
(I7548
I7548
I-31
I241
tp563
sI12
(I7549
I7548
I-31
I242
tp564
sI13
(I7559
I7555
I-31
I242
tp565
sI14
(I7566
I7565
I-31
I242
tp566
sI15
(I7556
I7555
I-32
I241
tp567
ssba(iSample
Sample
p568
(dp569
g3
S'bbbb::12:4b00:60d:85d2'
p570
sg5
F1441354754.27213
sg6
(dp571
I0
(I7555
I7552
I-27
I241
tp572
sI1
(I7562
I7553
I-27
I242
tp573
sI2
(I7554
I7546
I-27
I242
tp574
sI3
(I7559
I7552
I-28
I242
tp575
sI4
(I7568
I7567
I-29
I242
tp576
sI5
(I7558
I7557
I-30
I242
tp577
sI6
(I7553
I7551
I-30
I241
tp578
sI7
(I7556
I7554
I-23
I223
tp579
ssba(iSample
Sample
p580
(dp581
g3
S'bbbb::12:4b00:60d:85d2'
p582
sg5
F1441354756.296809
sg6
(dp583
I8
(I7555
I7554
I-30
I242
tp584
sI9
(I7560
I7559
I-30
I242
tp585
sI10
(I7568
I7567
I-31
I242
tp586
sI11
(I7559
I7559
I-31
I242
tp587
sI12
(I7561
I7560
I-31
I242
tp588
sI13
(I7571
I7567
I-30
I242
tp589
sI14
(I7577
I7576
I-31
I242
tp590
sI15
(I7567
I7566
I-31
I242
tp591
ssba(iSample
Sample
p592
(dp593
g3
S'bbbb::12:4b00:60d:85d2'
p594
sg5
F1441354758.323387
sg6
(dp595
I0
(I7567
I7564
I-27
I242
tp596
sI1
(I7574
I7565
I-21
I224
tp597
sI2
(I7565
I7557
I-27
I242
tp598
sI3
(I7570
I7563
I-28
I242
tp599
sI4
(I7579
I7578
I-29
I242
tp600
sI5
(I7570
I7569
I-30
I242
tp601
sI6
(I7564
I7562
I-30
I242
tp602
sI7
(I7568
I7566
I-30
I242
tp603
ssba.