(lp0
(iSample
Sample
p1
(dp2
S'moteIp'
p3
S'85d2'
p4
sS'timeStamp'
p5
F1441353803.781594
sS'moteData'
p6
(dp7
I8
(I4893
I4893
I-25
I238
tp8
sI9
(I4894
I4894
I-26
I242
tp9
sI10
(I4900
I4899
I-26
I242
tp10
sI11
(I4903
I4903
I-25
I239
tp11
sI12
(I4898
I4898
I-26
I242
tp12
sI13
(I4908
I4906
I-26
I241
tp13
sI14
(I4908
I4908
I-24
I235
tp14
sI15
(I4899
I4898
I-27
I241
tp15
ssba(iSample
Sample
p16
(dp17
g3
S'85d2'
p18
sg5
F1441353805.807978
sg6
(dp19
I0
(I4904
I4901
I-27
I241
tp20
sI1
(I4902
I4895
I-27
I242
tp21
sI2
(I4899
I4893
I-27
I242
tp22
sI3
(I4911
I4908
I-26
I239
tp23
sI4
(I4909
I4908
I-26
I239
tp24
sI5
(I4908
I4907
I-25
I238
tp25
sI6
(I4906
I4904
I-27
I242
tp26
sI7
(I4907
I4906
I-25
I238
tp27
ssba(iSample
Sample
p28
(dp29
g3
S'85d2'
p30
sg5
F1441353807.832987
sg6
(dp31
I8
(I4904
I4904
I-26
I242
tp32
sI9
(I4905
I4905
I-26
I242
tp33
sI10
(I4911
I4910
I-26
I242
tp34
sI11
(I4914
I4914
I-26
I242
tp35
sI12
(I4910
I4910
I-26
I242
tp36
sI13
(I4919
I4917
I-26
I242
tp37
sI14
(I4919
I4919
I-26
I242
tp38
sI15
(I4911
I4910
I-26
I242
tp39
ssba(iSample
Sample
p40
(dp41
g3
S'85d2'
p42
sg5
F1441353809.857971
sg6
(dp43
I0
(I4916
I4913
I-26
I241
tp44
sI1
(I4913
I4906
I-26
I242
tp45
sI2
(I4912
I4906
I-26
I242
tp46
sI3
(I4922
I4919
I-26
I241
tp47
sI4
(I4920
I4919
I-26
I242
tp48
sI5
(I4919
I4918
I-26
I242
tp49
sI6
(I4916
I4914
I-26
I242
tp50
sI7
(I4918
I4917
I-26
I241
tp51
ssba(iSample
Sample
p52
(dp53
g3
S'85d2'
p54
sg5
F1441353811.884096
sg6
(dp55
I8
(I4914
I4914
I-26
I242
tp56
sI9
(I4917
I4917
I-19
I224
tp57
sI10
(I4922
I4921
I-26
I242
tp58
sI11
(I4925
I4925
I-26
I242
tp59
sI12
(I4922
I4922
I-26
I242
tp60
sI13
(I4930
I4928
I-26
I242
tp61
sI14
(I4930
I4930
I-27
I242
tp62
sI15
(I4922
I4921
I-27
I242
tp63
ssba(iSample
Sample
p64
(dp65
g3
S'85d2'
p66
sg5
F1441353813.910733
sg6
(dp67
I0
(I4928
I4925
I-25
I242
tp68
sI1
(I4925
I4918
I-25
I242
tp69
sI2
(I4923
I4917
I-25
I242
tp70
sI3
(I4932
I4929
I-25
I242
tp71
sI4
(I4931
I4930
I-25
I242
tp72
sI5
(I4931
I4930
I-25
I242
tp73
sI6
(I4928
I4926
I-25
I242
tp74
sI7
(I4929
I4928
I-26
I242
tp75
ssba(iSample
Sample
p76
(dp77
g3
S'85d2'
p78
sg5
F1441353815.801308
sg6
(dp79
I8
(I4926
I4926
I-25
I242
tp80
sI9
(I4929
I4929
I-25
I242
tp81
sI10
(I4933
I4932
I-25
I242
tp82
sI11
(I4937
I4937
I-25
I242
tp83
sI12
(I4934
I4934
I-19
I224
tp84
sI13
(I4941
I4939
I-26
I241
tp85
sI14
(I4940
I4940
I-26
I242
tp86
sI15
(I4932
I4931
I-26
I241
tp87
ssba(iSample
Sample
p88
(dp89
g3
S'85d2'
p90
sg5
F1441353817.827548
sg6
(dp91
I0
(I4938
I4935
I-25
I242
tp92
sI1
(I4935
I4928
I-25
I242
tp93
sI2
(I4934
I4928
I-18
I222
tp94
sI3
(I4943
I4940
I-24
I241
tp95
sI4
(I4943
I4942
I-24
I242
tp96
sI5
(I4942
I4941
I-24
I242
tp97
sI6
(I4939
I4937
I-25
I242
tp98
sI7
(I4940
I4939
I-25
I242
tp99
ssba(iSample
Sample
p100
(dp101
g3
S'85d2'
p102
sg5
F1441353819.852462
sg6
(dp103
I8
(I4937
I4937
I-25
I242
tp104
sI9
(I4941
I4941
I-25
I242
tp105
sI10
(I4945
I4944
I-26
I242
tp106
sI11
(I4948
I4948
I-26
I242
tp107
sI12
(I4944
I4944
I-26
I242
tp108
sI13
(I4953
I4951
I-26
I242
tp109
sI14
(I4952
I4952
I-26
I242
tp110
sI15
(I4943
I4942
I-26
I241
tp111
ssba(iSample
Sample
p112
(dp113
g3
S'85d2'
p114
sg5
F1441353821.877845
sg6
(dp115
I0
(I4949
I4946
I-26
I241
tp116
sI1
(I4948
I4941
I-20
I225
tp117
sI2
(I4945
I4939
I-26
I242
tp118
sI3
(I4955
I4952
I-27
I242
tp119
sI4
(I4955
I4954
I-26
I242
tp120
sI5
(I4953
I4952
I-26
I242
tp121
sI6
(I4950
I4948
I-26
I241
tp122
sI7
(I4952
I4951
I-26
I240
tp123
ssba(iSample
Sample
p124
(dp125
g3
S'85d2'
p126
sg5
F1441353823.904496
sg6
(dp127
I8
(I4948
I4948
I-27
I242
tp128
sI9
(I4952
I4952
I-20
I222
tp129
sI10
(I4955
I4954
I-27
I242
tp130
sI11
(I4959
I4959
I-27
I242
tp131
sI12
(I4955
I4955
I-27
I242
tp132
sI13
(I4964
I4962
I-28
I242
tp133
sI14
(I4963
I4963
I-28
I242
tp134
sI15
(I4955
I4954
I-28
I240
tp135
ssba(iSample
Sample
p136
(dp137
g3
S'85d2'
p138
sg5
F1441353825.929901
sg6
(dp139
I0
(I4960
I4957
I-27
I242
tp140
sI1
(I4960
I4953
I-27
I242
tp141
sI2
(I4958
I4952
I-21
I225
tp142
sI3
(I4966
I4963
I-26
I242
tp143
sI4
(I4965
I4964
I-27
I242
tp144
sI5
(I4964
I4963
I-27
I242
tp145
sI6
(I4962
I4960
I-27
I242
tp146
sI7
(I4963
I4962
I-27
I242
tp147
ssba(iSample
Sample
p148
(dp149
g3
S'85d2'
p150
sg5
F1441353827.955915
sg6
(dp151
I8
(I4960
I4960
I-28
I241
tp152
sI9
(I4963
I4963
I-28
I241
tp153
sI10
(I4967
I4966
I-28
I242
tp154
sI11
(I4970
I4970
I-28
I241
tp155
sI12
(I4967
I4967
I-28
I242
tp156
sI13
(I4975
I4973
I-29
I242
tp157
sI14
(I4974
I4974
I-29
I240
tp158
sI15
(I4966
I4965
I-29
I242
tp159
ssba(iSample
Sample
p160
(dp161
g3
S'85d2'
p162
sg5
F1441353829.981265
sg6
(dp163
I0
(I4972
I4969
I-30
I242
tp164
sI1
(I4971
I4964
I-29
I241
tp165
sI2
(I4969
I4963
I-29
I242
tp166
sI3
(I4977
I4974
I-29
I240
tp167
sI4
(I4976
I4975
I-29
I242
tp168
sI5
(I4975
I4974
I-29
I241
tp169
sI6
(I4973
I4971
I-29
I242
tp170
sI7
(I4974
I4973
I-29
I242
tp171
ssba(iSample
Sample
p172
(dp173
g3
S'85d2'
p174
sg5
F1441353832.006761
sg6
(dp175
I8
(I4971
I4971
I-28
I241
tp176
sI9
(I4974
I4974
I-28
I241
tp177
sI10
(I4979
I4978
I-28
I241
tp178
sI11
(I4981
I4981
I-28
I242
tp179
sI12
(I4978
I4978
I-28
I242
tp180
sI13
(I4986
I4984
I-28
I242
tp181
sI14
(I4986
I4986
I-28
I242
tp182
sI15
(I4977
I4976
I-29
I242
tp183
ssba(iSample
Sample
p184
(dp185
g3
S'85d2'
p186
sg5
F1441353834.032306
sg6
(dp187
I0
(I4983
I4980
I-26
I242
tp188
sI1
(I4983
I4976
I-20
I224
tp189
sI2
(I4980
I4974
I-26
I241
tp190
sI3
(I4989
I4986
I-26
I242
tp191
sI4
(I4987
I4986
I-26
I242
tp192
sI5
(I4986
I4985
I-26
I242
tp193
sI6
(I4985
I4983
I-20
I224
tp194
sI7
(I4985
I4984
I-26
I242
tp195
ssba(iSample
Sample
p196
(dp197
g3
S'85d2'
p198
sg5
F1441353836.058476
sg6
(dp199
I8
(I4982
I4982
I-26
I242
tp200
sI9
(I4986
I4986
I-26
I241
tp201
sI10
(I4990
I4989
I-26
I242
tp202
sI11
(I4992
I4992
I-26
I242
tp203
sI12
(I4990
I4990
I-20
I224
tp204
sI13
(I4997
I4995
I-26
I242
tp205
sI14
(I4998
I4998
I-26
I241
tp206
sI15
(I4989
I4988
I-26
I242
tp207
ssba(iSample
Sample
p208
(dp209
g3
S'85d2'
p210
sg5
F1441353838.085171
sg6
(dp211
I0
(I4994
I4991
I-26
I241
tp212
sI1
(I4993
I4986
I-26
I241
tp213
sI2
(I4992
I4986
I-25
I242
tp214
sI3
(I5000
I4997
I-25
I240
tp215
sI4
(I4999
I4998
I-25
I240
tp216
sI5
(I4997
I4996
I-25
I241
tp217
sI6
(I4996
I4994
I-25
I242
tp218
sI7
(I4996
I4995
I-26
I242
tp219
ssba(iSample
Sample
p220
(dp221
g3
S'85d2'
p222
sg5
F1441353839.975773
sg6
(dp223
I8
(I4993
I4993
I-25
I242
tp224
sI9
(I4996
I4996
I-25
I242
tp225
sI10
(I5000
I4999
I-25
I242
tp226
sI11
(I5003
I5003
I-26
I242
tp227
sI12
(I5002
I5002
I-26
I242
tp228
sI13
(I5009
I5007
I-26
I242
tp229
sI14
(I5009
I5009
I-26
I241
tp230
sI15
(I5000
I4999
I-26
I241
tp231
ssba(iSample
Sample
p232
(dp233
g3
S'85d2'
p234
sg5
F1441353842.001349
sg6
(dp235
I0
(I5006
I5003
I-26
I242
tp236
sI1
(I5005
I4998
I-25
I242
tp237
sI2
(I5003
I4997
I-25
I242
tp238
sI3
(I5011
I5008
I-25
I242
tp239
sI4
(I5009
I5008
I-25
I242
tp240
sI5
(I5009
I5008
I-25
I242
tp241
sI6
(I5007
I5005
I-25
I242
tp242
sI7
(I5008
I5007
I-25
I242
tp243
ssba(iSample
Sample
p244
(dp245
g3
S'85d2'
p246
sg5
F1441353844.026317
sg6
(dp247
I8
(I5004
I5004
I-25
I242
tp248
sI9
(I5008
I5008
I-25
I242
tp249
sI10
(I5012
I5011
I-19
I224
tp250
sI11
(I5015
I5015
I-25
I242
tp251
sI12
(I5013
I5013
I-25
I242
tp252
sI13
(I5019
I5017
I-26
I242
tp253
sI14
(I5021
I5021
I-20
I224
tp254
sI15
(I5011
I5010
I-26
I241
tp255
ssba(iSample
Sample
p256
(dp257
g3
S'85d2'
p258
sg5
F1441353846.052248
sg6
(dp259
I0
(I5017
I5014
I-26
I240
tp260
sI1
(I5016
I5009
I-26
I242
tp261
sI2
(I5014
I5008
I-26
I241
tp262
sI3
(I5022
I5019
I-26
I240
tp263
sI4
(I5021
I5020
I-26
I241
tp264
sI5
(I5021
I5020
I-26
I242
tp265
sI6
(I5018
I5016
I-26
I241
tp266
sI7
(I5018
I5017
I-26
I242
tp267
ssba(iSample
Sample
p268
(dp269
g3
S'85d2'
p270
sg5
F1441353848.077778
sg6
(dp271
I8
(I5015
I5015
I-28
I242
tp272
sI9
(I5021
I5021
I-22
I225
tp273
sI10
(I5024
I5023
I-28
I241
tp274
sI11
(I5026
I5026
I-29
I242
tp275
sI12
(I5024
I5024
I-29
I241
tp276
sI13
(I5031
I5029
I-29
I242
tp277
sI14
(I5032
I5032
I-29
I242
tp278
sI15
(I5022
I5021
I-29
I242
tp279
ssba(iSample
Sample
p280
(dp281
g3
S'85d2'
p282
sg5
F1441353850.104131
sg6
(dp283
I0
(I5028
I5025
I-27
I242
tp284
sI1
(I5027
I5020
I-27
I242
tp285
sI2
(I5025
I5019
I-27
I242
tp286
sI3
(I5033
I5030
I-27
I241
tp287
sI4
(I5033
I5032
I-27
I241
tp288
sI5
(I5031
I5030
I-27
I242
tp289
sI6
(I5029
I5027
I-28
I242
tp290
sI7
(I5030
I5029
I-28
I242
tp291
ssba(iSample
Sample
p292
(dp293
g3
S'85d2'
p294
sg5
F1441353852.129827
sg6
(dp295
I8
(I5026
I5026
I-28
I242
tp296
sI9
(I5032
I5032
I-28
I240
tp297
sI10
(I5035
I5034
I-29
I242
tp298
sI11
(I5037
I5037
I-29
I242
tp299
sI12
(I5035
I5035
I-29
I242
tp300
sI13
(I5043
I5041
I-29
I242
tp301
sI14
(I5043
I5043
I-29
I242
tp302
sI15
(I5033
I5032
I-29
I242
tp303
ssba(iSample
Sample
p304
(dp305
g3
S'85d2'
p306
sg5
F1441353854.156109
sg6
(dp307
I0
(I5039
I5036
I-27
I242
tp308
sI1
(I5039
I5032
I-26
I242
tp309
sI2
(I5036
I5030
I-26
I242
tp310
sI3
(I5045
I5042
I-20
I224
tp311
sI4
(I5044
I5043
I-27
I241
tp312
sI5
(I5042
I5041
I-27
I242
tp313
sI6
(I5041
I5039
I-27
I240
tp314
sI7
(I5042
I5041
I-27
I242
tp315
ssba(iSample
Sample
p316
(dp317
g3
S'85d2'
p318
sg5
F1441353856.181846
sg6
(dp319
I8
(I5038
I5038
I-26
I241
tp320
sI9
(I5043
I5043
I-26
I241
tp321
sI10
(I5046
I5045
I-27
I241
tp322
sI11
(I5048
I5048
I-27
I242
tp323
sI12
(I5047
I5047
I-20
I224
tp324
sI13
(I5054
I5052
I-27
I242
tp325
sI14
(I5054
I5054
I-28
I242
tp326
sI15
(I5044
I5043
I-28
I242
tp327
ssba(iSample
Sample
p328
(dp329
g3
S'85d2'
p330
sg5
F1441353858.206923
sg6
(dp331
I0
(I5050
I5047
I-25
I242
tp332
sI1
(I5050
I5043
I-25
I242
tp333
sI2
(I5047
I5041
I-25
I242
tp334
sI3
(I5056
I5053
I-25
I242
tp335
sI4
(I5055
I5054
I-25
I242
tp336
sI5
(I5053
I5052
I-25
I242
tp337
sI6
(I5054
I5052
I-25
I242
tp338
sI7
(I5053
I5052
I-25
I242
tp339
ssba(iSample
Sample
p340
(dp341
g3
S'85d2'
p342
sg5
F1441353860.233789
sg6
(dp343
I8
(I5050
I5050
I-25
I242
tp344
sI9
(I5054
I5054
I-18
I222
tp345
sI10
(I5058
I5057
I-25
I242
tp346
sI11
(I5059
I5059
I-25
I241
tp347
sI12
(I5058
I5058
I-25
I240
tp348
sI13
(I5064
I5062
I-26
I242
tp349
sI14
(I5066
I5066
I-26
I242
tp350
sI15
(I5055
I5054
I-26
I242
tp351
ssba(iSample
Sample
p352
(dp353
g3
S'85d2'
p354
sg5
F1441353862.258596
sg6
(dp355
I0
(I5062
I5059
I-19
I223
tp356
sI1
(I5061
I5054
I-26
I242
tp357
sI2
(I5058
I5052
I-25
I242
tp358
sI3
(I5068
I5065
I-26
I242
tp359
sI4
(I5065
I5064
I-25
I242
tp360
sI5
(I5065
I5064
I-25
I242
tp361
sI6
(I5065
I5063
I-26
I242
tp362
sI7
(I5063
I5062
I-26
I242
tp363
ssba(iSample
Sample
p364
(dp365
g3
S'85d2'
p366
sg5
F1441353864.149859
sg6
(dp367
I8
(I5061
I5061
I-26
I242
tp368
sI9
(I5067
I5067
I-20
I225
tp369
sI10
(I5069
I5068
I-27
I242
tp370
sI11
(I5071
I5071
I-26
I242
tp371
sI12
(I5069
I5069
I-27
I242
tp372
sI13
(I5075
I5073
I-27
I242
tp373
sI14
(I5078
I5078
I-28
I242
tp374
sI15
(I5067
I5066
I-27
I241
tp375
ssba(iSample
Sample
p376
(dp377
g3
S'85d2'
p378
sg5
F1441353866.175534
sg6
(dp379
I0
(I5073
I5070
I-26
I242
tp380
sI1
(I5072
I5065
I-26
I242
tp381
sI2
(I5070
I5064
I-26
I241
tp382
sI3
(I5080
I5077
I-26
I242
tp383
sI4
(I5077
I5076
I-26
I242
tp384
sI5
(I5075
I5074
I-26
I241
tp385
sI6
(I5075
I5073
I-26
I241
tp386
sI7
(I5074
I5073
I-26
I242
tp387
ssba(iSample
Sample
p388
(dp389
g3
S'85d2'
p390
sg5
F1441353868.200932
sg6
(dp391
I8
(I5071
I5071
I-26
I241
tp392
sI9
(I5078
I5078
I-26
I242
tp393
sI10
(I5080
I5079
I-27
I242
tp394
sI11
(I5081
I5081
I-27
I241
tp395
sI12
(I5081
I5081
I-27
I242
tp396
sI13
(I5087
I5085
I-28
I242
tp397
sI14
(I5088
I5088
I-28
I242
tp398
sI15
(I5079
I5078
I-28
I242
tp399
ssba(iSample
Sample
p400
(dp401
g3
S'85d2'
p402
sg5
F1441353870.22583
sg6
(dp403
I0
(I5085
I5082
I-26
I241
tp404
sI1
(I5083
I5076
I-26
I241
tp405
sI2
(I5082
I5076
I-26
I242
tp406
sI3
(I5090
I5087
I-27
I242
tp407
sI4
(I5088
I5087
I-27
I242
tp408
sI5
(I5087
I5086
I-27
I242
tp409
sI6
(I5087
I5085
I-20
I224
tp410
sI7
(I5086
I5085
I-27
I242
tp411
ssba(iSample
Sample
p412
(dp413
g3
S'85d2'
p414
sg5
F1441353872.252627
sg6
(dp415
I8
(I5082
I5082
I-27
I242
tp416
sI9
(I5089
I5089
I-27
I242
tp417
sI10
(I5091
I5090
I-27
I242
tp418
sI11
(I5094
I5094
I-21
I225
tp419
sI12
(I5092
I5092
I-27
I242
tp420
sI13
(I5098
I5096
I-28
I241
tp421
sI14
(I5099
I5099
I-28
I242
tp422
sI15
(I5089
I5088
I-28
I242
tp423
ssba(iSample
Sample
p424
(dp425
g3
S'85d2'
p426
sg5
F1441353874.278106
sg6
(dp427
I0
(I5096
I5093
I-26
I242
tp428
sI1
(I5095
I5088
I-20
I224
tp429
sI2
(I5092
I5086
I-27
I242
tp430
sI3
(I5101
I5098
I-27
I241
tp431
sI4
(I5099
I5098
I-28
I242
tp432
sI5
(I5099
I5098
I-27
I242
tp433
sI6
(I5099
I5097
I-27
I242
tp434
sI7
(I5097
I5096
I-27
I242
tp435
ssba(iSample
Sample
p436
(dp437
g3
S'85d2'
p438
sg5
F1441353876.303971
sg6
(dp439
I8
(I5094
I5094
I-27
I242
tp440
sI9
(I5101
I5101
I-27
I242
tp441
sI10
(I5102
I5101
I-27
I242
tp442
sI11
(I5106
I5106
I-27
I241
tp443
sI12
(I5103
I5103
I-27
I242
tp444
sI13
(I5109
I5107
I-28
I240
tp445
sI14
(I5110
I5110
I-28
I242
tp446
sI15
(I5100
I5099
I-28
I242
tp447
ssba(iSample
Sample
p448
(dp449
g3
S'85d2'
p450
sg5
F1441353878.329696
sg6
(dp451
I0
(I5107
I5104
I-27
I242
tp452
sI1
(I5106
I5099
I-27
I242
tp453
sI2
(I5103
I5097
I-27
I242
tp454
sI3
(I5112
I5109
I-28
I242
tp455
sI4
(I5111
I5110
I-28
I242
tp456
sI5
(I5110
I5109
I-28
I242
tp457
sI6
(I5110
I5108
I-27
I242
tp458
sI7
(I5108
I5107
I-27
I242
tp459
ssba(iSample
Sample
p460
(dp461
g3
S'85d2'
p462
sg5
F1441353880.355397
sg6
(dp463
I8
(I5105
I5105
I-27
I240
tp464
sI9
(I5112
I5112
I-27
I242
tp465
sI10
(I5113
I5112
I-27
I241
tp466
sI11
(I5117
I5117
I-27
I241
tp467
sI12
(I5114
I5114
I-27
I242
tp468
sI13
(I5121
I5119
I-28
I242
tp469
sI14
(I5123
I5122
I-21
I223
tp470
sI15
(I5111
I5110
I-28
I242
tp471
ssba(iSample
Sample
p472
(dp473
g3
S'85d2'
p474
sg5
F1441353882.382201
sg6
(dp475
I0
(I5118
I5115
I-27
I242
tp476
sI1
(I5118
I5111
I-27
I242
tp477
sI2
(I5114
I5108
I-27
I241
tp478
sI3
(I5124
I5121
I-28
I241
tp479
sI4
(I5122
I5121
I-28
I242
tp480
sI5
(I5121
I5120
I-28
I241
tp481
sI6
(I5121
I5119
I-27
I242
tp482
sI7
(I5120
I5119
I-27
I242
tp483
ssba(iSample
Sample
p484
(dp485
g3
S'85d2'
p486
sg5
F1441353884.406846
sg6
(dp487
I8
(I5116
I5116
I-27
I242
tp488
sI9
(I5124
I5124
I-20
I224
tp489
sI10
(I5124
I5123
I-27
I240
tp490
sI11
(I5127
I5127
I-27
I241
tp491
sI12
(I5125
I5125
I-27
I242
tp492
sI13
(I5133
I5131
I-28
I241
tp493
sI14
(I5135
I5134
I-21
I224
tp494
sI15
(I5123
I5122
I-28
I242
tp495
ssba(iSample
Sample
p496
(dp497
g3
S'85d2'
p498
sg5
F1441353886.433435
sg6
(dp499
I0
(I5129
I5126
I-27
I242
tp500
sI1
(I5130
I5123
I-27
I242
tp501
sI2
(I5126
I5120
I-27
I242
tp502
sI3
(I5135
I5132
I-28
I242
tp503
sI4
(I5133
I5132
I-28
I242
tp504
sI5
(I5131
I5130
I-28
I241
tp505
sI6
(I5133
I5131
I-27
I241
tp506
sI7
(I5131
I5130
I-27
I241
tp507
ssba(iSample
Sample
p508
(dp509
g3
S'85d2'
p510
sg5
F1441353888.323956
sg6
(dp511
I8
(I5128
I5128
I-27
I242
tp512
sI9
(I5135
I5135
I-27
I242
tp513
sI10
(I5136
I5135
I-27
I242
tp514
sI11
(I5138
I5138
I-27
I242
tp515
sI12
(I5137
I5137
I-27
I242
tp516
sI13
(I5144
I5142
I-28
I241
tp517
sI14
(I5146
I5145
I-28
I241
tp518
sI15
(I5133
I5132
I-27
I242
tp519
ssba(iSample
Sample
p520
(dp521
g3
S'85d2'
p522
sg5
F1441353890.349892
sg6
(dp523
I0
(I5141
I5138
I-27
I241
tp524
sI1
(I5140
I5133
I-27
I242
tp525
sI2
(I5136
I5130
I-27
I242
tp526
sI3
(I5147
I5144
I-21
I223
tp527
sI4
(I5144
I5143
I-28
I242
tp528
sI5
(I5143
I5142
I-28
I242
tp529
sI6
(I5144
I5142
I-27
I242
tp530
sI7
(I5142
I5141
I-27
I242
tp531
ssba(iSample
Sample
p532
(dp533
g3
S'85d2'
p534
sg5
F1441353892.374224
sg6
(dp535
I8
(I5139
I5139
I-27
I242
tp536
sI9
(I5146
I5146
I-27
I242
tp537
sI10
(I5148
I5147
I-27
I242
tp538
sI11
(I5150
I5150
I-27
I242
tp539
sI12
(I5147
I5147
I-27
I242
tp540
sI13
(I5155
I5153
I-28
I240
tp541
sI14
(I5158
I5157
I-28
I242
tp542
sI15
(I5145
I5144
I-27
I240
tp543
ssba(iSample
Sample
p544
(dp545
g3
S'85d2'
p546
sg5
F1441353894.401567
sg6
(dp547
I0
(I5151
I5148
I-27
I242
tp548
sI1
(I5152
I5145
I-20
I224
tp549
sI2
(I5148
I5142
I-27
I240
tp550
sI3
(I5159
I5156
I-28
I242
tp551
sI4
(I5155
I5154
I-28
I242
tp552
sI5
(I5154
I5153
I-28
I241
tp553
sI6
(I5155
I5153
I-27
I242
tp554
sI7
(I5153
I5152
I-27
I241
tp555
ssba(iSample
Sample
p556
(dp557
g3
S'85d2'
p558
sg5
F1441353896.426644
sg6
(dp559
I8
(I5150
I5150
I-27
I241
tp560
sI9
(I5157
I5157
I-27
I242
tp561
sI10
(I5158
I5157
I-27
I242
tp562
sI11
(I5161
I5161
I-27
I242
tp563
sI12
(I5160
I5160
I-21
I225
tp564
sI13
(I5166
I5164
I-28
I242
tp565
sI14
(I5169
I5168
I-28
I242
tp566
sI15
(I5157
I5156
I-28
I242
tp567
ssba(iSample
Sample
p568
(dp569
g3
S'85d2'
p570
sg5
F1441353898.453343
sg6
(dp571
I0
(I5163
I5160
I-27
I242
tp572
sI1
(I5163
I5156
I-27
I242
tp573
sI2
(I5160
I5154
I-27
I242
tp574
sI3
(I5170
I5167
I-27
I242
tp575
sI4
(I5167
I5166
I-21
I222
tp576
sI5
(I5165
I5164
I-27
I241
tp577
sI6
(I5166
I5164
I-28
I242
tp578
sI7
(I5164
I5163
I-28
I242
tp579
ssba(iSample
Sample
p580
(dp581
g3
S'85d2'
p582
sg5
F1441353900.478939
sg6
(dp583
I8
(I5161
I5161
I-27
I241
tp584
sI9
(I5168
I5168
I-28
I241
tp585
sI10
(I5169
I5168
I-28
I242
tp586
sI11
(I5172
I5172
I-28
I242
tp587
sI12
(I5172
I5172
I-28
I242
tp588
sI13
(I5177
I5175
I-29
I242
tp589
sI14
(I5180
I5179
I-29
I242
tp590
sI15
(I5168
I5167
I-29
I241
tp591
ssba(iSample
Sample
p592
(dp593
g3
S'85d2'
p594
sg5
F1441353902.50459
sg6
(dp595
I0
(I5175
I5172
I-26
I242
tp596
sI1
(I5175
I5168
I-26
I242
tp597
sI2
(I5171
I5165
I-26
I242
tp598
sI3
(I5181
I5178
I-27
I242
tp599
sI4
(I5178
I5177
I-27
I242
tp600
sI5
(I5177
I5176
I-27
I242
tp601
sI6
(I5177
I5175
I-28
I242
tp602
sI7
(I5175
I5174
I-27
I240
tp603
ssba.