(dp0
(S'8054'
p1
I3
tp2
(lp3
(I47
I46
tp4
a(I91
I90
tp5
a(I134
I133
tp6
a(I178
I177
tp7
a(I431
I428
tp8
a(I474
I471
tp9
a(I517
I513
tp10
a(I560
I556
tp11
a(I605
I601
tp12
a(I648
I644
tp13
a(I693
I689
tp14
a(I737
I733
tp15
a(I780
I776
tp16
a(I824
I820
tp17
a(I867
I863
tp18
a(I912
I908
tp19
a(I957
I953
tp20
a(I1001
I997
tp21
a(I1044
I1040
tp22
a(I1091
I1087
tp23
a(I1144
I1140
tp24
a(I1391
I1386
tp25
a(I1434
I1429
tp26
a(I1477
I1472
tp27
a(I1521
I1516
tp28
a(I1564
I1559
tp29
a(I1608
I1603
tp30
a(I1651
I1646
tp31
a(I1695
I1690
tp32
a(I1738
I1733
tp33
a(I1782
I1777
tp34
a(I1825
I1820
tp35
a(I1869
I1864
tp36
a(I1912
I1907
tp37
a(I1956
I1951
tp38
a(I1999
I1994
tp39
a(I2043
I2038
tp40
a(I2087
I2082
tp41
a(I2130
I2125
tp42
a(I2173
I2168
tp43
a(I2217
I2212
tp44
a(I2260
I2255
tp45
a(I2304
I2299
tp46
a(I2349
I2344
tp47
a(I2393
I2388
tp48
a(I2437
I2432
tp49
a(I2480
I2475
tp50
a(I2527
I2522
tp51
a(I2571
I2566
tp52
a(I2614
I2609
tp53
a(I2658
I2653
tp54
a(I2701
I2696
tp55
a(I2745
I2739
tp56
a(I2788
I2782
tp57
a(I2835
I2829
tp58
a(I2878
I2872
tp59
a(I2922
I2916
tp60
a(I2966
I2960
tp61
a(I3009
I3003
tp62
a(I3056
I3050
tp63
as(S'849a'
p64
I6
tp65
(lp66
(I38
I38
tp67
a(I81
I81
tp68
a(I124
I124
tp69
a(I168
I168
tp70
a(I421
I421
tp71
a(I464
I464
tp72
a(I507
I507
tp73
a(I550
I550
tp74
a(I595
I595
tp75
a(I638
I638
tp76
a(I684
I684
tp77
a(I727
I727
tp78
a(I771
I771
tp79
a(I814
I814
tp80
a(I858
I858
tp81
a(I903
I903
tp82
a(I948
I948
tp83
a(I991
I991
tp84
a(I1035
I1035
tp85
a(I1081
I1081
tp86
a(I1338
I1338
tp87
a(I1381
I1381
tp88
a(I1424
I1424
tp89
a(I1467
I1467
tp90
a(I1511
I1511
tp91
a(I1554
I1554
tp92
a(I1598
I1598
tp93
a(I1642
I1642
tp94
a(I1685
I1685
tp95
a(I1728
I1728
tp96
a(I1772
I1772
tp97
a(I1815
I1815
tp98
a(I1859
I1859
tp99
a(I1903
I1903
tp100
a(I1946
I1946
tp101
a(I1989
I1989
tp102
a(I2033
I2033
tp103
a(I2077
I2077
tp104
a(I2120
I2120
tp105
a(I2163
I2163
tp106
a(I2207
I2207
tp107
a(I2250
I2250
tp108
a(I2294
I2293
tp109
a(I2340
I2339
tp110
a(I2384
I2383
tp111
a(I2427
I2426
tp112
a(I2470
I2469
tp113
a(I2517
I2516
tp114
a(I2561
I2560
tp115
a(I2604
I2603
tp116
a(I2648
I2647
tp117
a(I2691
I2690
tp118
a(I2735
I2734
tp119
a(I2778
I2777
tp120
a(I2825
I2824
tp121
a(I2868
I2867
tp122
a(I2912
I2911
tp123
a(I2956
I2953
tp124
a(I2999
I2995
tp125
a(I3046
I3042
tp126
as(g64
I8
tp127
(lp128
(I20
I20
tp129
a(I63
I63
tp130
a(I106
I106
tp131
a(I150
I150
tp132
a(I403
I403
tp133
a(I446
I446
tp134
a(I489
I489
tp135
a(I532
I532
tp136
a(I577
I577
tp137
a(I620
I620
tp138
a(I666
I666
tp139
a(I709
I709
tp140
a(I753
I753
tp141
a(I796
I796
tp142
a(I840
I840
tp143
a(I885
I885
tp144
a(I930
I930
tp145
a(I973
I973
tp146
a(I1017
I1017
tp147
a(I1063
I1063
tp148
a(I1320
I1320
tp149
a(I1363
I1363
tp150
a(I1406
I1406
tp151
a(I1449
I1448
tp152
a(I1493
I1492
tp153
a(I1536
I1535
tp154
a(I1580
I1579
tp155
a(I1624
I1623
tp156
a(I1667
I1666
tp157
a(I1710
I1709
tp158
a(I1754
I1753
tp159
a(I1797
I1796
tp160
a(I1841
I1840
tp161
a(I1885
I1884
tp162
a(I1928
I1927
tp163
a(I1971
I1970
tp164
a(I2015
I2014
tp165
a(I2059
I2058
tp166
a(I2102
I2101
tp167
a(I2145
I2144
tp168
a(I2189
I2188
tp169
a(I2232
I2230
tp170
a(I2276
I2274
tp171
a(I2322
I2320
tp172
a(I2366
I2364
tp173
a(I2409
I2407
tp174
a(I2452
I2450
tp175
a(I2499
I2497
tp176
a(I2543
I2541
tp177
a(I2586
I2584
tp178
a(I2630
I2628
tp179
a(I2673
I2671
tp180
a(I2717
I2715
tp181
a(I2760
I2758
tp182
a(I2807
I2805
tp183
a(I2850
I2848
tp184
a(I2894
I2892
tp185
a(I2938
I2936
tp186
a(I2981
I2978
tp187
a(I3028
I3024
tp188
as(S'8031'
p189
I4
tp190
(lp191
(I73
I73
tp192
a(I118
I118
tp193
a(I161
I160
tp194
a(I205
I204
tp195
a(I458
I455
tp196
a(I501
I498
tp197
a(I544
I541
tp198
a(I587
I583
tp199
a(I631
I627
tp200
a(I675
I670
tp201
a(I720
I715
tp202
a(I764
I758
tp203
a(I807
I800
tp204
a(I851
I844
tp205
a(I894
I887
tp206
a(I939
I931
tp207
a(I984
I976
tp208
a(I1028
I1020
tp209
a(I1071
I1063
tp210
a(I1115
I1107
tp211
a(I1163
I1155
tp212
a(I1418
I1409
tp213
a(I1461
I1452
tp214
a(I1504
I1495
tp215
a(I1548
I1537
tp216
a(I1591
I1580
tp217
a(I1635
I1622
tp218
a(I1678
I1663
tp219
a(I1722
I1706
tp220
a(I1765
I1749
tp221
a(I1809
I1792
tp222
a(I1852
I1835
tp223
a(I1896
I1877
tp224
a(I1939
I1920
tp225
a(I1983
I1963
tp226
a(I2026
I2005
tp227
a(I2070
I2048
tp228
a(I2113
I2091
tp229
a(I2157
I2135
tp230
a(I2200
I2178
tp231
a(I2244
I2222
tp232
a(I2287
I2264
tp233
a(I2331
I2308
tp234
a(I2375
I2351
tp235
a(I2420
I2396
tp236
a(I2464
I2439
tp237
a(I2507
I2481
tp238
a(I2554
I2528
tp239
a(I2598
I2571
tp240
a(I2641
I2613
tp241
a(I2685
I2656
tp242
a(I2728
I2699
tp243
a(I2772
I2742
tp244
a(I2815
I2784
tp245
a(I2862
I2831
tp246
a(I2905
I2874
tp247
a(I2949
I2917
tp248
a(I2992
I2959
tp249
a(I3036
I3003
tp250
a(I3082
I3048
tp251
as(g1
I5
tp252
(lp253
(I55
I54
tp254
a(I99
I98
tp255
a(I142
I140
tp256
a(I186
I184
tp257
a(I439
I432
tp258
a(I482
I475
tp259
a(I525
I518
tp260
a(I568
I561
tp261
a(I613
I606
tp262
a(I656
I649
tp263
a(I701
I694
tp264
a(I745
I738
tp265
a(I788
I781
tp266
a(I832
I825
tp267
a(I875
I868
tp268
a(I920
I913
tp269
a(I965
I958
tp270
a(I1009
I1002
tp271
a(I1052
I1045
tp272
a(I1099
I1092
tp273
a(I1152
I1145
tp274
a(I1399
I1392
tp275
a(I1442
I1435
tp276
a(I1485
I1478
tp277
a(I1529
I1522
tp278
a(I1572
I1565
tp279
a(I1616
I1609
tp280
a(I1659
I1652
tp281
a(I1703
I1696
tp282
a(I1746
I1739
tp283
a(I1790
I1783
tp284
a(I1833
I1826
tp285
a(I1877
I1870
tp286
a(I1920
I1913
tp287
a(I1964
I1957
tp288
a(I2007
I2000
tp289
a(I2051
I2044
tp290
a(I2095
I2088
tp291
a(I2138
I2131
tp292
a(I2181
I2174
tp293
a(I2225
I2218
tp294
a(I2268
I2261
tp295
a(I2312
I2305
tp296
a(I2357
I2350
tp297
a(I2401
I2394
tp298
a(I2445
I2438
tp299
a(I2488
I2481
tp300
a(I2535
I2528
tp301
a(I2579
I2572
tp302
a(I2622
I2615
tp303
a(I2666
I2659
tp304
a(I2709
I2702
tp305
a(I2753
I2746
tp306
a(I2796
I2789
tp307
a(I2843
I2836
tp308
a(I2886
I2878
tp309
a(I2930
I2922
tp310
a(I2974
I2966
tp311
a(I3017
I3009
tp312
a(I3064
I3056
tp313
as(g189
I2
tp314
(lp315
(I64
I64
tp316
a(I109
I109
tp317
a(I152
I151
tp318
a(I196
I195
tp319
a(I449
I447
tp320
a(I492
I490
tp321
a(I535
I533
tp322
a(I578
I576
tp323
a(I622
I620
tp324
a(I666
I664
tp325
a(I711
I709
tp326
a(I755
I753
tp327
a(I798
I796
tp328
a(I842
I840
tp329
a(I885
I881
tp330
a(I930
I926
tp331
a(I975
I971
tp332
a(I1019
I1015
tp333
a(I1062
I1058
tp334
a(I1106
I1101
tp335
a(I1154
I1149
tp336
a(I1409
I1403
tp337
a(I1452
I1445
tp338
a(I1495
I1487
tp339
a(I1539
I1530
tp340
a(I1582
I1573
tp341
a(I1626
I1616
tp342
a(I1669
I1659
tp343
a(I1713
I1703
tp344
a(I1756
I1745
tp345
a(I1800
I1788
tp346
a(I1843
I1831
tp347
a(I1887
I1874
tp348
a(I1930
I1917
tp349
a(I1974
I1961
tp350
a(I2017
I2003
tp351
a(I2061
I2047
tp352
a(I2104
I2090
tp353
a(I2148
I2133
tp354
a(I2191
I2175
tp355
a(I2235
I2218
tp356
a(I2278
I2260
tp357
a(I2322
I2303
tp358
a(I2366
I2347
tp359
a(I2411
I2390
tp360
a(I2455
I2433
tp361
a(I2498
I2475
tp362
a(I2545
I2522
tp363
a(I2589
I2565
tp364
a(I2632
I2608
tp365
a(I2676
I2652
tp366
a(I2719
I2694
tp367
a(I2763
I2738
tp368
a(I2806
I2780
tp369
a(I2853
I2826
tp370
a(I2896
I2869
tp371
a(I2940
I2912
tp372
a(I2983
I2955
tp373
a(I3027
I2999
tp374
a(I3073
I3045
tp375
as.