(dp0
(S'8054'
p1
I3
tp2
(lp3
(I39505
I39311
tp4
a(I39550
I39356
tp5
a(I39594
I39400
tp6
a(I39639
I39445
tp7
a(I39683
I39489
tp8
a(I39727
I39533
tp9
a(I39771
I39577
tp10
a(I39815
I39621
tp11
a(I39859
I39665
tp12
a(I39903
I39709
tp13
a(I39947
I39753
tp14
a(I39991
I39797
tp15
a(I40035
I39841
tp16
a(I40080
I39886
tp17
a(I40124
I39930
tp18
a(I40168
I39974
tp19
a(I40212
I40018
tp20
a(I40421
I40226
tp21
a(I40466
I40271
tp22
a(I40510
I40315
tp23
a(I40554
I40359
tp24
a(I40598
I40403
tp25
a(I40642
I40447
tp26
a(I40686
I40491
tp27
a(I40730
I40535
tp28
a(I40774
I40579
tp29
a(I40818
I40623
tp30
a(I40862
I40667
tp31
a(I40906
I40709
tp32
a(I40950
I40751
tp33
a(I40994
I40794
tp34
a(I41038
I40838
tp35
a(I41082
I40881
tp36
a(I41126
I40925
tp37
a(I41170
I40969
tp38
a(I41214
I41012
tp39
a(I41260
I41057
tp40
a(I41304
I41101
tp41
a(I41348
I41145
tp42
a(I41392
I41189
tp43
a(I41436
I41233
tp44
a(I41480
I41277
tp45
a(I41525
I41322
tp46
a(I41569
I41366
tp47
a(I41613
I41410
tp48
a(I41658
I41455
tp49
a(I41702
I41499
tp50
a(I41746
I41543
tp51
a(I41790
I41587
tp52
a(I41834
I41631
tp53
a(I41878
I41675
tp54
a(I41922
I41719
tp55
a(I41966
I41763
tp56
a(I42010
I41807
tp57
a(I42054
I41851
tp58
a(I42099
I41896
tp59
a(I42310
I42107
tp60
a(I42357
I42154
tp61
a(I42404
I42201
tp62
a(I42448
I42245
tp63
as(S'8031'
p64
I7
tp65
(lp66
(I39522
I39485
tp67
a(I39567
I39530
tp68
a(I39611
I39574
tp69
a(I39655
I39618
tp70
a(I39700
I39663
tp71
a(I39744
I39707
tp72
a(I39788
I39751
tp73
a(I39832
I39795
tp74
a(I39876
I39839
tp75
a(I39920
I39883
tp76
a(I39964
I39927
tp77
a(I40008
I39971
tp78
a(I40052
I40015
tp79
a(I40096
I40059
tp80
a(I40141
I40104
tp81
a(I40185
I40147
tp82
a(I40229
I40191
tp83
a(I40438
I40400
tp84
a(I40483
I40445
tp85
a(I40527
I40489
tp86
a(I40571
I40533
tp87
a(I40615
I40577
tp88
a(I40659
I40621
tp89
a(I40703
I40665
tp90
a(I40747
I40709
tp91
a(I40791
I40753
tp92
a(I40835
I40797
tp93
a(I40879
I40841
tp94
a(I40923
I40884
tp95
a(I40967
I40928
tp96
a(I41011
I40971
tp97
a(I41055
I41015
tp98
a(I41099
I41059
tp99
a(I41143
I41103
tp100
a(I41187
I41147
tp101
a(I41231
I41191
tp102
a(I41277
I41236
tp103
a(I41321
I41280
tp104
a(I41365
I41324
tp105
a(I41409
I41368
tp106
a(I41453
I41412
tp107
a(I41497
I41456
tp108
a(I41541
I41500
tp109
a(I41586
I41545
tp110
a(I41630
I41589
tp111
a(I41675
I41634
tp112
a(I41719
I41678
tp113
a(I41763
I41722
tp114
a(I41807
I41766
tp115
a(I41851
I41810
tp116
a(I41895
I41854
tp117
a(I41939
I41898
tp118
a(I41983
I41942
tp119
a(I42027
I41986
tp120
a(I42071
I42030
tp121
a(I42115
I42074
tp122
a(I42326
I42285
tp123
a(I42374
I42333
tp124
a(I42418
I42377
tp125
a(I42465
I42424
tp126
as(g64
I6
tp127
(lp128
(I39513
I39467
tp129
a(I39558
I39512
tp130
a(I39602
I39556
tp131
a(I39646
I39600
tp132
a(I39691
I39645
tp133
a(I39735
I39689
tp134
a(I39779
I39733
tp135
a(I39823
I39777
tp136
a(I39867
I39821
tp137
a(I39911
I39865
tp138
a(I39955
I39909
tp139
a(I39999
I39953
tp140
a(I40043
I39997
tp141
a(I40087
I40041
tp142
a(I40132
I40086
tp143
a(I40176
I40130
tp144
a(I40220
I40174
tp145
a(I40429
I40383
tp146
a(I40474
I40427
tp147
a(I40518
I40471
tp148
a(I40562
I40515
tp149
a(I40606
I40559
tp150
a(I40650
I40603
tp151
a(I40694
I40647
tp152
a(I40738
I40691
tp153
a(I40782
I40735
tp154
a(I40826
I40779
tp155
a(I40870
I40823
tp156
a(I40914
I40867
tp157
a(I40958
I40911
tp158
a(I41002
I40955
tp159
a(I41046
I40998
tp160
a(I41090
I41042
tp161
a(I41134
I41085
tp162
a(I41178
I41129
tp163
a(I41222
I41173
tp164
a(I41268
I41218
tp165
a(I41312
I41262
tp166
a(I41356
I41306
tp167
a(I41400
I41350
tp168
a(I41444
I41394
tp169
a(I41488
I41438
tp170
a(I41532
I41482
tp171
a(I41577
I41527
tp172
a(I41621
I41571
tp173
a(I41666
I41616
tp174
a(I41710
I41660
tp175
a(I41754
I41704
tp176
a(I41798
I41748
tp177
a(I41842
I41792
tp178
a(I41886
I41836
tp179
a(I41930
I41880
tp180
a(I41974
I41924
tp181
a(I42018
I41968
tp182
a(I42062
I42012
tp183
a(I42106
I42056
tp184
a(I42317
I42267
tp185
a(I42365
I42315
tp186
a(I42409
I42359
tp187
a(I42456
I42406
tp188
as(S'849a'
p189
I8
tp190
(lp191
(I39536
I39531
tp192
a(I39581
I39576
tp193
a(I39625
I39620
tp194
a(I39670
I39665
tp195
a(I39714
I39709
tp196
a(I39758
I39753
tp197
a(I39802
I39797
tp198
a(I39846
I39841
tp199
a(I39890
I39885
tp200
a(I39934
I39929
tp201
a(I39978
I39973
tp202
a(I40022
I40017
tp203
a(I40066
I40061
tp204
a(I40111
I40106
tp205
a(I40155
I40150
tp206
a(I40199
I40194
tp207
a(I40243
I40238
tp208
a(I40452
I40447
tp209
a(I40497
I40492
tp210
a(I40541
I40536
tp211
a(I40585
I40580
tp212
a(I40629
I40624
tp213
a(I40673
I40668
tp214
a(I40717
I40712
tp215
a(I40761
I40756
tp216
a(I40805
I40800
tp217
a(I40849
I40844
tp218
a(I40893
I40888
tp219
a(I40937
I40932
tp220
a(I40981
I40976
tp221
a(I41025
I41020
tp222
a(I41069
I41064
tp223
a(I41113
I41108
tp224
a(I41157
I41152
tp225
a(I41201
I41196
tp226
a(I41245
I41240
tp227
a(I41291
I41286
tp228
a(I41335
I41330
tp229
a(I41379
I41374
tp230
a(I41423
I41418
tp231
a(I41467
I41462
tp232
a(I41511
I41506
tp233
a(I41556
I41551
tp234
a(I41600
I41595
tp235
a(I41644
I41639
tp236
a(I41689
I41684
tp237
a(I41733
I41728
tp238
a(I41777
I41772
tp239
a(I41821
I41816
tp240
a(I41865
I41860
tp241
a(I41909
I41904
tp242
a(I41953
I41948
tp243
a(I41997
I41992
tp244
a(I42041
I42036
tp245
a(I42085
I42080
tp246
a(I42130
I42125
tp247
a(I42344
I42339
tp248
a(I42388
I42382
tp249
a(I42435
I42429
tp250
a(I42479
I42473
tp251
as(g189
I4
tp252
(lp253
(I39546
I39535
tp254
a(I39591
I39580
tp255
a(I39635
I39624
tp256
a(I39680
I39669
tp257
a(I39724
I39713
tp258
a(I39768
I39757
tp259
a(I39812
I39801
tp260
a(I39856
I39845
tp261
a(I39900
I39889
tp262
a(I39944
I39933
tp263
a(I39988
I39977
tp264
a(I40032
I40021
tp265
a(I40076
I40065
tp266
a(I40121
I40110
tp267
a(I40165
I40154
tp268
a(I40209
I40198
tp269
a(I40253
I40242
tp270
a(I40462
I40451
tp271
a(I40507
I40496
tp272
a(I40551
I40540
tp273
a(I40595
I40584
tp274
a(I40639
I40628
tp275
a(I40683
I40672
tp276
a(I40727
I40716
tp277
a(I40771
I40760
tp278
a(I40815
I40804
tp279
a(I40859
I40848
tp280
a(I40903
I40892
tp281
a(I40947
I40936
tp282
a(I40991
I40980
tp283
a(I41035
I41024
tp284
a(I41079
I41068
tp285
a(I41123
I41112
tp286
a(I41167
I41156
tp287
a(I41211
I41200
tp288
a(I41255
I41244
tp289
a(I41301
I41290
tp290
a(I41345
I41334
tp291
a(I41389
I41378
tp292
a(I41433
I41422
tp293
a(I41477
I41466
tp294
a(I41521
I41510
tp295
a(I41566
I41555
tp296
a(I41610
I41599
tp297
a(I41654
I41643
tp298
a(I41699
I41688
tp299
a(I41743
I41732
tp300
a(I41787
I41776
tp301
a(I41831
I41820
tp302
a(I41875
I41864
tp303
a(I41919
I41908
tp304
a(I41963
I41952
tp305
a(I42007
I41996
tp306
a(I42051
I42040
tp307
a(I42095
I42084
tp308
a(I42140
I42129
tp309
a(I42354
I42343
tp310
a(I42398
I42387
tp311
a(I42445
I42434
tp312
a(I42489
I42478
tp313
as(g1
I2
tp314
(lp315
(I39495
I39308
tp316
a(I39540
I39353
tp317
a(I39584
I39397
tp318
a(I39629
I39442
tp319
a(I39673
I39486
tp320
a(I39717
I39530
tp321
a(I39761
I39574
tp322
a(I39805
I39618
tp323
a(I39849
I39662
tp324
a(I39893
I39706
tp325
a(I39937
I39750
tp326
a(I39981
I39794
tp327
a(I40025
I39838
tp328
a(I40070
I39883
tp329
a(I40114
I39927
tp330
a(I40158
I39971
tp331
a(I40202
I40015
tp332
a(I40411
I40224
tp333
a(I40456
I40268
tp334
a(I40500
I40312
tp335
a(I40544
I40356
tp336
a(I40588
I40400
tp337
a(I40632
I40444
tp338
a(I40676
I40488
tp339
a(I40720
I40532
tp340
a(I40764
I40576
tp341
a(I40808
I40620
tp342
a(I40852
I40663
tp343
a(I40896
I40706
tp344
a(I40940
I40750
tp345
a(I40984
I40791
tp346
a(I41028
I40835
tp347
a(I41072
I40878
tp348
a(I41116
I40922
tp349
a(I41160
I40965
tp350
a(I41204
I41008
tp351
a(I41250
I41054
tp352
a(I41294
I41098
tp353
a(I41338
I41142
tp354
a(I41382
I41186
tp355
a(I41426
I41230
tp356
a(I41470
I41274
tp357
a(I41515
I41319
tp358
a(I41559
I41362
tp359
a(I41603
I41406
tp360
a(I41648
I41451
tp361
a(I41692
I41495
tp362
a(I41736
I41539
tp363
a(I41780
I41583
tp364
a(I41824
I41627
tp365
a(I41868
I41671
tp366
a(I41912
I41715
tp367
a(I41956
I41759
tp368
a(I42000
I41803
tp369
a(I42044
I41847
tp370
a(I42089
I41892
tp371
a(I42300
I42103
tp372
a(I42347
I42150
tp373
a(I42394
I42197
tp374
a(I42438
I42241
tp375
as.