(dp0
(S'f51d'
p1
I7
tp2
(lp3
(I3855
I3851
tp4
a(I3902
I3898
tp5
a(I3947
I3943
tp6
a(I3992
I3988
tp7
a(I4038
I4034
tp8
a(I4083
I4078
tp9
a(I4128
I4123
tp10
a(I4173
I4168
tp11
a(I4218
I4213
tp12
a(I4263
I4258
tp13
a(I4311
I4306
tp14
a(I4357
I4352
tp15
a(I4405
I4400
tp16
a(I4450
I4445
tp17
a(I4496
I4491
tp18
a(I4542
I4537
tp19
a(I4587
I4582
tp20
a(I4632
I4627
tp21
a(I4678
I4673
tp22
a(I4723
I4718
tp23
a(I4768
I4763
tp24
a(I4815
I4809
tp25
a(I4863
I4857
tp26
a(I4908
I4902
tp27
a(I4953
I4947
tp28
a(I5001
I4995
tp29
a(I5047
I5041
tp30
a(I5092
I5086
tp31
a(I5137
I5131
tp32
a(I5182
I5176
tp33
a(I5227
I5221
tp34
a(I5272
I5266
tp35
a(I5317
I5311
tp36
a(I5362
I5355
tp37
a(I5409
I5402
tp38
a(I5456
I5449
tp39
a(I5501
I5494
tp40
a(I5546
I5537
tp41
a(I5591
I5581
tp42
a(I5636
I5626
tp43
a(I5681
I5670
tp44
a(I5729
I5715
tp45
a(I5777
I5762
tp46
a(I5825
I5810
tp47
a(I5870
I5855
tp48
a(I5922
I5906
tp49
a(I5967
I5950
tp50
a(I6012
I5994
tp51
a(I6057
I6039
tp52
a(I6102
I6084
tp53
a(I6147
I6127
tp54
a(I6341
I6319
tp55
a(I6387
I6364
tp56
a(I6432
I6409
tp57
a(I6477
I6454
tp58
a(I6522
I6499
tp59
a(I6567
I6544
tp60
a(I6612
I6589
tp61
a(I6658
I6634
tp62
a(I6704
I6680
tp63
as(g1
I6
tp64
(lp65
(I3839
I3831
tp66
a(I3886
I3878
tp67
a(I3931
I3922
tp68
a(I3976
I3967
tp69
a(I4022
I4013
tp70
a(I4067
I4058
tp71
a(I4112
I4103
tp72
a(I4157
I4148
tp73
a(I4202
I4193
tp74
a(I4247
I4238
tp75
a(I4295
I4286
tp76
a(I4341
I4332
tp77
a(I4389
I4380
tp78
a(I4434
I4425
tp79
a(I4480
I4471
tp80
a(I4526
I4517
tp81
a(I4571
I4562
tp82
a(I4616
I4607
tp83
a(I4662
I4653
tp84
a(I4707
I4698
tp85
a(I4752
I4743
tp86
a(I4799
I4789
tp87
a(I4847
I4837
tp88
a(I4892
I4881
tp89
a(I4937
I4926
tp90
a(I4985
I4974
tp91
a(I5031
I5020
tp92
a(I5076
I5065
tp93
a(I5121
I5110
tp94
a(I5166
I5155
tp95
a(I5211
I5200
tp96
a(I5256
I5244
tp97
a(I5301
I5288
tp98
a(I5346
I5333
tp99
a(I5393
I5380
tp100
a(I5440
I5425
tp101
a(I5485
I5470
tp102
a(I5530
I5515
tp103
a(I5575
I5560
tp104
a(I5620
I5605
tp105
a(I5665
I5649
tp106
a(I5713
I5696
tp107
a(I5761
I5744
tp108
a(I5809
I5792
tp109
a(I5854
I5836
tp110
a(I5906
I5887
tp111
a(I5951
I5932
tp112
a(I5996
I5977
tp113
a(I6041
I6020
tp114
a(I6086
I6065
tp115
a(I6131
I6110
tp116
a(I6325
I6304
tp117
a(I6371
I6349
tp118
a(I6416
I6394
tp119
a(I6461
I6439
tp120
a(I6506
I6484
tp121
a(I6551
I6529
tp122
a(I6596
I6574
tp123
a(I6642
I6620
tp124
a(I6688
I6666
tp125
as(S'8054'
p126
I5
tp127
(lp128
(I4530
I4528
tp129
a(I4577
I4575
tp130
a(I4622
I4620
tp131
a(I4667
I4665
tp132
a(I4713
I4711
tp133
a(I4758
I4756
tp134
a(I4803
I4801
tp135
a(I4848
I4846
tp136
a(I4893
I4891
tp137
a(I4938
I4936
tp138
a(I4986
I4984
tp139
a(I5032
I5030
tp140
a(I5077
I5075
tp141
a(I5125
I5123
tp142
a(I5170
I5168
tp143
a(I5216
I5214
tp144
a(I5262
I5260
tp145
a(I5307
I5305
tp146
a(I5352
I5350
tp147
a(I5398
I5396
tp148
a(I5443
I5441
tp149
a(I5490
I5487
tp150
a(I5535
I5532
tp151
a(I5583
I5580
tp152
a(I5628
I5625
tp153
a(I5676
I5673
tp154
a(I5721
I5718
tp155
a(I5767
I5764
tp156
a(I5812
I5809
tp157
a(I5857
I5854
tp158
a(I5902
I5899
tp159
a(I5947
I5944
tp160
a(I5992
I5989
tp161
a(I6037
I6034
tp162
a(I6082
I6079
tp163
a(I6129
I6126
tp164
a(I6176
I6173
tp165
a(I6221
I6218
tp166
a(I6266
I6262
tp167
a(I6311
I6307
tp168
a(I6356
I6352
tp169
a(I6401
I6396
tp170
a(I6452
I6447
tp171
a(I6497
I6492
tp172
a(I6545
I6539
tp173
a(I6597
I6591
tp174
a(I6642
I6636
tp175
a(I6687
I6681
tp176
a(I6732
I6726
tp177
a(I6777
I6771
tp178
a(I6822
I6816
tp179
a(I6867
I6861
tp180
a(I7061
I7054
tp181
a(I7107
I7100
tp182
a(I7152
I7145
tp183
a(I7197
I7190
tp184
a(I7242
I7235
tp185
a(I7287
I7280
tp186
a(I7333
I7326
tp187
a(I7378
I7371
tp188
as(S'849a'
p189
I2
tp190
(lp191
(I4015
I3969
tp192
a(I4062
I4016
tp193
a(I4107
I4061
tp194
a(I4152
I4106
tp195
a(I4198
I4152
tp196
a(I4243
I4197
tp197
a(I4288
I4242
tp198
a(I4333
I4287
tp199
a(I4378
I4331
tp200
a(I4423
I4375
tp201
a(I4471
I4423
tp202
a(I4517
I4469
tp203
a(I4565
I4517
tp204
a(I4610
I4562
tp205
a(I4656
I4608
tp206
a(I4701
I4653
tp207
a(I4747
I4699
tp208
a(I4792
I4744
tp209
a(I4838
I4790
tp210
a(I4883
I4835
tp211
a(I4928
I4880
tp212
a(I4975
I4927
tp213
a(I5023
I4975
tp214
a(I5068
I5020
tp215
a(I5113
I5064
tp216
a(I5161
I5112
tp217
a(I5206
I5157
tp218
a(I5252
I5203
tp219
a(I5297
I5248
tp220
a(I5342
I5293
tp221
a(I5387
I5338
tp222
a(I5432
I5383
tp223
a(I5477
I5428
tp224
a(I5522
I5473
tp225
a(I5569
I5520
tp226
a(I5614
I5565
tp227
a(I5661
I5612
tp228
a(I5706
I5656
tp229
a(I5751
I5700
tp230
a(I5796
I5745
tp231
a(I5841
I5790
tp232
a(I5886
I5834
tp233
a(I5937
I5884
tp234
a(I5985
I5932
tp235
a(I6030
I5977
tp236
a(I6082
I6028
tp237
a(I6127
I6073
tp238
a(I6172
I6118
tp239
a(I6217
I6163
tp240
a(I6262
I6208
tp241
a(I6307
I6253
tp242
a(I6501
I6447
tp243
a(I6547
I6493
tp244
a(I6592
I6538
tp245
a(I6637
I6583
tp246
a(I6682
I6628
tp247
a(I6727
I6673
tp248
a(I6772
I6718
tp249
a(I6818
I6764
tp250
a(I6864
I6810
tp251
as(g126
I8
tp252
(lp253
(I4524
I4522
tp254
a(I4571
I4569
tp255
a(I4616
I4614
tp256
a(I4661
I4659
tp257
a(I4707
I4705
tp258
a(I4752
I4750
tp259
a(I4797
I4795
tp260
a(I4842
I4840
tp261
a(I4887
I4885
tp262
a(I4932
I4930
tp263
a(I4980
I4978
tp264
a(I5026
I5024
tp265
a(I5071
I5069
tp266
a(I5119
I5117
tp267
a(I5164
I5162
tp268
a(I5210
I5208
tp269
a(I5256
I5254
tp270
a(I5301
I5299
tp271
a(I5346
I5344
tp272
a(I5392
I5390
tp273
a(I5437
I5435
tp274
a(I5484
I5482
tp275
a(I5529
I5526
tp276
a(I5577
I5574
tp277
a(I5622
I5619
tp278
a(I5670
I5667
tp279
a(I5715
I5712
tp280
a(I5761
I5758
tp281
a(I5806
I5803
tp282
a(I5851
I5848
tp283
a(I5896
I5893
tp284
a(I5941
I5938
tp285
a(I5986
I5983
tp286
a(I6031
I6028
tp287
a(I6076
I6073
tp288
a(I6123
I6120
tp289
a(I6170
I6167
tp290
a(I6215
I6212
tp291
a(I6260
I6257
tp292
a(I6305
I6302
tp293
a(I6350
I6347
tp294
a(I6395
I6392
tp295
a(I6446
I6443
tp296
a(I6491
I6487
tp297
a(I6539
I6535
tp298
a(I6591
I6587
tp299
a(I6636
I6632
tp300
a(I6681
I6677
tp301
a(I6726
I6722
tp302
a(I6771
I6767
tp303
a(I6816
I6812
tp304
a(I6861
I6857
tp305
a(I7055
I7051
tp306
a(I7101
I7097
tp307
a(I7146
I7142
tp308
a(I7191
I7187
tp309
a(I7236
I7232
tp310
a(I7281
I7277
tp311
a(I7327
I7323
tp312
a(I7372
I7368
tp313
as(g189
I4
tp314
(lp315
(I4023
I3973
tp316
a(I4070
I4020
tp317
a(I4115
I4065
tp318
a(I4160
I4110
tp319
a(I4206
I4156
tp320
a(I4251
I4201
tp321
a(I4296
I4245
tp322
a(I4341
I4289
tp323
a(I4386
I4334
tp324
a(I4431
I4379
tp325
a(I4479
I4427
tp326
a(I4525
I4473
tp327
a(I4573
I4521
tp328
a(I4618
I4566
tp329
a(I4664
I4612
tp330
a(I4709
I4657
tp331
a(I4755
I4703
tp332
a(I4800
I4748
tp333
a(I4846
I4794
tp334
a(I4891
I4839
tp335
a(I4936
I4884
tp336
a(I4983
I4930
tp337
a(I5031
I4978
tp338
a(I5076
I5023
tp339
a(I5121
I5067
tp340
a(I5169
I5115
tp341
a(I5214
I5160
tp342
a(I5260
I5206
tp343
a(I5305
I5251
tp344
a(I5350
I5296
tp345
a(I5395
I5341
tp346
a(I5440
I5386
tp347
a(I5485
I5431
tp348
a(I5530
I5476
tp349
a(I5577
I5523
tp350
a(I5622
I5568
tp351
a(I5669
I5615
tp352
a(I5714
I5660
tp353
a(I5759
I5704
tp354
a(I5804
I5749
tp355
a(I5849
I5794
tp356
a(I5894
I5837
tp357
a(I5945
I5888
tp358
a(I5993
I5934
tp359
a(I6038
I5978
tp360
a(I6090
I6030
tp361
a(I6135
I6075
tp362
a(I6180
I6120
tp363
a(I6225
I6165
tp364
a(I6270
I6210
tp365
a(I6315
I6255
tp366
a(I6509
I6449
tp367
a(I6555
I6495
tp368
a(I6600
I6540
tp369
a(I6645
I6585
tp370
a(I6690
I6630
tp371
a(I6735
I6675
tp372
a(I6780
I6720
tp373
a(I6826
I6766
tp374
a(I6872
I6812
tp375
as.