(dp0
S'849a'
p1
(lp2
(lp3
(I3
I25898
I25359
tp4
a(I2
I25905
I25375
tp5
aa(lp6
(I3
I25942
I25402
tp7
a(I2
I25949
I25418
tp8
aa(lp9
(I3
I25985
I25445
tp10
a(I2
I25992
I25461
tp11
aa(lp12
(I3
I26031
I25491
tp13
a(I2
I26038
I25506
tp14
aa(lp15
(I3
I26079
I25538
tp16
a(I2
I26086
I25554
tp17
aa(lp18
(I3
I26124
I25583
tp19
a(I2
I26131
I25598
tp20
aa(lp21
(I3
I26169
I25628
tp22
a(I2
I26176
I25642
tp23
aa(lp24
(I3
I26213
I25672
tp25
a(I2
I26220
I25686
tp26
aa(lp27
(I3
I26452
I25908
tp28
a(I2
I26459
I25925
tp29
aa(lp30
(I3
I26497
I25953
tp31
a(I2
I26504
I25970
tp32
aa(lp33
(I3
I26541
I25997
tp34
a(I2
I26548
I26014
tp35
aa(lp36
(I3
I26584
I26038
tp37
a(I2
I26591
I26056
tp38
aa(lp39
(I3
I26628
I26081
tp40
a(I2
I26635
I26100
tp41
aa(lp42
(I3
I26671
I26124
tp43
a(I2
I26678
I26143
tp44
aa(lp45
(I3
I26715
I26167
tp46
a(I2
I26722
I26186
tp47
aa(lp48
(I3
I26758
I26208
tp49
a(I2
I26765
I26224
tp50
aa(lp51
(I3
I26977
I26426
tp52
a(I2
I26984
I26442
tp53
aa(lp54
(I3
I27024
I26473
tp55
a(I2
I27031
I26489
tp56
aa(lp57
(I3
I27067
I26516
tp58
a(I2
I27074
I26532
tp59
aa(lp60
(I3
I27111
I26560
tp61
a(I2
I27118
I26576
tp62
aa(lp63
(I3
I27154
I26599
tp64
a(I2
I27161
I26618
tp65
aa(lp66
(I3
I27198
I26643
tp67
a(I2
I27205
I26662
tp68
aa(lp69
(I3
I27241
I26686
tp70
a(I2
I27248
I26704
tp71
aa(lp72
(I3
I27293
I26738
tp73
a(I2
I27300
I26755
tp74
aa(lp75
(I3
I27338
I26781
tp76
a(I2
I27345
I26800
tp77
aa(lp78
(I3
I27381
I26824
tp79
a(I2
I27388
I26843
tp80
aa(lp81
(I3
I27428
I26870
tp82
a(I2
I27435
I26890
tp83
aa(lp84
(I3
I27471
I26912
tp85
a(I2
I27478
I26932
tp86
aa(lp87
(I3
I27519
I26960
tp88
a(I2
I27526
I26979
tp89
aa(lp90
(I3
I27565
I27006
tp91
a(I2
I27572
I27025
tp92
aa(lp93
(I3
I27611
I27052
tp94
a(I2
I27618
I27071
tp95
aa(lp96
(I3
I27656
I27095
tp97
a(I2
I27663
I27115
tp98
aa(lp99
(I3
I27702
I27141
tp100
a(I2
I27709
I27161
tp101
aa(lp102
(I3
I27746
I27185
tp103
a(I2
I27753
I27205
tp104
aa(lp105
(I3
I27789
I27228
tp106
a(I2
I27796
I27248
tp107
aa(lp108
(I3
I27836
I27274
tp109
a(I2
I27843
I27294
tp110
aa(lp111
(I3
I27879
I27317
tp112
a(I2
I27886
I27337
tp113
aa(lp114
(I3
I27926
I27364
tp115
a(I2
I27933
I27384
tp116
aa(lp117
(I3
I27969
I27407
tp118
a(I2
I27976
I27427
tp119
aa(lp120
(I3
I28013
I27451
tp121
a(I2
I28020
I27471
tp122
aa(lp123
(I3
I28056
I27493
tp124
a(I2
I28063
I27514
tp125
aa(lp126
(I3
I28100
I27537
tp127
a(I2
I28107
I27558
tp128
aa(lp129
(I3
I28143
I27580
tp130
a(I2
I28150
I27601
tp131
aa(lp132
(I3
I28187
I27624
tp133
a(I2
I28194
I27645
tp134
aa(lp135
(I3
I28230
I27667
tp136
a(I2
I28237
I27688
tp137
aa(lp138
(I3
I28274
I27711
tp139
a(I2
I28281
I27732
tp140
aa(lp141
(I3
I28317
I27754
tp142
a(I2
I28324
I27774
tp143
aa(lp144
(I3
I28363
I27800
tp145
a(I2
I28370
I27820
tp146
aa(lp147
(I3
I28407
I27844
tp148
a(I2
I28414
I27864
tp149
aa(lp150
(I3
I28451
I27888
tp151
a(I2
I28458
I27908
tp152
aa(lp153
(I3
I28494
I27931
tp154
a(I2
I28501
I27951
tp155
aa(lp156
(I3
I28538
I27975
tp157
a(I2
I28545
I27995
tp158
aa(lp159
(I3
I28581
I28018
tp160
a(I2
I28588
I28038
tp161
aa(lp162
(I3
I28627
I28064
tp163
a(I2
I28634
I28084
tp164
aa(lp165
(I3
I28672
I28109
tp166
a(I2
I28679
I28129
tp167
aa(lp168
(I3
I28715
I28152
tp169
a(I2
I28722
I28172
tp170
aa(lp171
(I3
I28759
I28196
tp172
a(I2
I28766
I28216
tp173
aa(lp174
(I3
I28802
I28239
tp175
a(I2
I28809
I28259
tp176
aa(lp177
(I3
I28846
I28283
tp178
a(I2
I28853
I28303
tp179
aa(lp180
(I3
I28890
I28327
tp181
a(I2
I28897
I28347
tp182
aasS'8031'
p183
(lp184
(lp185
(I6
I25916
I25733
tp186
a(I7
I25925
I25744
tp187
aa(lp188
(I6
I25961
I25778
tp189
a(I7
I25970
I25789
tp190
aa(lp191
(I6
I26004
I25821
tp192
a(I7
I26013
I25832
tp193
aa(lp194
(I6
I26048
I25865
tp195
a(I7
I26057
I25876
tp196
aa(lp197
(I6
I26097
I25914
tp198
a(I7
I26106
I25924
tp199
aa(lp200
(I6
I26141
I25958
tp201
a(I7
I26150
I25968
tp202
aa(lp203
(I6
I26188
I26005
tp204
a(I7
I26197
I26015
tp205
aa(lp206
(I6
I26231
I26048
tp207
a(I7
I26240
I26058
tp208
aa(lp209
(I6
I26275
I26092
tp210
a(I7
I26284
I26102
tp211
aa(lp212
(I6
I26516
I26332
tp213
a(I7
I26525
I26342
tp214
aa(lp215
(I6
I26560
I26376
tp216
a(I7
I26569
I26386
tp217
aa(lp218
(I6
I26603
I26419
tp219
a(I7
I26612
I26429
tp220
aa(lp221
(I6
I26647
I26463
tp222
a(I7
I26656
I26473
tp223
aa(lp224
(I6
I26690
I26505
tp225
a(I7
I26699
I26516
tp226
aa(lp227
(I6
I26734
I26549
tp228
a(I7
I26743
I26560
tp229
aa(lp230
(I6
I26777
I26591
tp231
a(I7
I26786
I26602
tp232
aa(lp233
(I6
I26995
I26808
tp234
a(I7
I27004
I26820
tp235
aa(lp236
(I6
I27041
I26854
tp237
a(I7
I27050
I26866
tp238
aa(lp239
(I6
I27086
I26899
tp240
a(I7
I27095
I26911
tp241
aa(lp242
(I6
I27130
I26943
tp243
a(I7
I27139
I26955
tp244
aa(lp245
(I6
I27173
I26986
tp246
a(I7
I27182
I26998
tp247
aa(lp248
(I6
I27217
I27030
tp249
a(I7
I27226
I27042
tp250
aa(lp251
(I6
I27260
I27073
tp252
a(I7
I27269
I27085
tp253
aa(lp254
(I6
I27305
I27118
tp255
a(I7
I27314
I27130
tp256
aa(lp257
(I6
I27357
I27170
tp258
a(I7
I27366
I27182
tp259
aa(lp260
(I6
I27400
I27213
tp261
a(I7
I27409
I27225
tp262
aa(lp263
(I6
I27446
I27259
tp264
a(I7
I27455
I27271
tp265
aa(lp266
(I6
I27490
I27303
tp267
a(I7
I27499
I27315
tp268
aa(lp269
(I6
I27536
I27349
tp270
a(I7
I27545
I27361
tp271
aa(lp272
(I6
I27583
I27396
tp273
a(I7
I27592
I27408
tp274
aa(lp275
(I6
I27629
I27442
tp276
a(I7
I27638
I27454
tp277
aa(lp278
(I6
I27675
I27488
tp279
a(I7
I27684
I27500
tp280
aa(lp281
(I6
I27720
I27533
tp282
a(I7
I27729
I27545
tp283
aa(lp284
(I6
I27765
I27578
tp285
a(I7
I27774
I27590
tp286
aa(lp287
(I6
I27808
I27621
tp288
a(I7
I27817
I27633
tp289
aa(lp290
(I6
I27854
I27667
tp291
a(I7
I27863
I27679
tp292
aa(lp293
(I6
I27898
I27711
tp294
a(I7
I27907
I27723
tp295
aa(lp296
(I6
I27944
I27757
tp297
a(I7
I27953
I27769
tp298
aa(lp299
(I6
I27988
I27801
tp300
a(I7
I27997
I27813
tp301
aa(lp302
(I6
I28032
I27845
tp303
a(I7
I28041
I27857
tp304
aa(lp305
(I6
I28075
I27888
tp306
a(I7
I28084
I27900
tp307
aa(lp308
(I6
I28119
I27932
tp309
a(I7
I28128
I27944
tp310
aa(lp311
(I6
I28162
I27975
tp312
a(I7
I28171
I27987
tp313
aa(lp314
(I6
I28206
I28019
tp315
a(I7
I28215
I28031
tp316
aa(lp317
(I6
I28249
I28062
tp318
a(I7
I28258
I28074
tp319
aa(lp320
(I6
I28293
I28106
tp321
a(I7
I28302
I28117
tp322
aa(lp323
(I6
I28336
I28149
tp324
a(I7
I28345
I28160
tp325
aa(lp326
(I6
I28381
I28194
tp327
a(I7
I28390
I28205
tp328
aa(lp329
(I6
I28426
I28239
tp330
a(I7
I28435
I28250
tp331
aa(lp332
(I6
I28470
I28283
tp333
a(I7
I28479
I28294
tp334
aa(lp335
(I6
I28513
I28326
tp336
a(I7
I28522
I28336
tp337
aa(lp338
(I6
I28557
I28369
tp339
a(I7
I28566
I28380
tp340
aa(lp341
(I6
I28600
I28412
tp342
a(I7
I28609
I28423
tp343
aa(lp344
(I6
I28644
I28456
tp345
a(I7
I28653
I28467
tp346
aa(lp347
(I6
I28690
I28502
tp348
a(I7
I28699
I28513
tp349
aa(lp350
(I6
I28734
I28546
tp351
a(I7
I28743
I28557
tp352
aa(lp353
(I6
I28778
I28590
tp354
a(I7
I28787
I28601
tp355
aa(lp356
(I6
I28821
I28633
tp357
a(I7
I28830
I28644
tp358
aa(lp359
(I6
I28865
I28677
tp360
a(I7
I28874
I28688
tp361
aa(lp362
(I6
I28908
I28720
tp363
a(I7
I28917
I28731
tp364
aasS'8054'
p365
(lp366
(lp367
(I5
I25935
I25933
tp368
a(I4
I25944
I25944
tp369
aa(lp370
(I5
I25981
I25979
tp371
a(I4
I25990
I25990
tp372
aa(lp373
(I5
I26024
I26022
tp374
a(I4
I26033
I26033
tp375
aa(lp376
(I5
I26068
I26066
tp377
a(I4
I26077
I26077
tp378
aa(lp379
(I5
I26116
I26114
tp380
a(I4
I26125
I26125
tp381
aa(lp382
(I5
I26161
I26159
tp383
a(I4
I26170
I26170
tp384
aa(lp385
(I5
I26207
I26205
tp386
a(I4
I26216
I26216
tp387
aa(lp388
(I5
I26251
I26249
tp389
a(I4
I26260
I26260
tp390
aa(lp391
(I5
I26295
I26293
tp392
a(I4
I26304
I26304
tp393
aa(lp394
(I5
I26535
I26533
tp395
a(I4
I26544
I26544
tp396
aa(lp397
(I5
I26579
I26577
tp398
a(I4
I26588
I26588
tp399
aa(lp400
(I5
I26623
I26621
tp401
a(I4
I26632
I26632
tp402
aa(lp403
(I5
I26667
I26665
tp404
a(I4
I26676
I26676
tp405
aa(lp406
(I5
I26710
I26708
tp407
a(I4
I26719
I26719
tp408
aa(lp409
(I5
I26754
I26752
tp410
a(I4
I26763
I26763
tp411
aa(lp412
(I5
I26797
I26795
tp413
a(I4
I26806
I26806
tp414
aa(lp415
(I5
I26840
I26838
tp416
a(I4
I26849
I26849
tp417
aa(lp418
(I5
I27060
I27058
tp419
a(I4
I27069
I27069
tp420
aa(lp421
(I5
I27106
I27104
tp422
a(I4
I27115
I27115
tp423
aa(lp424
(I5
I27150
I27148
tp425
a(I4
I27159
I27159
tp426
aa(lp427
(I5
I27193
I27191
tp428
a(I4
I27202
I27202
tp429
aa(lp430
(I5
I27237
I27235
tp431
a(I4
I27246
I27246
tp432
aa(lp433
(I5
I27280
I27278
tp434
a(I4
I27289
I27289
tp435
aa(lp436
(I5
I27324
I27322
tp437
a(I4
I27333
I27333
tp438
aa(lp439
(I5
I27376
I27374
tp440
a(I4
I27385
I27385
tp441
aa(lp442
(I5
I27420
I27418
tp443
a(I4
I27429
I27429
tp444
aa(lp445
(I5
I27464
I27462
tp446
a(I4
I27473
I27473
tp447
aa(lp448
(I5
I27510
I27508
tp449
a(I4
I27519
I27519
tp450
aa(lp451
(I5
I27555
I27553
tp452
a(I4
I27564
I27564
tp453
aa(lp454
(I5
I27602
I27600
tp455
a(I4
I27611
I27611
tp456
aa(lp457
(I5
I27648
I27646
tp458
a(I4
I27657
I27657
tp459
aa(lp460
(I5
I27694
I27692
tp461
a(I4
I27703
I27703
tp462
aa(lp463
(I5
I27739
I27737
tp464
a(I4
I27748
I27748
tp465
aa(lp466
(I5
I27785
I27783
tp467
a(I4
I27794
I27794
tp468
aa(lp469
(I5
I27828
I27826
tp470
a(I4
I27837
I27837
tp471
aa(lp472
(I5
I27871
I27869
tp473
a(I4
I27880
I27880
tp474
aa(lp475
(I5
I27918
I27916
tp476
a(I4
I27927
I27927
tp477
aa(lp478
(I5
I27962
I27960
tp479
a(I4
I27971
I27971
tp480
aa(lp481
(I5
I28008
I28006
tp482
a(I4
I28017
I28017
tp483
aa(lp484
(I5
I28052
I28050
tp485
a(I4
I28061
I28061
tp486
aa(lp487
(I5
I28095
I28093
tp488
a(I4
I28104
I28104
tp489
aa(lp490
(I5
I28139
I28137
tp491
a(I4
I28148
I28148
tp492
aa(lp493
(I5
I28182
I28180
tp494
a(I4
I28191
I28191
tp495
aa(lp496
(I5
I28226
I28224
tp497
a(I4
I28235
I28235
tp498
aa(lp499
(I5
I28269
I28267
tp500
a(I4
I28278
I28278
tp501
aa(lp502
(I5
I28313
I28311
tp503
a(I4
I28322
I28322
tp504
aa(lp505
(I5
I28356
I28354
tp506
a(I4
I28365
I28365
tp507
aa(lp508
(I5
I28400
I28398
tp509
a(I4
I28409
I28409
tp510
aa(lp511
(I5
I28446
I28444
tp512
a(I4
I28455
I28455
tp513
aa(lp514
(I5
I28490
I28488
tp515
a(I4
I28499
I28499
tp516
aa(lp517
(I5
I28533
I28531
tp518
a(I4
I28542
I28542
tp519
aa(lp520
(I5
I28577
I28575
tp521
a(I4
I28586
I28586
tp522
aa(lp523
(I5
I28620
I28618
tp524
a(I4
I28629
I28629
tp525
aa(lp526
(I5
I28664
I28662
tp527
a(I4
I28673
I28673
tp528
aa(lp529
(I5
I28710
I28708
tp530
a(I4
I28719
I28719
tp531
aa(lp532
(I5
I28754
I28752
tp533
a(I4
I28763
I28763
tp534
aa(lp535
(I5
I28797
I28795
tp536
a(I4
I28806
I28806
tp537
aa(lp538
(I5
I28841
I28839
tp539
a(I4
I28850
I28850
tp540
aa(lp541
(I5
I28885
I28883
tp542
a(I4
I28894
I28894
tp543
aa(lp544
(I5
I28928
I28926
tp545
a(I4
I28937
I28937
tp546
aas.